 dynamorio

 Timestamp is 57c3d90c (Mon Aug 29 02:41:16 2016)

 Preferred load address is 0000000071000000

 Start         Length     Name                   Class
 0001:00000000 000ec626H .text                   CODE
 0002:00000000 000003e0H .idata$5                DATA
 0002:000003e0 000423ecH .rdata                  DATA
 0002:000427cc 00000078H .rdata$debug            DATA
 0002:00042848 0000b7ccH .xdata                  DATA
 0002:0004e014 00000014H .idata$2                DATA
 0002:0004e028 00000014H .idata$3                DATA
 0002:0004e040 000003e0H .idata$4                DATA
 0002:0004e420 0000095cH .idata$6                DATA
 0002:0004ed80 00005ea6H .edata                  DATA
 0003:00000000 00014690H .data                   DATA
 0003:00015000 00026cc0H .bss                    DATA
 0004:00000000 0000b754H .pdata                  DATA
 0005:00000000 0000097aH .fspdata                DATA
 0006:00000000 000003d8H .cspdata                DATA
 0007:00000000 00004704H .nspdata                DATA
 0008:00000000 000000a0H .rsrc$01                DATA
 0008:000000a0 00002d68H .rsrc$02                DATA

  Address         Publics by Value              Rva+Base               Lib:Object

 0000:00000000       ___safe_se_handler_count   0000000000000000     <absolute>
 0000:00000000       ___safe_se_handler_table   0000000000000000     <absolute>
 0000:00000000       __ImageBase                0000000071000000     <linker-defined>
 0001:00000180       parse_word                 0000000071001180 f   options.c.obj
 0001:0000ae70       check_param_bounds         000000007100be70 f   options.c.obj
 0001:0000aea0       get_dynamo_options_string  000000007100bea0 f   options.c.obj
 0001:000170f0       get_pcache_dynamo_options_string 00000000710180f0 f   options.c.obj
 0001:00021fb0       has_pcache_dynamo_options  0000000071022fb0 f   options.c.obj
 0001:00023c40       check_list_default_and_append 0000000071024c40 f   options.c.obj
 0001:00023ce0       options_exit               0000000071024ce0 f   options.c.obj
 0001:00023cf0       options_make_writable      0000000071024cf0 f   options.c.obj
 0001:00023d30       options_restore_readonly   0000000071024d30 f   options.c.obj
 0001:00023d60       synchronize_dynamic_options 0000000071024d60 f   options.c.obj
 0001:00023ee0       get_process_options        0000000071024ee0 f   options.c.obj
 0001:00023f90       dr_get_string_option       0000000071024f90 f   options.c.obj
 0001:000242a0       dr_get_integer_option      00000000710252a0 f   options.c.obj
 0001:00029040       options_init               000000007102a040 f   options.c.obj
 0001:000290b0       opnd_is_immed              000000007102a0b0 f i dynamo.c.obj
 0001:000290d0       opnd_is_pc                 000000007102a0d0 f i dynamo.c.obj
 0001:000290f0       opnd_is_instr              000000007102a0f0 f i dynamo.c.obj
 0001:00029110       opnd_is_near_base_disp     000000007102a110 f i dynamo.c.obj
 0001:00029130       opnd_is_far_base_disp      000000007102a130 f i dynamo.c.obj
 0001:00029150       opnd_is_near_rel_addr      000000007102a150 f i dynamo.c.obj
 0001:00029170       opnd_is_far_rel_addr       000000007102a170 f i dynamo.c.obj
 0001:00029190       opnd_create_null           000000007102a190 f i dynamo.c.obj
 0001:000291a0       opnd_create_reg            000000007102a1a0 f i dynamo.c.obj
 0001:000291b0       opnd_create_reg_partial    000000007102a1b0 f i dynamo.c.obj
 0001:000291d0       opnd_create_reg_ex         000000007102a1d0 f i dynamo.c.obj
 0001:00029210       opnd_create_pc             000000007102a210 f i dynamo.c.obj
 0001:00029220       instr_ok_to_mangle         000000007102a220 f i dynamo.c.obj
 0001:00029220       instr_is_app               000000007102a220 f i dynamo.c.obj
 0001:00029230       instr_is_meta              000000007102a230 f i dynamo.c.obj
 0001:00029240       instr_operands_valid       000000007102a240 f i dynamo.c.obj
 0001:00029250       instr_raw_bits_valid       000000007102a250 f i dynamo.c.obj
 0001:00029260       instr_has_allocated_bits   000000007102a260 f i dynamo.c.obj
 0001:00029270       instr_needs_encoding       000000007102a270 f i dynamo.c.obj
 0001:00029280       instr_ok_to_emit           000000007102a280 f i dynamo.c.obj
 0001:00029290       instr_num_srcs             000000007102a290 f i dynamo.c.obj
 0001:000292c0       instr_num_dsts             000000007102a2c0 f i dynamo.c.obj
 0001:000292f0       instr_set_note             000000007102a2f0 f i dynamo.c.obj
 0001:00029300       instr_get_note             000000007102a300 f i dynamo.c.obj
 0001:00029310       instr_get_next             000000007102a310 f i dynamo.c.obj
 0001:00029320       instr_get_next_app         000000007102a320 f i dynamo.c.obj
 0001:00029350       instr_get_prev             000000007102a350 f i dynamo.c.obj
 0001:00029360       instr_get_prev_app         000000007102a360 f i dynamo.c.obj
 0001:00029390       instr_set_next             000000007102a390 f i dynamo.c.obj
 0001:000293a0       instr_set_prev             000000007102a3a0 f i dynamo.c.obj
 0001:00029840       get_dr_stats               000000007102a840 f   dynamo.c.obj
 0001:00029850       standalone_init            000000007102a850 f   dynamo.c.obj
 0001:000298d0       dynamo_process_exit_with_thread_info 000000007102a8d0 f   dynamo.c.obj
 0001:000298e0       create_new_dynamo_context  000000007102a8e0 f   dynamo.c.obj
 0001:000299e0       initialize_dynamo_context  000000007102a9e0 f   dynamo.c.obj
 0001:00029ab0       create_callback_dcontext   000000007102aab0 f   dynamo.c.obj
 0001:00029c70       is_thread_initialized      000000007102ac70 f   dynamo.c.obj
 0001:00029c90       get_num_threads            000000007102ac90 f   dynamo.c.obj
 0001:00029ca0       is_last_app_thread         000000007102aca0 f   dynamo.c.obj
 0001:00029d80       get_list_of_threads        000000007102ad80 f   dynamo.c.obj
 0001:00029d90       thread_lookup              000000007102ad90 f   dynamo.c.obj
 0001:00029e10       get_thread_num             000000007102ae10 f   dynamo.c.obj
 0001:00029e30       add_thread                 000000007102ae30 f   dynamo.c.obj
 0001:00029f90       remove_thread              000000007102af90 f   dynamo.c.obj
 0001:0002a060       dr_app_start_helper        000000007102b060 f   dynamo.c.obj
 0001:0002a0b0       dynamo_thread_under_dynamo 000000007102b0b0 f   dynamo.c.obj
 0001:0002a0d0       dynamo_thread_not_under_dynamo 000000007102b0d0 f   dynamo.c.obj
 0001:0002a0f0       dynamorio_take_over_threads 000000007102b0f0 f   dynamo.c.obj
 0001:0002a2b0       protect_data_section       000000007102b2b0 f   dynamo.c.obj
 0001:0002a430       is_on_initstack            000000007102b430 f   dynamo.c.obj
 0001:0002a450       is_on_dstack               000000007102b450 f   dynamo.c.obj
 0001:0002a470       is_currently_on_dstack     000000007102b470 f   dynamo.c.obj
 0001:0002a4b0       pre_second_thread          000000007102b4b0 f   dynamo.c.obj
 0001:0002a5a0       dynamo_process_exit        000000007102b5a0 f   dynamo.c.obj
 0001:0002a960       is_thread_known            000000007102b960 f   dynamo.c.obj
 0001:0002a980       dynamo_thread_init         000000007102b980 f   dynamo.c.obj
 0001:0002ac40       dynamorio_app_take_over_helper 000000007102bc40 f   dynamo.c.obj
 0001:0002b120       entering_dynamorio         000000007102c120 f   dynamo.c.obj
 0001:0002b160       exiting_dynamorio          000000007102c160 f   dynamo.c.obj
 0001:0002b1a0       dynamorio_app_init         000000007102c1a0 f   dynamo.c.obj
 0001:0002b510       dynamorio_app_exit         000000007102c510 f   dynamo.c.obj
 0001:0002b7d0       dynamo_thread_exit         000000007102c7d0 f   dynamo.c.obj
 0001:0002b800       dynamo_other_thread_exit   000000007102c800 f   dynamo.c.obj
 0001:0002ba50       dynamo_thread_stack_free_and_exit 000000007102ca50 f   dynamo.c.obj
 0001:0002bab0       dr_app_setup               000000007102cab0 f   dynamo.c.obj
 0001:0002bac0       dr_app_cleanup             000000007102cac0 f   dynamo.c.obj
 0001:0002bbc0       dr_app_setup_and_start     000000007102cbc0 f   dynamo.c.obj
 0001:0002bbf0       dynamorio_app_init_and_early_takeover 000000007102cbf0 f   dynamo.c.obj
 0001:0002bc20       dynamorio_earliest_init_takeover_C 000000007102cc20 f   dynamo.c.obj
 0001:0002bc70       dynamo_shared_exit         000000007102cc70 f   dynamo.c.obj
 0001:0002c8d0       fragment_initialized       000000007102d8d0 f   fragment.c.obj
 0001:0002cde0       fragment_create            000000007102dde0 f   fragment.c.obj
 0001:0002cf50       fragment_recreate_with_linkstubs 000000007102df50 f   fragment.c.obj
 0001:0002d150       fragment_free              000000007102e150 f   fragment.c.obj
 0001:0002d370       fragment_stubs_end_pc      000000007102e370 f   fragment.c.obj
 0001:0002d3a0       fragment_body_end_pc       000000007102e3a0 f   fragment.c.obj
 0001:0002d5a0       fragment_get_fragment_delete_mutex 000000007102e5a0 f   fragment.c.obj
 0001:0002d5d0       fragment_release_fragment_delete_mutex 000000007102e5d0 f   fragment.c.obj
 0001:0002d750       fragment_lookup            000000007102e750 f   fragment.c.obj
 0001:0002d760       fragment_lookup_trace      000000007102e760 f   fragment.c.obj
 0001:0002d770       fragment_lookup_bb         000000007102e770 f   fragment.c.obj
 0001:0002d780       fragment_lookup_shared_bb  000000007102e780 f   fragment.c.obj
 0001:0002d790       fragment_lookup_same_sharing 000000007102e790 f   fragment.c.obj
 0001:0002d7b0       fragment_pclookup          000000007102e7b0 f   fragment.c.obj
 0001:0002d7c0       fragment_pclookup_with_linkstubs 000000007102e7c0 f   fragment.c.obj
 0001:0002d810       fragment_record_translation_info 000000007102e810 f   fragment.c.obj
 0001:0002da50       fragment_remove_from_ibt_tables 000000007102ea50 f   fragment.c.obj
 0001:0002dc50       fragment_remove            000000007102ec50 f   fragment.c.obj
 0001:0002dd70       fragment_replace           000000007102ed70 f   fragment.c.obj
 0001:0002e060       fragment_shift_fcache_pointers 000000007102f060 f   fragment.c.obj
 0001:0002e2e0       fragment_copy_data_fields  000000007102f2e0 f   fragment.c.obj
 0001:0002e360       fragment_delete_future     000000007102f360 f   fragment.c.obj
 0001:0002e4b0       fragment_lookup_future     000000007102f4b0 f   fragment.c.obj
 0001:0002e5c0       fragment_lookup_private_future 000000007102f5c0 f   fragment.c.obj
 0001:0002e600       fragment_overlaps          000000007102f600 f   fragment.c.obj
 0001:0002e770       get_flushtime_last_update  000000007102f770 f   fragment.c.obj
 0001:0002e780       set_flushtime_last_update  000000007102f780 f   fragment.c.obj
 0001:0002e790       set_at_syscall             000000007102f790 f   fragment.c.obj
 0001:0002e7a0       get_at_syscall             000000007102f7a0 f   fragment.c.obj
 0001:0002e920       is_self_flushing           000000007102f920 f   fragment.c.obj
 0001:0002e940       is_self_allsynch_flushing  000000007102f940 f   fragment.c.obj
 0001:0002e970       is_couldbelinking          000000007102f970 f   fragment.c.obj
 0001:0002e9a0       enter_couldbelinking       000000007102f9a0 f   fragment.c.obj
 0001:0002ea70       enter_threadexit           000000007102fa70 f   fragment.c.obj
 0001:0002eaf0       increment_global_flushtime 000000007102faf0 f   fragment.c.obj
 0001:0002ecb0       flush_fragments_synch_priv 000000007102fcb0 f   fragment.c.obj
 0001:0002ee90       flush_fragments_unlink_shared 000000007102fe90 f   fragment.c.obj
 0001:0002ef90       flush_fragments_end_synch  000000007102ff90 f   fragment.c.obj
 0001:0002f110       flush_fragments_in_region_finish 0000000071030110 f   fragment.c.obj
 0001:000301c0       hashtable_coarse_resurrect 00000000710311c0 f   fragment.c.obj
 0001:00030260       fragment_coarse_num_entries 0000000071031260 f   fragment.c.obj
 0001:000303f0       fragment_coarse_lookup_in_unit 00000000710313f0 f   fragment.c.obj
 0001:000304f0       fragment_coarse_lookup     00000000710314f0 f   fragment.c.obj
 0001:000306b0       fragment_coarse_wrapper    00000000710316b0 f   fragment.c.obj
 0001:000306e0       fragment_coarse_lookup_wrapper 00000000710316e0 f   fragment.c.obj
 0001:00030740       fragment_lookup_fine_and_coarse 0000000071031740 f   fragment.c.obj
 0001:000307c0       fragment_lookup_fine_and_coarse_sharing 00000000710317c0 f   fragment.c.obj
 0001:00030860       get_fragment_coarse_info   0000000071031860 f   fragment.c.obj
 0001:00030880       coarse_is_trace_head_in_own_unit 0000000071031880 f   fragment.c.obj
 0001:00030950       fragment_coarse_replace    0000000071031950 f   fragment.c.obj
 0001:000309f0       fragment_coarse_pclookup   00000000710319f0 f   fragment.c.obj
 0001:00030f00       fragment_coarse_htable_persist_size 0000000071031f00 f   fragment.c.obj
 0001:00030f20       fragment_coarse_htable_persist 0000000071031f20 f   fragment.c.obj
 0001:00030fa0       fragment_coarse_htable_resurrect 0000000071031fa0 f   fragment.c.obj
 0001:000316f0       fragment_reset_init        00000000710326f0 f   fragment.c.obj
 0001:00031a30       fragment_init              0000000071032a30 f   fragment.c.obj
 0001:00031b80       fragment_thread_reset_init 0000000071032b80 f   fragment.c.obj
 0001:000320d0       fragment_thread_init       00000000710330d0 f   fragment.c.obj
 0001:000324e0       fragment_prepare_for_removal 00000000710334e0 f   fragment.c.obj
 0001:00032830       fragment_remove_all_ibl_in_region 0000000071033830 f   fragment.c.obj
 0001:000328d0       is_self_couldbelinking     00000000710338d0 f   fragment.c.obj
 0001:00032d60       flush_fragments_synch_unlink_priv 0000000071033d60 f   fragment.c.obj
 0001:00032e00       flush_invalidate_ibl_shared_target 0000000071033e00 f   fragment.c.obj
 0001:00032ea0       fragment_output            0000000071033ea0 f   fragment.c.obj
 0001:00033140       fragment_coarse_htable_create 0000000071034140 f   fragment.c.obj
 0001:00033490       fragment_coarse_free_entry_pclookup_table 0000000071034490 f   fragment.c.obj
 0001:000334c0       fragment_coarse_htable_free 00000000710344c0 f   fragment.c.obj
 0001:00033910       fragment_delete            0000000071034910 f   fragment.c.obj
 0001:00033b30       fragment_remove_shared_no_flush 0000000071034b30 f   fragment.c.obj
 0001:00033c70       fragment_unlink_for_deletion 0000000071034c70 f   fragment.c.obj
 0001:00033e20       fragment_self_write        0000000071034e20 f   fragment.c.obj
 0001:00034110       flush_fragments_in_region_start 0000000071035110 f   fragment.c.obj
 0001:000342d0       flush_fragments_and_remove_region 00000000710352d0 f   fragment.c.obj
 0001:00034340       flush_fragments_from_region 0000000071035340 f   fragment.c.obj
 0001:00034370       invalidate_code_cache      0000000071035370 f   fragment.c.obj
 0001:00034ca0       fragment_reset_free        0000000071035ca0 f   fragment.c.obj
 0001:00034eb0       fragment_thread_reset_free 0000000071035eb0 f   fragment.c.obj
 0001:00034f10       fragment_thread_exit       0000000071035f10 f   fragment.c.obj
 0001:000351b0       fragment_add_ibl_target    00000000710361b0 f   fragment.c.obj
 0001:000354b0       enter_nolinking            00000000710364b0 f   fragment.c.obj
 0001:00035970       fragment_coarse_htable_merge 0000000071036970 f   fragment.c.obj
 0001:00035aa0       fragment_coarse_add        0000000071036aa0 f   fragment.c.obj
 0001:00035b10       fragment_coarse_th_unlink_and_add 0000000071036b10 f   fragment.c.obj
 0001:00035be0       fragment_coarse_th_add     0000000071036be0 f   fragment.c.obj
 0001:00035c50       fragment_coarse_create_entry_pclookup_table 0000000071036c50 f   fragment.c.obj
 0001:00035f60       fragment_coarse_entry_pclookup 0000000071036f60 f   fragment.c.obj
 0001:000363f0       fragment_coarse_unit_freeze 00000000710373f0 f   fragment.c.obj
 0001:00036730       fragment_exit              0000000071037730 f   fragment.c.obj
 0001:00036a30       fragment_add               0000000071037a30 f   fragment.c.obj
 0001:00036af0       fragment_create_and_add_future 0000000071037af0 f   fragment.c.obj
 0001:00036c50       fcache_check_option_compatibility 0000000071037c50 f   fcache.c.obj
 0001:00037460       fcache_profile_exit        0000000071038460 f   fcache.c.obj
 0001:000375c0       fcache_fragment_pclookup   00000000710385c0 f   fcache.c.obj
 0001:00037760       fcache_is_writable         0000000071038760 f   fcache.c.obj
 0001:00037780       fcache_change_fragment_protection 0000000071038780 f   fcache.c.obj
 0001:00037820       in_fcache                  0000000071038820 f   fcache.c.obj
 0001:000383f0       fcache_thread_init         00000000710393f0 f   fcache.c.obj
 0001:000384b0       fcache_thread_exit         00000000710394b0 f   fcache.c.obj
 0001:00038da0       fcache_shift_start_pc      0000000071039da0 f   fcache.c.obj
 0001:00038e60       fcache_is_flush_pending    0000000071039e60 f   fcache.c.obj
 0001:00039100       fcache_flush_pending_units 000000007103a100 f   fcache.c.obj
 0001:00039480       fcache_free_pending_units  000000007103a480 f   fcache.c.obj
 0001:000396a0       schedule_reset             000000007103a6a0 f   fcache.c.obj
 0001:000396f0       fcache_low_on_memory       000000007103a6f0 f   fcache.c.obj
 0001:00039870       get_fcache_coarse_info     000000007103a870 f   fcache.c.obj
 0001:000398b0       fcache_coarse_cache_delete 000000007103a8b0 f   fcache.c.obj
 0001:000398e0       coarse_frozen_cache_size   000000007103a8e0 f   fcache.c.obj
 0001:00039900       fcache_coarse_set_info     000000007103a900 f   fcache.c.obj
 0001:00039b00       fcache_exit                000000007103ab00 f   fcache.c.obj
 0001:0003b410       fcache_return_extra_space  000000007103c410 f   fcache.c.obj
 0001:0003bf90       fcache_add_fragment        000000007103cf90 f   fcache.c.obj
 0001:0003c0f0       fcache_remove_fragment     000000007103d0f0 f   fcache.c.obj
 0001:0003c270       fcache_coarse_init_frozen  000000007103d270 f   fcache.c.obj
 0001:0003c300       fcache_init                000000007103d300 f   fcache.c.obj
 0001:0003c3e0       fcache_reset_all_caches_proactively 000000007103d3e0 f   fcache.c.obj
 0001:0003c670       empty_fragment_mark_x86    000000007103d670 f   link.c.obj
 0001:0003c680       link_reset_init            000000007103d680 f   link.c.obj
 0001:0003c6d0       link_reset_free            000000007103d6d0 f   link.c.obj
 0001:0003c710       link_thread_init           000000007103d710 f   link.c.obj
 0001:0003c770       link_thread_exit           000000007103d770 f   link.c.obj
 0001:0003c790       linkstub_size              000000007103d790 f   link.c.obj
 0001:0003c7f0       linkstub_propagatable_flags 000000007103d7f0 f   link.c.obj
 0001:0003c800       linkstub_frag_offs_at_end  000000007103d800 f   link.c.obj
 0001:0003c840       linkstubs_heap_size        000000007103d840 f   link.c.obj
 0001:0003c880       linkstub_fragment          000000007103d880 f   link.c.obj
 0001:0003ca20       set_last_exit              000000007103da20 f   link.c.obj
 0001:0003ca50       last_exit_deleted          000000007103da50 f   link.c.obj
 0001:0003cc90       get_last_linkstub_ordinal  000000007103dc90 f   link.c.obj
 0001:0003cca0       get_deleted_linkstub       000000007103dca0 f   link.c.obj
 0001:0003ccb0       get_starting_linkstub      000000007103dcb0 f   link.c.obj
 0001:0003ccc0       get_reset_linkstub         000000007103dcc0 f   link.c.obj
 0001:0003ccd0       get_syscall_linkstub       000000007103dcd0 f   link.c.obj
 0001:0003cce0       get_selfmod_linkstub       000000007103dce0 f   link.c.obj
 0001:0003ccf0       get_ibl_deleted_linkstub   000000007103dcf0 f   link.c.obj
 0001:0003cd00       get_asynch_linkstub        000000007103dd00 f   link.c.obj
 0001:0003cd10       get_native_exec_linkstub   000000007103dd10 f   link.c.obj
 0001:0003cd20       get_native_exec_syscall_linkstub 000000007103dd20 f   link.c.obj
 0001:0003cd30       get_shared_syscalls_unlinked_linkstub 000000007103dd30 f   link.c.obj
 0001:0003cd40       get_shared_syscalls_trace_linkstub 000000007103dd40 f   link.c.obj
 0001:0003cd50       get_shared_syscalls_bb_linkstub 000000007103dd50 f   link.c.obj
 0001:0003cd60       get_client_linkstub        000000007103dd60 f   link.c.obj
 0001:0003cd70       is_ibl_sourceless_linkstub 000000007103dd70 f   link.c.obj
 0001:0003cde0       get_ibl_sourceless_linkstub 000000007103dde0 f   link.c.obj
 0001:0003ce50       get_special_ibl_linkstub   000000007103de50 f   link.c.obj
 0001:0003ce90       get_coarse_exit_linkstub   000000007103de90 f   link.c.obj
 0001:0003cea0       get_coarse_trace_head_exit_linkstub 000000007103dea0 f   link.c.obj
 0001:0003ceb0       local_exit_stub_size       000000007103deb0 f   link.c.obj
 0001:0003cf70       separate_stub_create       000000007103df70 f   link.c.obj
 0001:0003d1b0       linkstub_shares_next_stub  000000007103e1b0 f   link.c.obj
 0001:0003d3a0       linkstub_free_exitstubs    000000007103e3a0 f   link.c.obj
 0001:0003d570       linkstubs_shift            000000007103e570 f   link.c.obj
 0001:0003d620       is_linkable                000000007103e620 f   link.c.obj
 0001:0003dd40       link_fragment_incoming     000000007103ed40 f   link.c.obj
 0001:0003def0       unlink_fragment_incoming   000000007103eef0 f   link.c.obj
 0001:0003e080       unlink_fragment_outgoing   000000007103f080 f   link.c.obj
 0001:0003e1b0       coarse_stub_alignment      000000007103f1b0 f   link.c.obj
 0001:0003e1d0       coarse_stubs_create        000000007103f1d0 f   link.c.obj
 0001:0003e3b0       coarse_stubs_delete        000000007103f3b0 f   link.c.obj
 0001:0003e5f0       fcache_return_coarse_prefix 000000007103f5f0 f   link.c.obj
 0001:0003e620       trace_head_return_coarse_prefix 000000007103f620 f   link.c.obj
 0001:0003e650       get_coarse_ibl_prefix      000000007103f650 f   link.c.obj
 0001:0003e6a0       in_coarse_stubs            000000007103f6a0 f   link.c.obj
 0001:0003e6c0       get_stub_coarse_info       000000007103f6c0 f   link.c.obj
 0001:0003e6d0       coarse_frozen_stub_size    000000007103f6d0 f   link.c.obj
 0001:0003e8f0       coarse_unit_shift_links    000000007103f8f0 f   link.c.obj
 0001:0003eb80       coarse_stubs_set_info      000000007103fb80 f   link.c.obj
 0001:0003eb90       coarse_stubs_set_end_pc    000000007103fb90 f   link.c.obj
 0001:0003ebc0       link_init                  000000007103fbc0 f   link.c.obj
 0001:0003ec70       link_exit                  000000007103fc70 f   link.c.obj
 0001:0003ecc0       linkstubs_init             000000007103fcc0 f   link.c.obj
 0001:0003ed90       set_coarse_ibl_exit        000000007103fd90 f   link.c.obj
 0001:0003ee60       should_separate_stub       000000007103fe60 f   link.c.obj
 0001:0003f110       link_fragment_outgoing     0000000071040110 f   link.c.obj
 0001:0003fa60       coarse_remove_outgoing     0000000071040a60 f   link.c.obj
 0001:0003fbb0       coarse_mark_trace_head     0000000071040bb0 f   link.c.obj
 0001:0003fc20       coarse_unit_unlink_outgoing 0000000071040c20 f   link.c.obj
 0001:0003fd70       coarse_lazy_link           0000000071040d70 f   link.c.obj
 0001:0003fff0       in_coarse_stub_prefixes    0000000071040ff0 f   link.c.obj
 0001:00040090       coarse_deref_ibl_prefix    0000000071041090 f   link.c.obj
 0001:000400d0       coarse_update_outgoing     00000000710410d0 f   link.c.obj
 0001:000402b0       link_new_fragment          00000000710412b0 f   link.c.obj
 0001:00040520       shift_links_to_new_fragment 0000000071041520 f   link.c.obj
 0001:00041100       coarse_unit_unlink         0000000071042100 f   link.c.obj
 0001:00041320       incoming_remove_fragment   0000000071042320 f   link.c.obj
 0001:000415d0       is_stopping_point          00000000710425d0 f   dispatch.c.obj
 0001:00042510       handle_system_call         0000000071043510 f   dispatch.c.obj
 0001:00042b50       issue_last_system_call_from_app 0000000071043b50 f   dispatch.c.obj
 0001:00043360       dispatch                   0000000071044360 f   dispatch.c.obj
 0001:000437b0       transfer_to_dispatch       00000000710447b0 f   dispatch.c.obj
 0001:00043850       final_exit_shares_prev_stub 0000000071044850 f   emit.c.obj
 0001:000438f0       set_linkstub_fields        00000000710448f0 f   emit.c.obj
 0001:000446f0       emit_invisible_fragment    00000000710456f0 f   emit.c.obj
 0001:00044720       emit_fragment              0000000071045720 f   emit.c.obj
 0001:00044750       emit_fragment_ex           0000000071045750 f   emit.c.obj
 0001:00044790       emit_fragment_as_replacement 0000000071045790 f   emit.c.obj
 0001:000447c0       spinmutex_trylock          00000000710457c0 f   utils.c.obj
 0001:000447e0       spinmutex_lock             00000000710457e0 f   utils.c.obj
 0001:00044810       spinmutex_lock_no_yield    0000000071045810 f   utils.c.obj
 0001:00044850       spinmutex_unlock           0000000071045850 f   utils.c.obj
 0001:00044860       mutex_trylock              0000000071045860 f   utils.c.obj
 0001:00044890       mutex_unlock               0000000071045890 f   utils.c.obj
 0001:000448c0       mutex_delete               00000000710458c0 f   utils.c.obj
 0001:000448c0       spinmutex_delete           00000000710458c0 f   utils.c.obj
 0001:000448f0       try_recursive_lock         00000000710458f0 f   utils.c.obj
 0001:00044960       release_recursive_lock     0000000071045960 f   utils.c.obj
 0001:000449a0       self_owns_recursive_lock   00000000710459a0 f   utils.c.obj
 0001:000449c0       read_lock                  00000000710459c0 f   utils.c.obj
 0001:00044a70       write_trylock              0000000071045a70 f   utils.c.obj
 0001:00044b00       read_unlock                0000000071045b00 f   utils.c.obj
 0001:00044b50       write_unlock               0000000071045b50 f   utils.c.obj
 0001:00044bd0       self_owns_write_lock       0000000071045bd0 f   utils.c.obj
 0001:00044bf0       hash_value                 0000000071045bf0 f   utils.c.obj
 0001:00044cd0       hashtable_num_bits         0000000071045cd0 f   utils.c.obj
 0001:00044e30       bitmap_initialize_free     0000000071045e30 f   utils.c.obj
 0001:00044e50       bitmap_allocate_blocks     0000000071045e50 f   utils.c.obj
 0001:00044ec0       bitmap_free_blocks         0000000071045ec0 f   utils.c.obj
 0001:00044f00       do_file_write              0000000071045f00 f   utils.c.obj
 0001:00044fb0       divide_uint64_print        0000000071045fb0 f   utils.c.obj
 0001:00045040       double_print               0000000071046040 f   utils.c.obj
 0001:000450f0       print_file                 00000000710460f0 f   utils.c.obj
 0001:000451a0       print_to_buffer            00000000710461a0 f   utils.c.obj
 0001:000451e0       notify                     00000000710461e0 f   utils.c.obj
 0001:000452d0       set_exception_strings      00000000710462d0 f   utils.c.obj
 0001:000453e0       set_display_version        00000000710463e0 f   utils.c.obj
 0001:00045460       report_app_problem         0000000071046460 f   utils.c.obj
 0001:000455f0       is_readable_without_exception_try 00000000710465f0 f   utils.c.obj
 0001:000456d0       is_string_readable_without_exception 00000000710466d0 f   utils.c.obj
 0001:00045810       double_strchr              0000000071046810 f   utils.c.obj
 0001:00045840       our_wcsnlen                0000000071046840 f   utils.c.obj
 0001:00045860       str_case_prefix            0000000071046860 f   utils.c.obj
 0001:000459f0       check_filter               00000000710469f0 f   utils.c.obj
 0001:00045ac0       check_filter_with_wildcards 0000000071046ac0 f   utils.c.obj
 0001:00045ad0       close_log_file             0000000071046ad0 f   utils.c.obj
 0001:00045ad0       dr_close_file              0000000071046ad0 f   instrument.c.obj
 0001:00045ae0       get_short_name             0000000071046ae0 f   utils.c.obj
 0001:00045b10       dump_buffer_as_bytes       0000000071046b10 f   utils.c.obj
 0001:00045f60       print_xml_cdata            0000000071046f60 f   utils.c.obj
 0001:00046030       print_version_and_app_info 0000000071047030 f   utils.c.obj
 0001:000460d0       utils_exit                 00000000710470d0 f   utils.c.obj
 0001:00046130       set_random_seed            0000000071047130 f   utils.c.obj
 0001:00046140       get_random_seed            0000000071047140 f   utils.c.obj
 0001:00046150       convert_millis_to_date     0000000071047150 f   utils.c.obj
 0001:00046320       convert_date_to_millis     0000000071047320 f   utils.c.obj
 0001:00046440       crc32                      0000000071047440 f   utils.c.obj
 0001:00046490       MD5Init                    0000000071047490 f   utils.c.obj
 0001:00046c90       check_low_disk_threshold   0000000071047c90 f   utils.c.obj
 0001:00046ce0       md5_digests_equal          0000000071047ce0 f   utils.c.obj
 0001:00046d10       region_intersection        0000000071047d10 f   utils.c.obj
 0001:00046d50       dr_strdup                  0000000071047d50 f   utils.c.obj
 0001:00046db0       dr_wstrdup                 0000000071047db0 f   utils.c.obj
 0001:00046e80       dr_strfree                 0000000071047e80 f   utils.c.obj
 0001:00046ec0       utils_init                 0000000071047ec0 f   utils.c.obj
 0001:00046fb0       mutex_lock                 0000000071047fb0 f   utils.c.obj
 0001:00047040       acquire_recursive_lock     0000000071048040 f   utils.c.obj
 0001:00047080       write_lock                 0000000071048080 f   utils.c.obj
 0001:000470f0       report_dynamorio_problem   00000000710480f0 f   utils.c.obj
 0001:000475d0       create_log_dir             00000000710485d0 f   utils.c.obj
 0001:000479d0       get_log_dir                00000000710489d0 f   utils.c.obj
 0001:00047b70       open_log_file              0000000071048b70 f   utils.c.obj
 0001:00047cb0       get_random_offset          0000000071048cb0 f   utils.c.obj
 0001:00047dd0       MD5Update                  0000000071048dd0 f   utils.c.obj
 0001:00047f50       MD5Final                   0000000071048f50 f   utils.c.obj
 0001:00048000       module_digests_equal       0000000071049000 f   utils.c.obj
 0001:00048070       external_error             0000000071049070 f   utils.c.obj
 0001:00048190       get_unique_logfile         0000000071049190 f   utils.c.obj
 0001:00048340       get_config_val             0000000071049340 f   config.c.obj
 0001:00048bb0       config_reread              0000000071049bb0 f   config.c.obj
 0001:00048e10       get_config_val_other_app   0000000071049e10 f   config.c.obj
 0001:00048e90       config_init                0000000071049e90 f   config.c.obj
 0001:00048ef0       config_heap_init           0000000071049ef0 f   config.c.obj
 0001:00048f20       config_heap_exit           0000000071049f20 f   config.c.obj
 0001:00048f70       get_parameter_ex           0000000071049f70 f   config.c.obj
 0001:00048ff0       get_parameter              0000000071049ff0 f   config.c.obj
 0001:00049ae0       kstat_init                 000000007104aae0 f   stats.c.obj
 0001:00049f70       kstat_thread_init          000000007104af70 f   stats.c.obj
 0001:0004c200       kstat_exit                 000000007104d200 f   stats.c.obj
 0001:0004c270       dump_thread_kstats         000000007104d270 f   stats.c.obj
 0001:0004c2e0       kstat_thread_exit          000000007104d2e0 f   stats.c.obj
 0001:0004c4b0       request_region_be_heap_reachable 000000007104d4b0 f   heap.c.obj
 0001:0004c660       vmcode_get_reachable_region 000000007104d660 f   heap.c.obj
 0001:0004c6a0       print_vmm_heap_data        000000007104d6a0 f   heap.c.obj
 0001:0004c700       is_vmm_reserved_address    000000007104d700 f   heap.c.obj
 0001:0004c730       vmcode_get_start           000000007104d730 f   heap.c.obj
 0001:0004c740       vmcode_get_end             000000007104d740 f   heap.c.obj
 0001:0004c750       vmcode_unreachable_pc      000000007104d750 f   heap.c.obj
 0001:0004c770       rel32_reachable_from_vmcode 000000007104d770 f   heap.c.obj
 0001:0004ce40       vmm_heap_init_constraints  000000007104de40 f   heap.c.obj
 0001:0004ceb0       vmm_heap_exit              000000007104deb0 f   heap.c.obj
 0001:0004cf20       heap_check_option_compatibility 000000007104df20 f   heap.c.obj
 0001:0004d0f0       lockwise_safe_to_allocate_memory 000000007104e0f0 f   heap.c.obj
 0001:0004d110       heap_mmap_retract_commitment 000000007104e110 f   heap.c.obj
 0001:0004d130       heap_munmap_ex             000000007104e130 f   heap.c.obj
 0001:0004d240       heap_munmap                000000007104e240 f   heap.c.obj
 0001:0004d340       stack_free                 000000007104e340 f   heap.c.obj
 0001:0004d450       map_file                   000000007104e450 f   heap.c.obj
 0001:0004d510       unmap_file                 000000007104e510 f   heap.c.obj
 0001:0004d5b0       heap_vmareas_synch_units   000000007104e5b0 f   heap.c.obj
 0001:0004d880       local_heap_protected       000000007104e880 f   heap.c.obj
 0001:0004d8b0       protect_local_heap         000000007104e8b0 f   heap.c.obj
 0001:0004d960       protect_global_heap        000000007104e960 f   heap.c.obj
 0001:0004da40       special_heap_set_vector_data 000000007104ea40 f   heap.c.obj
 0001:0004da90       special_heap_set_unit_end  000000007104ea90 f   heap.c.obj
 0001:0004dac0       special_heap_profile_exit  000000007104eac0 f   heap.c.obj
 0001:0004dbb0       special_heap_cfree         000000007104ebb0 f   heap.c.obj
 0001:0004dc30       special_heap_free          000000007104ec30 f   heap.c.obj
 0001:0004dc80       special_heap_iterator_start 000000007104ec80 f   heap.c.obj
 0001:0004dcc0       special_heap_iterator_hasnext 000000007104ecc0 f   heap.c.obj
 0001:0004dcd0       special_heap_iterator_next 000000007104ecd0 f   heap.c.obj
 0001:0004dd00       special_heap_iterator_stop 000000007104ed00 f   heap.c.obj
 0001:0004dd10       trim_landing_pad           000000007104ed10 f   heap.c.obj
 0001:0004ddb0       landing_pads_to_executable_areas 000000007104edb0 f   heap.c.obj
 0001:0004e040       vmm_heap_init              000000007104f040 f   heap.c.obj
 0001:0004e8a0       heap_mmap_ex               000000007104f8a0 f   heap.c.obj
 0001:0004e8c0       heap_mmap_reserve          000000007104f8c0 f   heap.c.obj
 0001:0004e8f0       heap_mmap_extend_commitment 000000007104f8f0 f   heap.c.obj
 0001:0004e960       heap_mmap                  000000007104f960 f   heap.c.obj
 0001:0004e990       stack_alloc                000000007104f990 f   heap.c.obj
 0001:0004ef50       heap_thread_reset_init     000000007104ff50 f   heap.c.obj
 0001:0004efc0       heap_thread_reset_free     000000007104ffc0 f   heap.c.obj
 0001:0004f510       heap_reset_init            0000000071050510 f   heap.c.obj
 0001:0004f580       heap_reset_free            0000000071050580 f   heap.c.obj
 0001:0004f750       global_heap_alloc          0000000071050750 f   heap.c.obj
 0001:0004f770       global_heap_free           0000000071050770 f   heap.c.obj
 0001:0004f790       global_heap_realloc        0000000071050790 f   heap.c.obj
 0001:0004f830       heap_thread_init           0000000071050830 f   heap.c.obj
 0001:0004f940       heap_thread_exit           0000000071050940 f   heap.c.obj
 0001:0004f9d0       heap_alloc                 00000000710509d0 f   heap.c.obj
 0001:0004fa00       heap_free                  0000000071050a00 f   heap.c.obj
 0001:0004fa30       global_unprotected_heap_alloc 0000000071050a30 f   heap.c.obj
 0001:0004fa50       global_unprotected_heap_free 0000000071050a50 f   heap.c.obj
 0001:0004fa70       nonpersistent_heap_alloc   0000000071050a70 f   heap.c.obj
 0001:0004faa0       nonpersistent_heap_free    0000000071050aa0 f   heap.c.obj
 0001:0004fde0       special_heap_init          0000000071050de0 f   heap.c.obj
 0001:0004fe10       special_heap_pclookup_init 0000000071050e10 f   heap.c.obj
 0001:0004fe60       special_heap_exit          0000000071050e60 f   heap.c.obj
 0001:00050100       special_heap_calloc        0000000071051100 f   heap.c.obj
 0001:000502b0       special_heap_alloc         00000000710512b0 f   heap.c.obj
 0001:000503e0       alloc_landing_pad          00000000710513e0 f   heap.c.obj
 0001:00050940       heap_init                  0000000071051940 f   heap.c.obj
 0001:00050b60       heap_exit                  0000000071051b60 f   heap.c.obj
 0001:00051210       mangle_trace_at_end        0000000071052210 f   monitor.c.obj
 0001:00051240       monitor_exit               0000000071052240 f   monitor.c.obj
 0001:00051310       thcounter_range_remove     0000000071052310 f   monitor.c.obj
 0001:00051330       is_building_trace          0000000071052330 f   monitor.c.obj
 0001:00051340       cur_trace_vmlist           0000000071052340 f   monitor.c.obj
 0001:00051490       monitor_delete_would_abort_trace 0000000071052490 f   monitor.c.obj
 0001:000515b0       mark_trace_head            00000000710525b0 f   monitor.c.obj
 0001:00051890       should_be_trace_head       0000000071052890 f   monitor.c.obj
 0001:00051970       monitor_is_linkable        0000000071052970 f   monitor.c.obj
 0001:00051f80       monitor_cache_exit         0000000071052f80 f   monitor.c.obj
 0001:00052030       trace_abort                0000000071053030 f   monitor.c.obj
 0001:000520e0       trace_abort_and_delete     00000000710530e0 f   monitor.c.obj
 0001:000520e0       monitor_thread_reset_free  00000000710530e0 f   monitor.c.obj
 0001:00052100       monitor_thread_init        0000000071053100 f   monitor.c.obj
 0001:00052180       monitor_thread_exit        0000000071053180 f   monitor.c.obj
 0001:00052190       monitor_remove_fragment    0000000071053190 f   monitor.c.obj
 0001:000528e0       monitor_cache_enter        00000000710538e0 f   monitor.c.obj
 0001:00053560       revert_memory_regions      0000000071054560 f   vmareas.c.obj
 0001:000538c0       vmvector_print             00000000710548c0 f   vmareas.c.obj
 0001:00053940       vmvector_overlap           0000000071054940 f   vmareas.c.obj
 0001:000539f0       vmvector_lookup_data       00000000710549f0 f   vmareas.c.obj
 0001:00053b00       vmvector_lookup_prev_next  0000000071054b00 f   vmareas.c.obj
 0001:00053c40       vmvector_modify_data       0000000071054c40 f   vmareas.c.obj
 0001:00053d30       vmvector_create_vector     0000000071054d30 f   vmareas.c.obj
 0001:00053d70       vmvector_reset_vector      0000000071054d70 f   vmareas.c.obj
 0001:00053da0       vmvector_delete_vector     0000000071054da0 f   vmareas.c.obj
 0001:00053e40       vmvector_iterator_start    0000000071054e40 f   vmareas.c.obj
 0001:00053eb0       vmvector_iterator_hasnext  0000000071054eb0 f   vmareas.c.obj
 0001:00053ec0       vmvector_iterator_startover 0000000071054ec0 f   vmareas.c.obj
 0001:00053ed0       vmvector_iterator_peek     0000000071054ed0 f   vmareas.c.obj
 0001:00053f30       vmvector_iterator_next     0000000071054f30 f   vmareas.c.obj
 0001:00053fa0       vmvector_iterator_stop     0000000071054fa0 f   vmareas.c.obj
 0001:00053fe0       print_executable_areas     0000000071054fe0 f   vmareas.c.obj
 0001:00054000       get_executable_area_vm_flags 0000000071055000 f   vmareas.c.obj
 0001:000540c0       get_executable_area_flags  00000000710550c0 f   vmareas.c.obj
 0001:00054180       mark_executable_area_coarse_frozen 0000000071055180 f   vmareas.c.obj
 0001:00054260       is_executable_area_writable 0000000071055260 f   vmareas.c.obj
 0001:00054370       executable_vm_area_coarse_overlap 0000000071055370 f   vmareas.c.obj
 0001:00054490       executable_vm_area_executed_from 0000000071055490 f   vmareas.c.obj
 0001:000545b0       executable_area_overlap_bounds 00000000710555b0 f   vmareas.c.obj
 0001:00054850       is_executable_area_on_all_selfmod_pages 0000000071055850 f   vmareas.c.obj
 0001:00054980       mark_dynamo_vm_areas_stale 0000000071055980 f   vmareas.c.obj
 0001:00054990       dynamo_vm_areas_lock       0000000071055990 f   vmareas.c.obj
 0001:000549e0       dynamo_vm_areas_unlock     00000000710559e0 f   vmareas.c.obj
 0001:00054a20       self_owns_dynamo_vm_area_lock 0000000071055a20 f   vmareas.c.obj
 0001:00054a50       is_dynamo_area_buffer      0000000071055a50 f   vmareas.c.obj
 0001:00054a60       is_pretend_writable_address 0000000071055a60 f   vmareas.c.obj
 0001:00054b00       executable_vm_area_overlap 0000000071055b00 f   vmareas.c.obj
 0001:00054b70       executable_areas_lock      0000000071055b70 f   vmareas.c.obj
 0001:00054b80       executable_areas_unlock    0000000071055b80 f   vmareas.c.obj
 0001:00054c40       is_address_on_stack        0000000071055c40 f   vmareas.c.obj
 0001:00054ce0       is_driver_address          0000000071055ce0 f   vmareas.c.obj
 0001:00054e50       app_memory_deallocation    0000000071055e50 f   vmareas.c.obj
 0001:00054ee0       tamper_resistant_region_add 0000000071055ee0 f   vmareas.c.obj
 0001:00054ef0       is_jit_managed_area        0000000071055ef0 f   vmareas.c.obj
 0001:00055050       set_thread_decode_page_start 0000000071056050 f   vmareas.c.obj
 0001:00055080       check_in_last_thread_vm_area 0000000071056080 f   vmareas.c.obj
 0001:00055210       acquire_vm_areas_lock      0000000071056210 f   vmareas.c.obj
 0001:00055250       acquire_vm_areas_lock_if_not_already 0000000071056250 f   vmareas.c.obj
 0001:000552c0       release_vm_areas_lock      00000000710562c0 f   vmareas.c.obj
 0001:00055300       vm_list_overlaps           0000000071056300 f   vmareas.c.obj
 0001:00055800       vm_area_remove_fragment    0000000071056800 f   vmareas.c.obj
 0001:00055970       remove_from_lazy_deletion_list 0000000071056970 f   vmareas.c.obj
 0001:00055a10       add_to_lazy_deletion_list  0000000071056a10 f   vmareas.c.obj
 0001:00055bb0       unlink_fragments_for_deletion 0000000071056bb0 f   vmareas.c.obj
 0001:00055ce0       vm_area_check_shared_pending 0000000071056ce0 f   vmareas.c.obj
 0001:00055fc0       vm_area_coarse_units_reset_free 0000000071056fc0 f   vmareas.c.obj
 0001:00056330       vm_area_coarse_units_freeze 0000000071057330 f   vmareas.c.obj
 0001:000563f0       thread_vm_area_overlap     00000000710573f0 f   vmareas.c.obj
 0001:00056480       mark_unload_start          0000000071057480 f   vmareas.c.obj
 0001:000564d0       mark_unload_end            00000000710574d0 f   vmareas.c.obj
 0001:00056510       is_in_last_unloaded_region 0000000071057510 f   vmareas.c.obj
 0001:00056580       is_unreadable_or_currently_unloaded_region 0000000071057580 f   vmareas.c.obj
 0001:000565d0       print_last_deallocated     00000000710575d0 f   vmareas.c.obj
 0001:00057030       vm_areas_reset_init        0000000071058030 f   vmareas.c.obj
 0001:000570b0       dynamo_vm_areas_init       00000000710580b0 f   vmareas.c.obj
 0001:00057130       vm_areas_init              0000000071058130 f   vmareas.c.obj
 0001:00057550       vm_areas_reset_free        0000000071058550 f   vmareas.c.obj
 0001:000575b0       vm_areas_exit              00000000710585b0 f   vmareas.c.obj
 0001:00057780       vm_areas_thread_reset_init 0000000071058780 f   vmareas.c.obj
 0001:00057800       vm_areas_thread_init       0000000071058800 f   vmareas.c.obj
 0001:00057890       vm_areas_thread_exit       0000000071058890 f   vmareas.c.obj
 0001:00057890       vm_areas_thread_reset_free 0000000071058890 f   vmareas.c.obj
 0001:000578d0       vmvector_add               00000000710588d0 f   vmareas.c.obj
 0001:00057970       vmvector_add_replace       0000000071058970 f   vmareas.c.obj
 0001:00057a90       vmvector_remove            0000000071058a90 f   vmareas.c.obj
 0001:00057b20       vmvector_remove_containing_area 0000000071058b20 f   vmareas.c.obj
 0001:00057c30       vmvector_lookup            0000000071058c30 f   vmareas.c.obj
 0001:00058520       add_executable_region      0000000071059520 f   vmareas.c.obj
 0001:000585b0       remove_executable_region   00000000710595b0 f   vmareas.c.obj
 0001:000585c0       vm_area_delay_load_coarse_units 00000000710595c0 f   vmareas.c.obj
 0001:00058740       free_nonexec_coarse_and_unlock 0000000071059740 f   vmareas.c.obj
 0001:00058a20       get_executable_area_coarse_info 0000000071059a20 f   vmareas.c.obj
 0001:00058a30       is_pretend_or_executable_writable 0000000071059a30 f   vmareas.c.obj
 0001:00058b90       add_dynamo_vm_area         0000000071059b90 f   vmareas.c.obj
 0001:00058c50       remove_dynamo_vm_area      0000000071059c50 f   vmareas.c.obj
 0001:00058cc0       add_dynamo_heap_vm_area    0000000071059cc0 f   vmareas.c.obj
 0001:00058d10       remove_dynamo_heap_areas   0000000071059d10 f   vmareas.c.obj
 0001:00059170       is_dynamo_address          000000007105a170 f   vmareas.c.obj
 0001:00059210       dynamo_vm_area_overlap     000000007105a210 f   vmareas.c.obj
 0001:00059270       app_memory_allocation      000000007105a270 f   vmareas.c.obj
 0001:000593e0       set_region_jit_managed     000000007105a3e0 f   vmareas.c.obj
 0001:00059500       app_memory_protection_change 000000007105a500 f   vmareas.c.obj
 0001:00059a00       vm_area_add_to_list        000000007105aa00 f   vmareas.c.obj
 0001:00059fc0       vm_area_destroy_list       000000007105afc0 f   vmareas.c.obj
 0001:00059fe0       vm_area_unlink_fragments   000000007105afe0 f   vmareas.c.obj
 0001:0005a280       vm_area_flush_fragments    000000007105b280 f   vmareas.c.obj
 0001:0005a5e0       vm_area_allsynch_flush_fragments 000000007105b5e0 f   vmareas.c.obj
 0001:0005a870       handle_modified_code       000000007105b870 f   vmareas.c.obj
 0001:0005ae50       get_selfmod_exec_counter   000000007105be50 f   vmareas.c.obj
 0001:0005af90       vm_area_selfmod_check_clear_exec_count 000000007105bf90 f   vmareas.c.obj
 0001:0005b1f0       was_executable_area_writable 000000007105c1f0 f   vmareas.c.obj
 0001:0005b350       app_memory_pre_alloc       000000007105c350 f   vmareas.c.obj
 0001:0005b470       check_thread_vm_area_abort 000000007105c470 f   vmareas.c.obj
 0001:0005b530       check_thread_vm_area       000000007105c530 f   vmareas.c.obj
 0001:0005c1a0       vm_area_add_fragment       000000007105d1a0 f   vmareas.c.obj
 0001:0005c4c0       hashtable_bits_given_entries 000000007105d4c0 f   hashtable.c.obj
 0001:0005c820       generic_hash_destroy       000000007105d820 f   hashtable.c.obj
 0001:0005c8d0       generic_hash_lookup        000000007105d8d0 f   hashtable.c.obj
 0001:0005c8f0       generic_hash_remove        000000007105d8f0 f   hashtable.c.obj
 0001:0005cc20       strhash_hash_destroy       000000007105dc20 f   hashtable.c.obj
 0001:0005ccd0       strhash_hash_lookup        000000007105dcd0 f   hashtable.c.obj
 0001:0005ccf0       strhash_hash_remove        000000007105dcf0 f   hashtable.c.obj
 0001:0005ced0       hashtable_generic_clear    000000007105ded0 f   hashtable.c.obj
 0001:0005d070       generic_hash_create        000000007105e070 f   hashtable.c.obj
 0001:0005d140       generic_hash_clear         000000007105e140 f   hashtable.c.obj
 0001:0005d150       generic_hash_range_remove  000000007105e150 f   hashtable.c.obj
 0001:0005d310       strhash_hash_create        000000007105e310 f   hashtable.c.obj
 0001:0005d9a0       generic_hash_add           000000007105e9a0 f   hashtable.c.obj
 0001:0005dad0       strhash_hash_add           000000007105ead0 f   hashtable.c.obj
 0001:0005db30       os_get_module_info_lock    000000007105eb30 f   module_list.c.obj
 0001:0005db50       os_get_module_info_unlock  000000007105eb50 f   module_list.c.obj
 0001:0005db70       os_get_module_info_write_lock 000000007105eb70 f   module_list.c.obj
 0001:0005db90       os_get_module_info_write_unlock 000000007105eb90 f   module_list.c.obj
 0001:0005dc40       modules_init               000000007105ec40 f   module_list.c.obj
 0001:0005dcb0       is_module_list_initialized 000000007105ecb0 f   module_list.c.obj
 0001:0005dcc0       modules_reset_list         000000007105ecc0 f   module_list.c.obj
 0001:0005dd90       modules_exit               000000007105ed90 f   module_list.c.obj
 0001:0005ddd0       module_list_add_mapping    000000007105edd0 f   module_list.c.obj
 0001:0005dde0       module_list_remove_mapping 000000007105ede0 f   module_list.c.obj
 0001:0005ddf0       module_list_add            000000007105edf0 f   module_list.c.obj
 0001:0005de90       module_list_remove         000000007105ee90 f   module_list.c.obj
 0001:0005dfa0       module_pc_lookup           000000007105efa0 f   module_list.c.obj
 0001:0005dfb0       os_module_get_view_size    000000007105efb0 f   module_list.c.obj
 0001:0005e020       module_iterator_start      000000007105f020 f   module_list.c.obj
 0001:0005e070       module_iterator_hasnext    000000007105f070 f   module_list.c.obj
 0001:0005e0d0       module_iterator_next       000000007105f0d0 f   module_list.c.obj
 0001:0005e0f0       module_iterator_stop       000000007105f0f0 f   module_list.c.obj
 0001:0005e200       module_calculate_digest    000000007105f200 f   module_list.c.obj
 0001:0005e560       os_module_set_flag         000000007105f560 f   module_list.c.obj
 0001:0005e570       os_module_clear_flag       000000007105f570 f   module_list.c.obj
 0001:0005e580       os_module_get_flag         000000007105f580 f   module_list.c.obj
 0001:0005e750       os_get_module_name_strdup  000000007105f750 f   module_list.c.obj
 0001:0005e7e0       os_get_module_name_buf_strdup 000000007105f7e0 f   module_list.c.obj
 0001:0005ea00       moduledb_process_image     000000007105fa00 f   moduledb.c.obj
 0001:0005eaa0       moduledb_init              000000007105faa0 f   moduledb.c.obj
 0001:0005ead0       moduledb_exit              000000007105fad0 f   moduledb.c.obj
 0001:0005eb40       print_moduledb_exempt_lists 000000007105fb40 f   moduledb.c.obj
 0001:0005ec20       coarse_unit_mark_in_use    000000007105fc20 f   perscache.c.obj
 0001:0005ec70       coarse_unit_free           000000007105fc70 f   perscache.c.obj
 0001:0005ecd0       coarse_unit_init           000000007105fcd0 f   perscache.c.obj
 0001:0005eea0       coarse_unit_reset_free     000000007105fea0 f   perscache.c.obj
 0001:0005eec0       coarse_units_freeze_all    000000007105fec0 f   perscache.c.obj
 0001:0005f540       transfer_coarse_stub       0000000071060540 f   perscache.c.obj
 0001:0005f670       transfer_coarse_stub_fix_trace_head 0000000071060670 f   perscache.c.obj
 0001:0005f7b0       transfer_coarse_fragment   00000000710607b0 f   perscache.c.obj
 0001:00060610       perscache_dirname          0000000071061610 f   perscache.c.obj
 0001:00060710       coarse_unit_check_persist_space 0000000071061710 f   perscache.c.obj
 0001:00061190       instrument_persist_section 0000000071062190 f   perscache.c.obj
 0001:00061230       dr_persist_start           0000000071062230 f   perscache.c.obj
 0001:00061240       dr_persist_size            0000000071062240 f   perscache.c.obj
 0001:00061250       dr_fragment_persistable    0000000071062250 f   perscache.c.obj
 0001:00061380       coarse_unit_create         0000000071062380 f   perscache.c.obj
 0001:00061570       perscache_init             0000000071062570 f   perscache.c.obj
 0001:00061630       perscache_fast_exit        0000000071062630 f   perscache.c.obj
 0001:00061670       coarse_unit_freeze         0000000071062670 f   perscache.c.obj
 0001:00061890       coarse_unit_merge          0000000071062890 f   perscache.c.obj
 0001:00061d70       coarse_unit_load           0000000071062d70 f   perscache.c.obj
 0001:00062a80       coarse_unit_persist        0000000071063a80 f   perscache.c.obj
 0001:00063410       nudge_thread_cleanup       0000000071064410 f   nudge.c.obj
 0001:00063620       generic_nudge_handler      0000000071064620 f   nudge.c.obj
 0001:000637b0       generic_nudge_target       00000000710647b0 f   nudge.c.obj
 0001:000637d0       nudge_internal             00000000710647d0 f   nudge.c.obj
 0001:00063910       synch_exit                 0000000071064910 f   synch.c.obj
 0001:00063920       synch_thread_init          0000000071064920 f   synch.c.obj
 0001:00063980       synch_thread_exit          0000000071064980 f   synch.c.obj
 0001:000639e0       thread_synch_state_no_xfer 00000000710649e0 f   synch.c.obj
 0001:00063a00       thread_synch_successful    0000000071064a00 f   synch.c.obj
 0001:00063a10       is_at_do_syscall           0000000071064a10 f   synch.c.obj
 0001:00063bf0       translate_mcontext         0000000071064bf0 f   synch.c.obj
 0001:00063d60       at_safe_spot               0000000071064d60 f   synch.c.obj
 0001:00063f20       should_wait_at_safe_spot   0000000071064f20 f   synch.c.obj
 0001:00063f30       set_synch_state            0000000071064f30 f   synch.c.obj
 0001:00063f60       set_synched_thread_context 0000000071064f60 f   synch.c.obj
 0001:000640c0       resume_all_threads         00000000710650c0 f   synch.c.obj
 0001:00064150       end_synch_with_all_threads 0000000071065150 f   synch.c.obj
 0001:000641b0       translate_from_synchall_to_dispatch 00000000710651b0 f   synch.c.obj
 0001:00064300       check_wait_at_safe_spot    0000000071065300 f   synch.c.obj
 0001:000644e0       synch_with_thread          00000000710654e0 f   synch.c.obj
 0001:00064880       synch_with_all_threads     0000000071065880 f   synch.c.obj
 0001:00064f80       locate_and_load_private_library 0000000071065f80 f   loader_shared.c.obj
 0001:00064f90       in_private_library         0000000071065f90 f   loader_shared.c.obj
 0001:000652b0       privload_unload            00000000710662b0 f   loader_shared.c.obj
 0001:00065520       privload_add_drext_path    0000000071066520 f   loader_shared.c.obj
 0001:000655a0       privload_next_module       00000000710665a0 f   loader_shared.c.obj
 0001:000655b0       privload_first_module      00000000710665b0 f   loader_shared.c.obj
 0001:000655c0       privload_print_modules     00000000710665c0 f   loader_shared.c.obj
 0001:00065690       loader_exit                0000000071066690 f   loader_shared.c.obj
 0001:00065800       loader_thread_init         0000000071066800 f   loader_shared.c.obj
 0001:00065890       loader_thread_exit         0000000071066890 f   loader_shared.c.obj
 0001:00065910       privload_lookup            0000000071066910 f   loader_shared.c.obj
 0001:00065a10       privload_lookup_by_base    0000000071066a10 f   loader_shared.c.obj
 0001:00065a80       privload_lookup_by_pc      0000000071066a80 f   loader_shared.c.obj
 0001:00065b10       privload_insert            0000000071066b10 f   loader_shared.c.obj
 0001:00065ca0       privload_load              0000000071066ca0 f   loader_shared.c.obj
 0001:00065dc0       loader_init                0000000071066dc0 f   loader_shared.c.obj
 0001:00065ff0       unload_private_library     0000000071066ff0 f   loader_shared.c.obj
 0001:00066040       double2int_trunc           0000000071067040 f   io.c.obj
 0001:000664d0       utf16_to_utf8_size         00000000710674d0 f   io.c.obj
 0001:00066cd0       our_vsnprintf              0000000071067cd0 f   io.c.obj
 0001:000676a0       our_snprintf               00000000710686a0 f   io.c.obj
 0001:000676a0       dr_snprintf                00000000710686a0 f   instrument.c.obj
 0001:00067ed0       our_vsnprintf_wide         0000000071068ed0 f   io.c.obj
 0001:000689e0       our_snprintf_wide          00000000710699e0 f   io.c.obj
 0001:000689e0       dr_snwprintf               00000000710699e0 f   instrument.c.obj
 0001:00068a00       parse_int                  0000000071069a00 f   io.c.obj
 0001:00068b20       our_vsscanf                0000000071069b20 f   io.c.obj
 0001:00068fd0       native_exec_init           0000000071069fd0 f   native_exec.c.obj
 0001:00069050       native_exec_exit           000000007106a050 f   native_exec.c.obj
 0001:00069080       is_native_pc               000000007106a080 f   native_exec.c.obj
 0001:00069230       native_exec_module_load    000000007106a230 f   native_exec.c.obj
 0001:00069280       native_exec_module_unload  000000007106a280 f   native_exec.c.obj
 0001:00069490       call_to_native             000000007106a490 f   native_exec.c.obj
 0001:000695b0       return_to_native           000000007106a5b0 f   native_exec.c.obj
 0001:000696e0       return_from_native         000000007106a6e0 f   native_exec.c.obj
 0001:00069770       interpret_back_from_native 000000007106a770 f   native_exec.c.obj
 0001:000697a0       put_back_native_retaddrs   000000007106a7a0 f   native_exec.c.obj
 0001:000698f0       instrument_load_client_libs 000000007106a8f0 f   instrument.c.obj
 0001:00069ca0       instrument_exit            000000007106aca0 f   instrument.c.obj
 0001:00069df0       is_in_client_lib           000000007106adf0 f   instrument.c.obj
 0001:00069e60       get_client_path_from_addr  000000007106ae60 f   instrument.c.obj
 0001:00069eb0       dr_register_exit_event     000000007106aeb0 f   instrument.c.obj
 0001:00069fc0       dr_unregister_exit_event   000000007106afc0 f   instrument.c.obj
 0001:0006a0b0       dr_register_bb_event       000000007106b0b0 f   instrument.c.obj
 0001:0006a1c0       dr_unregister_bb_event     000000007106b1c0 f   instrument.c.obj
 0001:0006a2b0       dr_register_trace_event    000000007106b2b0 f   instrument.c.obj
 0001:0006a3c0       dr_unregister_trace_event  000000007106b3c0 f   instrument.c.obj
 0001:0006a4b0       dr_register_end_trace_event 000000007106b4b0 f   instrument.c.obj
 0001:0006a5c0       dr_unregister_end_trace_event 000000007106b5c0 f   instrument.c.obj
 0001:0006a6b0       dr_register_delete_event   000000007106b6b0 f   instrument.c.obj
 0001:0006a7c0       dr_unregister_delete_event 000000007106b7c0 f   instrument.c.obj
 0001:0006a8b0       dr_register_restore_state_event 000000007106b8b0 f   instrument.c.obj
 0001:0006a9c0       dr_unregister_restore_state_event 000000007106b9c0 f   instrument.c.obj
 0001:0006aab0       dr_register_restore_state_ex_event 000000007106bab0 f   instrument.c.obj
 0001:0006abc0       dr_unregister_restore_state_ex_event 000000007106bbc0 f   instrument.c.obj
 0001:0006acb0       dr_register_thread_init_event 000000007106bcb0 f   instrument.c.obj
 0001:0006adc0       dr_unregister_thread_init_event 000000007106bdc0 f   instrument.c.obj
 0001:0006aeb0       dr_register_thread_exit_event 000000007106beb0 f   instrument.c.obj
 0001:0006afc0       dr_unregister_thread_exit_event 000000007106bfc0 f   instrument.c.obj
 0001:0006b0b0       dr_register_module_load_event 000000007106c0b0 f   instrument.c.obj
 0001:0006b1c0       dr_unregister_module_load_event 000000007106c1c0 f   instrument.c.obj
 0001:0006b2b0       dr_register_module_unload_event 000000007106c2b0 f   instrument.c.obj
 0001:0006b3c0       dr_unregister_module_unload_event 000000007106c3c0 f   instrument.c.obj
 0001:0006b4b0       dr_register_exception_event 000000007106c4b0 f   instrument.c.obj
 0001:0006b5c0       dr_unregister_exception_event 000000007106c5c0 f   instrument.c.obj
 0001:0006b6b0       dr_register_filter_syscall_event 000000007106c6b0 f   instrument.c.obj
 0001:0006b7c0       dr_unregister_filter_syscall_event 000000007106c7c0 f   instrument.c.obj
 0001:0006b8b0       dr_register_pre_syscall_event 000000007106c8b0 f   instrument.c.obj
 0001:0006b9c0       dr_unregister_pre_syscall_event 000000007106c9c0 f   instrument.c.obj
 0001:0006bab0       dr_register_post_syscall_event 000000007106cab0 f   instrument.c.obj
 0001:0006bbc0       dr_unregister_post_syscall_event 000000007106cbc0 f   instrument.c.obj
 0001:0006bcb0       dr_register_nudge_event    000000007106ccb0 f   instrument.c.obj
 0001:0006bdb0       dr_unregister_nudge_event  000000007106cdb0 f   instrument.c.obj
 0001:0006bec0       dr_nudge_client_ex         000000007106cec0 f   instrument.c.obj
 0001:0006bf60       dr_nudge_client            000000007106cf60 f   instrument.c.obj
 0001:0006bfa0       dr_is_nudge_thread         000000007106cfa0 f   instrument.c.obj
 0001:0006bfb0       instrument_client_thread_init 000000007106cfb0 f   instrument.c.obj
 0001:0006c040       instrument_thread_exit_event 000000007106d040 f   instrument.c.obj
 0001:0006c1b0       dr_bb_hook_exists          000000007106d1b0 f   instrument.c.obj
 0001:0006c1c0       dr_trace_hook_exists       000000007106d1c0 f   instrument.c.obj
 0001:0006c1d0       dr_fragment_deleted_hook_exists 000000007106d1d0 f   instrument.c.obj
 0001:0006c1e0       dr_end_trace_hook_exists   000000007106d1e0 f   instrument.c.obj
 0001:0006c1f0       dr_thread_exit_hook_exists 000000007106d1f0 f   instrument.c.obj
 0001:0006c200       dr_exit_hook_exists        000000007106d200 f   instrument.c.obj
 0001:0006c210       dr_xl8_hook_exists         000000007106d210 f   instrument.c.obj
 0001:0006c230       dr_modload_hook_exists     000000007106d230 f   instrument.c.obj
 0001:0006c240       hide_tag_from_client       000000007106d240 f   instrument.c.obj
 0001:0006c290       instrument_basic_block     000000007106d290 f   instrument.c.obj
 0001:0006c490       instrument_trace           000000007106d490 f   instrument.c.obj
 0001:0006c620       instrument_fragment_deleted 000000007106d620 f   instrument.c.obj
 0001:0006c7b0       instrument_restore_state   000000007106d7b0 f   instrument.c.obj
 0001:0006ca00       instrument_end_trace       000000007106da00 f   instrument.c.obj
 0001:0006cc60       copy_module_area_to_module_data 000000007106dc60 f   instrument.c.obj
 0001:0006ccd0       dr_copy_module_data        000000007106dcd0 f   instrument.c.obj
 0001:0006cd40       dr_free_module_data        000000007106dd40 f   instrument.c.obj
 0001:0006cd90       dr_module_contains_addr    000000007106dd90 f   instrument.c.obj
 0001:0006cdb0       instrument_module_load     000000007106ddb0 f   instrument.c.obj
 0001:0006cf20       instrument_module_unload   000000007106df20 f   instrument.c.obj
 0001:0006d070       instrument_filter_syscall  000000007106e070 f   instrument.c.obj
 0001:0006d1d0       instrument_pre_syscall     000000007106e1d0 f   instrument.c.obj
 0001:0006d340       instrument_post_syscall    000000007106e340 f   instrument.c.obj
 0001:0006d480       instrument_invoke_another_syscall 000000007106e480 f   instrument.c.obj
 0001:0006d490       instrument_exception       000000007106e490 f   instrument.c.obj
 0001:0006d5d0       instrument_nudge           000000007106e5d0 f   instrument.c.obj
 0001:0006d7a0       get_num_client_threads     000000007106e7a0 f   instrument.c.obj
 0001:0006d7b0       dr_standalone_init         000000007106e7b0 f   instrument.c.obj
 0001:0006d7c0       dr_abort                   000000007106e7c0 f   instrument.c.obj
 0001:0006d7f0       dr_exit_process            000000007106e7f0 f   instrument.c.obj
 0001:0006d8c0       dr_create_memory_dump      000000007106e8c0 f   instrument.c.obj
 0001:0006d8e0       dr_using_all_private_caches 000000007106e8e0 f   instrument.c.obj
 0001:0006d900       dr_set_process_exit_behavior 000000007106e900 f   instrument.c.obj
 0001:0006d970       dr_get_options             000000007106e970 f   instrument.c.obj
 0001:0006daf0       dr_get_option_array        000000007106eaf0 f   instrument.c.obj
 0001:0006db50       dr_get_client_path         000000007106eb50 f   instrument.c.obj
 0001:0006db90       dr_get_client_base         000000007106eb90 f   instrument.c.obj
 0001:0006dbd0       dr_set_client_name         000000007106ebd0 f   instrument.c.obj
 0001:0006dc00       dr_set_client_version_string 000000007106ec00 f   instrument.c.obj
 0001:0006dc20       dr_get_application_name    000000007106ec20 f   instrument.c.obj
 0001:0006dc30       dr_convert_handle_to_pid   000000007106ec30 f   instrument.c.obj
 0001:0006dc40       dr_convert_pid_to_handle   000000007106ec40 f   instrument.c.obj
 0001:0006dc50       dr_get_os_version          000000007106ec50 f   instrument.c.obj
 0001:0006dda0       dr_is_wow64                000000007106eda0 f   instrument.c.obj
 0001:0006ddb0       dr_get_app_PEB             000000007106edb0 f   instrument.c.obj
 0001:0006ddb0       kernel32_redir_init_proc   000000007106edb0 f   kernel32_proc.c.obj
 0001:0006ddc0       dr_get_time                000000007106edc0 f   instrument.c.obj
 0001:0006dde0       dr_get_milliseconds        000000007106ede0 f   instrument.c.obj
 0001:0006ddf0       dr_get_random_value        000000007106edf0 f   instrument.c.obj
 0001:0006de00       dr_set_random_seed         000000007106ee00 f   instrument.c.obj
 0001:0006de10       dr_get_random_seed         000000007106ee10 f   instrument.c.obj
 0001:0006de20       dr_thread_alloc            000000007106ee20 f   instrument.c.obj
 0001:0006de30       dr_thread_free             000000007106ee30 f   instrument.c.obj
 0001:0006de40       dr_global_alloc            000000007106ee40 f   instrument.c.obj
 0001:0006de50       dr_global_free             000000007106ee50 f   instrument.c.obj
 0001:0006de50       convert_to_NT_file_path_wide_free 000000007106ee50 f   os.c.obj
 0001:0006de60       dr_nonheap_alloc           000000007106ee60 f   instrument.c.obj
 0001:0006de70       dr_nonheap_free            000000007106ee70 f   instrument.c.obj
 0001:0006e0b0       dr_raw_mem_alloc           000000007106f0b0 f   instrument.c.obj
 0001:0006e0c0       dr_raw_mem_free            000000007106f0c0 f   instrument.c.obj
 0001:0006e120       dr_custom_alloc            000000007106f120 f   instrument.c.obj
 0001:0006e220       dr_custom_free             000000007106f220 f   instrument.c.obj
 0001:0006e300       dr_memory_protect          000000007106f300 f   instrument.c.obj
 0001:0006e390       is_readable_without_exception_query_os 000000007106f390 f   os.c.obj
 0001:0006e390       dr_memory_is_readable      000000007106f390 f   instrument.c.obj
 0001:0006e3a0       dr_query_memory            000000007106f3a0 f   instrument.c.obj
 0001:0006e3f0       dr_query_memory_ex         000000007106f3f0 f   instrument.c.obj
 0001:0006e440       dr_safe_read               000000007106f440 f   instrument.c.obj
 0001:0006e450       dr_safe_write              000000007106f450 f   instrument.c.obj
 0001:0006e460       dr_try_setup               000000007106f460 f   instrument.c.obj
 0001:0006e4a0       dr_try_stop                000000007106f4a0 f   instrument.c.obj
 0001:0006e4c0       dr_memory_is_dr_internal   000000007106f4c0 f   instrument.c.obj
 0001:0006e4d0       dr_memory_is_in_client     000000007106f4d0 f   instrument.c.obj
 0001:0006e4e0       instrument_client_lib_loaded 000000007106f4e0 f   instrument.c.obj
 0001:0006e520       instrument_client_lib_unloaded 000000007106f520 f   instrument.c.obj
 0001:0006e550       dr_load_aux_library        000000007106f550 f   instrument.c.obj
 0001:0006e620       dr_lookup_aux_library_routine 000000007106f620 f   instrument.c.obj
 0001:0006e630       dr_unload_aux_library      000000007106f630 f   instrument.c.obj
 0001:0006e710       dr_mutex_create            000000007106f710 f   instrument.c.obj
 0001:0006e740       dr_mutex_destroy           000000007106f740 f   instrument.c.obj
 0001:0006e760       dr_mutex_lock              000000007106f760 f   instrument.c.obj
 0001:0006e7e0       dr_mutex_unlock            000000007106f7e0 f   instrument.c.obj
 0001:0006e830       dr_mutex_trylock           000000007106f830 f   instrument.c.obj
 0001:0006e8c0       dr_rwlock_create           000000007106f8c0 f   instrument.c.obj
 0001:0006e920       dr_rwlock_destroy          000000007106f920 f   instrument.c.obj
 0001:0006e940       dr_rwlock_read_lock        000000007106f940 f   instrument.c.obj
 0001:0006e950       dr_rwlock_read_unlock      000000007106f950 f   instrument.c.obj
 0001:0006e960       dr_rwlock_write_lock       000000007106f960 f   instrument.c.obj
 0001:0006e970       dr_rwlock_write_unlock     000000007106f970 f   instrument.c.obj
 0001:0006e980       dr_rwlock_write_trylock    000000007106f980 f   instrument.c.obj
 0001:0006e990       dr_rwlock_self_owns_write_lock 000000007106f990 f   instrument.c.obj
 0001:0006e9a0       dr_rwlock_mark_as_app      000000007106f9a0 f   instrument.c.obj
 0001:0006e9a0       dr_mutex_mark_as_app       000000007106f9a0 f   instrument.c.obj
 0001:0006e9a0       dr_recurlock_mark_as_app   000000007106f9a0 f   instrument.c.obj
 0001:0006e9b0       dr_recurlock_create        000000007106f9b0 f   instrument.c.obj
 0001:0006e9f0       dr_recurlock_destroy       000000007106f9f0 f   instrument.c.obj
 0001:0006ea10       dr_recurlock_lock          000000007106fa10 f   instrument.c.obj
 0001:0006ea20       dr_recurlock_unlock        000000007106fa20 f   instrument.c.obj
 0001:0006ea30       dr_recurlock_trylock       000000007106fa30 f   instrument.c.obj
 0001:0006ea40       dr_recurlock_self_owns     000000007106fa40 f   instrument.c.obj
 0001:0006ea50       dr_mark_safe_to_suspend    000000007106fa50 f   instrument.c.obj
 0001:0006ea80       dr_atomic_add32_return_sum 000000007106fa80 f   instrument.c.obj
 0001:0006ea90       dr_lookup_module           000000007106fa90 f   instrument.c.obj
 0001:0006eac0       dr_get_main_module         000000007106fac0 f   instrument.c.obj
 0001:0006eb00       dr_lookup_module_by_name   000000007106fb00 f   instrument.c.obj
 0001:0006ebb0       dr_module_iterator_start   000000007106fbb0 f   instrument.c.obj
 0001:0006ece0       dr_module_iterator_hasnext 000000007106fce0 f   instrument.c.obj
 0001:0006ece0       ksynch_var_initialized     000000007106fce0 f   os.c.obj
 0001:0006ecf0       dr_module_iterator_next    000000007106fcf0 f   instrument.c.obj
 0001:0006ed10       dr_module_iterator_stop    000000007106fd10 f   instrument.c.obj
 0001:0006edd0       dr_module_preferred_name   000000007106fdd0 f   instrument.c.obj
 0001:0006ee00       dr_lookup_module_section   000000007106fe00 f   instrument.c.obj
 0001:0006ee10       dr_module_set_should_instrument 000000007106fe10 f   instrument.c.obj
 0001:0006ee60       dr_module_should_instrument 000000007106fe60 f   instrument.c.obj
 0001:0006eeb0       dr_get_proc_address        000000007106feb0 f   instrument.c.obj
 0001:0006eec0       dr_get_proc_address_ex     000000007106fec0 f   instrument.c.obj
 0001:0006ef00       dr_create_dir              000000007106ff00 f   instrument.c.obj
 0001:0006ef10       dr_delete_dir              000000007106ff10 f   instrument.c.obj
 0001:0006ef20       dr_get_current_directory   000000007106ff20 f   instrument.c.obj
 0001:0006ef30       dr_directory_exists        000000007106ff30 f   instrument.c.obj
 0001:0006ef40       dr_file_exists             000000007106ff40 f   instrument.c.obj
 0001:0006ef50       dr_open_file               000000007106ff50 f   instrument.c.obj
 0001:0006efa0       dr_rename_file             000000007106ffa0 f   instrument.c.obj
 0001:0006efb0       dr_delete_file             000000007106ffb0 f   instrument.c.obj
 0001:0006efc0       dr_flush_file              000000007106ffc0 f   instrument.c.obj
 0001:0006efd0       dr_read_file               000000007106ffd0 f   instrument.c.obj
 0001:0006efe0       dr_file_seek               000000007106ffe0 f   instrument.c.obj
 0001:0006eff0       dr_file_tell               000000007106fff0 f   instrument.c.obj
 0001:0006f000       dr_dup_file_handle         0000000071070000 f   instrument.c.obj
 0001:0006f050       dr_file_size               0000000071070050 f   instrument.c.obj
 0001:0006f060       dr_map_file                0000000071070060 f   instrument.c.obj
 0001:0006f090       dr_unmap_file              0000000071070090 f   instrument.c.obj
 0001:0006f120       dr_is_notify_on            0000000071070120 f   instrument.c.obj
 0001:0006f130       dr_get_stdout_file         0000000071070130 f   instrument.c.obj
 0001:0006f140       dr_get_stderr_file         0000000071070140 f   instrument.c.obj
 0001:0006f150       dr_get_stdin_file          0000000071070150 f   instrument.c.obj
 0001:0006f160       dr_messagebox              0000000071070160 f   instrument.c.obj
 0001:0006f340       dr_using_console           0000000071070340 f   instrument.c.obj
 0001:0006f3e0       dr_enable_console_printing 00000000710703e0 f   instrument.c.obj
 0001:0006f4f0       dr_printf                  00000000710704f0 f   instrument.c.obj
 0001:0006f550       dr_fprintf                 0000000071070550 f   instrument.c.obj
 0001:0006f5d0       dr_vsnprintf               00000000710705d0 f   instrument.c.obj
 0001:0006f5e0       dr_vsnwprintf              00000000710705e0 f   instrument.c.obj
 0001:0006f5f0       dr_sscanf                  00000000710705f0 f   instrument.c.obj
 0001:0006f5f0       our_sscanf                 00000000710705f0 f   io.c.obj
 0001:0006f620       dr_get_token               0000000071070620 f   instrument.c.obj
 0001:0006f650       dr_print_instr             0000000071070650 f   instrument.c.obj
 0001:0006f6c0       dr_print_opnd              00000000710706c0 f   instrument.c.obj
 0001:0006f720       dr_get_current_drcontext   0000000071070720 f   instrument.c.obj
 0001:0006f730       dr_get_thread_id           0000000071070730 f   instrument.c.obj
 0001:0006f740       dr_get_dr_thread_handle    0000000071070740 f   instrument.c.obj
 0001:0006f750       dr_get_tls_field           0000000071070750 f   instrument.c.obj
 0001:0006f760       dr_set_tls_field           0000000071070760 f   instrument.c.obj
 0001:0006f770       dr_get_dr_segment_base     0000000071070770 f   instrument.c.obj
 0001:0006f780       dr_raw_tls_calloc          0000000071070780 f   instrument.c.obj
 0001:0006f7a0       dr_raw_tls_cfree           00000000710707a0 f   instrument.c.obj
 0001:0006f7b0       dr_raw_tls_opnd            00000000710707b0 f   instrument.c.obj
 0001:0006f810       dr_thread_yield            0000000071070810 f   instrument.c.obj
 0001:0006f890       dr_sleep                   0000000071070890 f   instrument.c.obj
 0001:0006f920       dr_client_thread_set_suspendable 0000000071070920 f   instrument.c.obj
 0001:0006f960       dr_suspend_all_other_threads_ex 0000000071070960 f   instrument.c.obj
 0001:0006fb20       dr_suspend_all_other_threads 0000000071070b20 f   instrument.c.obj
 0001:0006fb30       dr_resume_all_other_threads 0000000071070b30 f   instrument.c.obj
 0001:0006fc00       dr_is_thread_native        0000000071070c00 f   instrument.c.obj
 0001:0006fc10       dr_retakeover_suspended_native_thread 0000000071070c10 f   instrument.c.obj
 0001:0006fe80       instrlist_meta_preinsert   0000000071070e80 f   instrument.c.obj
 0001:0006fec0       instrlist_meta_postinsert  0000000071070ec0 f   instrument.c.obj
 0001:0006ff00       instrlist_meta_append      0000000071070f00 f   instrument.c.obj
 0001:0006ff30       instrlist_meta_fault_preinsert 0000000071070f30 f   instrument.c.obj
 0001:0006ff70       instrlist_meta_fault_postinsert 0000000071070f70 f   instrument.c.obj
 0001:0006ffb0       instrlist_meta_fault_append 0000000071070fb0 f   instrument.c.obj
 0001:0006ffe0       dr_insert_call             0000000071070fe0 f   instrument.c.obj
 0001:000700e0       dr_insert_call_ex          00000000710710e0 f   instrument.c.obj
 0001:000701e0       dr_insert_call_noreturn    00000000710711e0 f   instrument.c.obj
 0001:00070530       dr_insert_clean_call_ex_varg 0000000071071530 f   instrument.c.obj
 0001:00070950       dr_insert_clean_call_ex    0000000071071950 f   instrument.c.obj
 0001:00070a50       dr_insert_clean_call       0000000071071a50 f   instrument.c.obj
 0001:00070b50       dr_prepare_for_call        0000000071071b50 f   instrument.c.obj
 0001:00070b60       dr_cleanup_after_call      0000000071071b60 f   instrument.c.obj
 0001:00070b80       dr_swap_to_clean_stack     0000000071071b80 f   instrument.c.obj
 0001:00070cb0       dr_restore_app_stack       0000000071071cb0 f   instrument.c.obj
 0001:00070d30       dr_save_reg                0000000071071d30 f   instrument.c.obj
 0001:00070ef0       dr_restore_reg             0000000071071ef0 f   instrument.c.obj
 0001:00071020       dr_max_opnd_accessible_spill_slot 0000000071072020 f   instrument.c.obj
 0001:00071040       reg_spill_slot_opnd        0000000071072040 f   instrument.c.obj
 0001:000710c0       dr_reg_spill_slot_opnd     00000000710720c0 f   instrument.c.obj
 0001:00071140       dr_read_saved_reg          0000000071072140 f   instrument.c.obj
 0001:00071180       dr_write_saved_reg         0000000071072180 f   instrument.c.obj
 0001:000711c0       dr_insert_read_tls_field   00000000710721c0 f   instrument.c.obj
 0001:000712f0       dr_insert_write_tls_field  00000000710722f0 f   instrument.c.obj
 0001:000714d0       dr_save_arith_flags_to_reg 00000000710724d0 f   instrument.c.obj
 0001:000715a0       dr_restore_arith_flags_from_reg 00000000710725a0 f   instrument.c.obj
 0001:000716a0       dr_insert_call_instrumentation 00000000710726a0 f   instrument.c.obj
 0001:00071820       dr_insert_mbr_instrumentation 0000000071072820 f   instrument.c.obj
 0001:00072270       dr_insert_cbr_instrumentation 0000000071073270 f   instrument.c.obj
 0001:000722a0       dr_insert_cbr_instrumentation_ex 00000000710732a0 f   instrument.c.obj
 0001:000722d0       dr_insert_ubr_instrumentation 00000000710732d0 f   instrument.c.obj
 0001:000722e0       dr_clobber_retaddr_after_read 00000000710732e0 f   instrument.c.obj
 0001:00072370       dr_mcontext_xmm_fields_valid 0000000071073370 f   instrument.c.obj
 0001:00072380       dr_get_mcontext_priv       0000000071073380 f   instrument.c.obj
 0001:00072570       dr_get_mcontext            0000000071073570 f   instrument.c.obj
 0001:00072580       dr_set_mcontext            0000000071073580 f   instrument.c.obj
 0001:00072620       dr_redirect_execution      0000000071073620 f   instrument.c.obj
 0001:000726a0       dr_redirect_native_target  00000000710736a0 f   instrument.c.obj
 0001:000726b0       dr_delete_fragment         00000000710736b0 f   instrument.c.obj
 0001:000727e0       dr_replace_fragment        00000000710737e0 f   instrument.c.obj
 0001:00072920       dr_flush_region            0000000071073920 f   instrument.c.obj
 0001:000729a0       dr_unlink_flush_region     00000000710739a0 f   instrument.c.obj
 0001:00072a20       dr_delay_flush_region      0000000071073a20 f   instrument.c.obj
 0001:00072ad0       dr_fragment_exists_at      0000000071073ad0 f   instrument.c.obj
 0001:00072b10       dr_bb_exists_at            0000000071073b10 f   instrument.c.obj
 0001:00072b40       dr_fragment_size           0000000071073b40 f   instrument.c.obj
 0001:00072b90       dr_fragment_app_pc         0000000071073b90 f   instrument.c.obj
 0001:00072bc0       dr_app_pc_for_decoding     0000000071073bc0 f   instrument.c.obj
 0001:00072bf0       dr_app_pc_from_cache_pc    0000000071073bf0 f   instrument.c.obj
 0001:00072c60       dr_using_app_state         0000000071073c60 f   instrument.c.obj
 0001:00072c70       dr_switch_to_app_state_ex  0000000071073c70 f   instrument.c.obj
 0001:00072c80       dr_switch_to_dr_state_ex   0000000071073c80 f   instrument.c.obj
 0001:00072c90       dr_mark_trace_head         0000000071073c90 f   instrument.c.obj
 0001:00072d90       dr_trace_head_at           0000000071073d90 f   instrument.c.obj
 0001:00072df0       dr_trace_exists_at         0000000071073df0 f   instrument.c.obj
 0001:00072e40       dr_insert_get_seg_base     0000000071073e40 f   instrument.c.obj
 0001:00072f30       instrument_persist_ro_size 0000000071073f30 f   instrument.c.obj
 0001:000730f0       instrument_persist_ro      00000000710740f0 f   instrument.c.obj
 0001:000732f0       instrument_resurrect_ro    00000000710742f0 f   instrument.c.obj
 0001:000734e0       instrument_persist_rx_size 00000000710744e0 f   instrument.c.obj
 0001:00073680       instrument_persist_rx      0000000071074680 f   instrument.c.obj
 0001:00073830       instrument_resurrect_rx    0000000071074830 f   instrument.c.obj
 0001:000739a0       instrument_persist_rw_size 00000000710749a0 f   instrument.c.obj
 0001:00073b40       instrument_persist_rw      0000000071074b40 f   instrument.c.obj
 0001:00073cf0       instrument_resurrect_rw    0000000071074cf0 f   instrument.c.obj
 0001:00073e60       instrument_persist_patch   0000000071074e60 f   instrument.c.obj
 0001:00074050       dr_register_persist_ro     0000000071075050 f   instrument.c.obj
 0001:000740c0       dr_unregister_persist_ro   00000000710750c0 f   instrument.c.obj
 0001:00074360       dr_register_persist_rx     0000000071075360 f   instrument.c.obj
 0001:000743d0       dr_unregister_persist_rx   00000000710753d0 f   instrument.c.obj
 0001:00074670       dr_register_persist_rw     0000000071075670 f   instrument.c.obj
 0001:000746e0       dr_unregister_persist_rw   00000000710756e0 f   instrument.c.obj
 0001:00074980       dr_register_persist_patch  0000000071075980 f   instrument.c.obj
 0001:00074a90       dr_unregister_persist_patch 0000000071075a90 f   instrument.c.obj
 0001:00074b80       instrlist_insert_mov_immed_ptrsz 0000000071075b80 f   instrument.c.obj
 0001:00074bd0       instrlist_insert_push_immed_ptrsz 0000000071075bd0 f   instrument.c.obj
 0001:00074c00       instrlist_insert_mov_instr_addr 0000000071075c00 f   instrument.c.obj
 0001:00074c90       instrlist_insert_push_instr_addr 0000000071075c90 f   instrument.c.obj
 0001:00074e90       instrument_thread_init     0000000071075e90 f   instrument.c.obj
 0001:00075000       instrument_module_load_trigger 0000000071076000 f   instrument.c.obj
 0001:00075090       wait_for_outstanding_nudges 0000000071076090 f   instrument.c.obj
 0001:000751a0       dr_write_file              00000000710761a0 f   instrument.c.obj
 0001:00075230       dr_insert_read_raw_tls     0000000071076230 f   instrument.c.obj
 0001:00075300       dr_insert_write_raw_tls    0000000071076300 f   instrument.c.obj
 0001:000753c0       dr_save_arith_flags        00000000710763c0 f   instrument.c.obj
 0001:00075410       dr_restore_arith_flags     0000000071076410 f   instrument.c.obj
 0001:00075470       dr_save_arith_flags_to_xax 0000000071076470 f   instrument.c.obj
 0001:00075480       dr_restore_arith_flags_from_xax 0000000071076480 f   instrument.c.obj
 0001:00075490       dr_switch_to_app_state     0000000071076490 f   instrument.c.obj
 0001:000754a0       dr_switch_to_dr_state      00000000710764a0 f   instrument.c.obj
 0001:000754b0       instrument_init            00000000710764b0 f   instrument.c.obj
 0001:00076740       recreate_app_pc            0000000071077740 f   translate.c.obj
 0001:000767c0       recreate_app_state         00000000710777c0 f   translate.c.obj
 0001:000767e0       translation_info_free      00000000710777e0 f   translate.c.obj
 0001:000767f0       record_translation_info    00000000710777f0 f   translate.c.obj
 0001:00076c60       annotation_exit            0000000071077c60 f   annotations.c.obj
 0001:00076c70       dr_annotation_register_return 0000000071077c70 f   annotations.c.obj
 0001:00076d70       dr_annotation_unregister_call 0000000071077d70 f   annotations.c.obj
 0001:00076e40       dr_annotation_unregister_return 0000000071077e40 f   annotations.c.obj
 0001:000773d0       annotation_init            00000000710783d0 f   annotations.c.obj
 0001:00077420       instrument_annotation      0000000071078420 f   annotations.c.obj
 0001:000776f0       dr_annotation_register_call 00000000710786f0 f   annotations.c.obj
 0001:00078090       jitopt_exit                0000000071079090 f   jit_opt.c.obj
 0001:000780e0       jitopt_add_dgc_bb          00000000710790e0 f   jit_opt.c.obj
 0001:00078100       jitopt_clear_span          0000000071079100 f   jit_opt.c.obj
 0001:000781f0       jitopt_init                00000000710791f0 f   jit_opt.c.obj
 0001:000782f0       reg_spill_tls_offs         00000000710792f0 f   arch.c.obj
 0001:00078780       update_generated_hashtable_access 0000000071079780 f   arch.c.obj
 0001:00078790       protect_generated_code     0000000071079790 f   arch.c.obj
 0001:00078800       get_source_fragment_type   0000000071079800 f   arch.c.obj
 0001:00078830       is_shared_syscall_routine  0000000071079830 f   arch.c.obj
 0001:00078940       in_generated_routine       0000000071079940 f   arch.c.obj
 0001:00078a30       get_reset_exit_stub        0000000071079a30 f   arch.c.obj
 0001:00078ac0       get_do_syscall_entry       0000000071079ac0 f   arch.c.obj
 0001:00078b50       get_fcache_enter_indirect_routine 0000000071079b50 f   arch.c.obj
 0001:00078be0       get_do_callback_return_entry 0000000071079be0 f   arch.c.obj
 0001:00078c70       fcache_return_routine      0000000071079c70 f   arch.c.obj
 0001:00078cf0       fcache_return_routine_ex   0000000071079cf0 f   arch.c.obj
 0001:00078d10       fcache_return_coarse_routine 0000000071079d10 f   arch.c.obj
 0001:00078d90       trace_head_return_coarse_routine 0000000071079d90 f   arch.c.obj
 0001:00078e10       get_clean_call_save        0000000071079e10 f   arch.c.obj
 0001:00078ee0       get_clean_call_restore     0000000071079ee0 f   arch.c.obj
 0001:00079060       get_client_ibl_xfer_entry  000000007107a060 f   arch.c.obj
 0001:00079070       get_ibl_branch_type        000000007107a070 f   arch.c.obj
 0001:000791c0       get_ibl_routine_ex         000000007107a1c0 f   arch.c.obj
 0001:00079270       get_ibl_routine            000000007107a270 f   arch.c.obj
 0001:00079290       get_target_delete_entry_pc 000000007107a290 f   arch.c.obj
 0001:00079520       get_ibl_routine_code_ex    000000007107a520 f   arch.c.obj
 0001:00079570       get_ibl_routine_code       000000007107a570 f   arch.c.obj
 0001:000795e0       shared_syscall_routine_ex  000000007107a5e0 f   arch.c.obj
 0001:00079600       shared_syscall_routine     000000007107a600 f   arch.c.obj
 0001:00079680       unlinked_shared_syscall_routine_ex 000000007107a680 f   arch.c.obj
 0001:000796a0       unlinked_shared_syscall_routine 000000007107a6a0 f   arch.c.obj
 0001:00079720       after_shared_syscall_code_ex 000000007107a720 f   arch.c.obj
 0001:00079740       after_do_syscall_code_ex   000000007107a740 f   arch.c.obj
 0001:00079760       fcache_enter_routine       000000007107a760 f   arch.c.obj
 0001:00079760       fcache_enter_shared_routine 000000007107a760 f   arch.c.obj
 0001:000797e0       fcache_return_shared_routine 000000007107a7e0 f   arch.c.obj
 0001:00079860       get_fcache_target          000000007107a860 f   arch.c.obj
 0001:00079870       set_fcache_target          000000007107a870 f   arch.c.obj
 0001:000798a0       check_syscall_method       000000007107a8a0 f   arch.c.obj
 0001:00079a90       get_syscall_method         000000007107aa90 f   arch.c.obj
 0001:00079aa0       does_syscall_ret_to_callsite 000000007107aaa0 f   arch.c.obj
 0001:00079ac0       set_syscall_method         000000007107aac0 f   arch.c.obj
 0001:00079ad0       get_app_sysenter_addr      000000007107aad0 f   arch.c.obj
 0001:00079ae0       copy_mcontext              000000007107aae0 f   arch.c.obj
 0001:00079b00       dr_mcontext_to_priv_mcontext 000000007107ab00 f   arch.c.obj
 0001:00079bd0       priv_mcontext_to_dr_mcontext 000000007107abd0 f   arch.c.obj
 0001:00079ca0       dr_mcontext_as_priv_mcontext 000000007107aca0 f   arch.c.obj
 0001:00079cb0       get_priv_mcontext_from_dstack 000000007107acb0 f   arch.c.obj
 0001:00079cc0       dr_mcontext_init           000000007107acc0 f   arch.c.obj
 0001:00079cd0       dump_mcontext              000000007107acd0 f   arch.c.obj
 0001:0007a1b0       arch_init                  000000007107b1b0 f   arch.c.obj
 0001:0007abb0       arch_profile_exit          000000007107bbb0 f   arch.c.obj
 0001:0007abe0       arch_exit                  000000007107bbe0 f   arch.c.obj
 0001:0007ac60       arch_thread_init           000000007107bc60 f   arch.c.obj
 0001:0007ac90       arch_thread_profile_exit   000000007107bc90 f   arch.c.obj
 0001:0007ad50       arch_patch_syscall         000000007107bd50 f   arch.c.obj
 0001:0007ada0       get_ibl_routine_type_ex    000000007107bda0 f   arch.c.obj
 0001:0007af80       get_ibl_routine_type       000000007107bf80 f   arch.c.obj
 0001:0007af90       get_ibl_routine_name       000000007107bf90 f   arch.c.obj
 0001:0007b090       after_shared_syscall_code  000000007107c090 f   arch.c.obj
 0001:0007b110       after_shared_syscall_addr  000000007107c110 f   arch.c.obj
 0001:0007b140       after_do_syscall_code      000000007107c140 f   arch.c.obj
 0001:0007b1c0       after_do_syscall_addr      000000007107c1c0 f   arch.c.obj
 0001:0007b1f0       is_after_syscall_address   000000007107c1f0 f   arch.c.obj
 0001:0007b290       is_after_syscall_that_rets 000000007107c290 f   arch.c.obj
 0001:0007b2d0       get_fcache_enter_shared_routine 000000007107c2d0 f   arch.c.obj
 0001:0007b2d0       get_fcache_enter_gonative_routine 000000007107c2d0 f   arch.c.obj
 0001:0007b2d0       get_fcache_enter_private_routine 000000007107c2d0 f   arch.c.obj
 0001:0007b2e0       get_global_do_syscall_entry 000000007107c2e0 f   arch.c.obj
 0001:0007b350       get_cleanup_and_terminate_global_do_syscall_entry 000000007107c350 f   arch.c.obj
 0001:0007b410       is_indirect_branch_lookup_routine 000000007107c410 f   arch.c.obj
 0001:0007b540       get_alternate_ibl_routine  000000007107c540 f   arch.c.obj
 0001:0007b600       get_linked_entry           000000007107c600 f   arch.c.obj
 0001:0007b6e0       get_trace_cmp_entry        000000007107c6e0 f   arch.c.obj
 0001:0007b900       get_unlinked_entry         000000007107c900 f   arch.c.obj
 0001:0007b9d0       exit_stub_size             000000007107c9d0 f   emit_utils_shared.c.obj
 0001:0007bc60       is_exit_cti_stub_patchable 000000007107cc60 f   emit_utils_shared.c.obj
 0001:0007bce0       extend_trace_pad_bytes     000000007107cce0 f   emit_utils_shared.c.obj
 0001:0007bcf0       remove_nops_from_ilist     000000007107ccf0 f   emit_utils_shared.c.obj
 0001:0007bd80       get_direct_exit_target     000000007107cd80 f   emit_utils_shared.c.obj
 0001:0007bdf0       insert_exit_stub           000000007107cdf0 f   emit_utils_shared.c.obj
 0001:0007be10       is_exit_cti_patchable      000000007107ce10 f   emit_utils_shared.c.obj
 0001:0007bee0       link_direct_exit           000000007107cee0 f   emit_utils_shared.c.obj
 0001:0007c090       unlink_direct_exit         000000007107d090 f   emit_utils_shared.c.obj
 0001:0007c200       indirect_linkstub_target   000000007107d200 f   emit_utils_shared.c.obj
 0001:0007c3a0       linkstub_cbr_disambiguate  000000007107d3a0 f   emit_utils_shared.c.obj
 0001:0007c4b0       entrance_stub_jmp_target   000000007107d4b0 f   emit_utils_shared.c.obj
 0001:0007c4d0       entrance_stub_target_tag   000000007107d4d0 f   emit_utils_shared.c.obj
 0001:0007c560       coarse_is_indirect_stub    000000007107d560 f   emit_utils_shared.c.obj
 0001:0007c570       coarse_cti_is_intra_fragment 000000007107d570 f   emit_utils_shared.c.obj
 0001:0007c630       coarse_indirect_stub_jmp_target 000000007107d630 f   emit_utils_shared.c.obj
 0001:0007c660       coarse_indirect_stub_size  000000007107d660 f   emit_utils_shared.c.obj
 0001:0007c680       entrance_stub_linked       000000007107d680 f   emit_utils_shared.c.obj
 0001:0007c7e0       link_entrance_stub         000000007107d7e0 f   emit_utils_shared.c.obj
 0001:0007c7f0       unlink_entrance_stub       000000007107d7f0 f   emit_utils_shared.c.obj
 0001:0007c840       entrance_stub_from_cti     000000007107d840 f   emit_utils_shared.c.obj
 0001:0007c860       init_patch_list            000000007107d860 f   emit_utils_shared.c.obj
 0001:0007c870       add_patch_entry_internal   000000007107d870 f   emit_utils_shared.c.obj
 0001:0007c960       add_patch_marker           000000007107d960 f   emit_utils_shared.c.obj
 0001:0007caa0       encode_with_patch_list     000000007107daa0 f   emit_utils_shared.c.obj
 0001:0007ccf0       update_indirect_exit_stub  000000007107dcf0 f   emit_utils_shared.c.obj
 0001:0007cee0       fragment_prefix_size       000000007107dee0 f   emit_utils_shared.c.obj
 0001:0007cfa0       preinsert_swap_peb         000000007107dfa0 f   emit_utils_shared.c.obj
 0001:0007db70       insert_shared_get_dcontext 000000007107eb70 f   emit_utils_shared.c.obj
 0001:0007dcf0       insert_shared_restore_dcontext_reg 000000007107ecf0 f   emit_utils_shared.c.obj
 0001:0007dfe0       append_fcache_return_common 000000007107efe0 f   emit_utils_shared.c.obj
 0001:0007e150       emit_fcache_enter_shared   000000007107f150 f   emit_utils_shared.c.obj
 0001:0007e170       emit_fcache_return_shared  000000007107f170 f   emit_utils_shared.c.obj
 0001:0007e350       emit_fcache_return_coarse  000000007107f350 f   emit_utils_shared.c.obj
 0001:0007e540       emit_trace_head_return_coarse 000000007107f540 f   emit_utils_shared.c.obj
 0001:0007e730       coarse_exit_prefix_size    000000007107f730 f   emit_utils_shared.c.obj
 0001:0007e7c0       emit_coarse_exit_prefix    000000007107f7c0 f   emit_utils_shared.c.obj
 0001:0007ec30       patch_coarse_exit_prefix   000000007107fc30 f   emit_utils_shared.c.obj
 0001:0007ec40       instrlist_convert_to_x86   000000007107fc40 f   emit_utils_shared.c.obj
 0001:0007ec80       append_ibl_found           000000007107fc80 f   emit_utils_shared.c.obj
 0001:0007ef90       update_indirect_branch_lookup 000000007107ff90 f   emit_utils_shared.c.obj
 0001:0007efe0       emit_far_ibl               000000007107ffe0 f   emit_utils_shared.c.obj
 0001:0007f720       create_syscall_instr       0000000071080720 f   emit_utils_shared.c.obj
 0001:0007faa0       emit_shared_syscall        0000000071080aa0 f   emit_utils_shared.c.obj
 0001:00080a60       link_shared_syscall        0000000071081a60 f   emit_utils_shared.c.obj
 0001:00080b30       unlink_shared_syscall      0000000071081b30 f   emit_utils_shared.c.obj
 0001:00080c00       emit_detach_callback_code  0000000071081c00 f   emit_utils_shared.c.obj
 0001:00081470       emit_detach_callback_final_jmp 0000000071082470 f   emit_utils_shared.c.obj
 0001:00081550       emit_patch_syscall         0000000071082550 f   emit_utils_shared.c.obj
 0001:00081850       emit_do_callback_return    0000000071082850 f   emit_utils_shared.c.obj
 0001:000819b0       emit_do_syscall            00000000710829b0 f   emit_utils_shared.c.obj
 0001:000819f0       special_ibl_xfer_tgt       00000000710829f0 f   emit_utils_shared.c.obj
 0001:00081e20       link_special_ibl_xfer      0000000071082e20 f   emit_utils_shared.c.obj
 0001:00081e30       unlink_special_ibl_xfer    0000000071082e30 f   emit_utils_shared.c.obj
 0001:00081e40       emit_client_ibl_xfer       0000000071082e40 f   emit_utils_shared.c.obj
 0001:00081eb0       emit_clean_call_save       0000000071082eb0 f   emit_utils_shared.c.obj
 0001:000821e0       emit_clean_call_restore    00000000710831e0 f   emit_utils_shared.c.obj
 0001:00082410       insert_set_last_exit       0000000071083410 f   emit_utils_shared.c.obj
 0001:00082640       insert_return_to_native    0000000071083640 f   emit_utils_shared.c.obj
 0001:00082660       is_patchable_exit_stub     0000000071083660 f   emit_utils_shared.c.obj
 0001:000826d0       bytes_for_exitstub_alignment 00000000710836d0 f   emit_utils_shared.c.obj
 0001:00082830       pad_for_exitstub_alignment 0000000071083830 f   emit_utils_shared.c.obj
 0001:00082880       link_indirect_exit         0000000071083880 f   emit_utils_shared.c.obj
 0001:00082aa0       linkstub_unlink_entry_offset 0000000071083aa0 f   emit_utils_shared.c.obj
 0001:00082b30       coarse_is_trace_head       0000000071083b30 f   emit_utils_shared.c.obj
 0001:00082b80       insert_relative_target     0000000071083b80 f   emit_utils.c.obj
 0001:00082b90       insert_relative_jump       0000000071083b90 f   emit_utils.c.obj
 0001:00082bb0       patchable_exit_cti_align_offs 0000000071083bb0 f   emit_utils.c.obj
 0001:00082da0       nop_pad_ilist              0000000071083da0 f   emit_utils.c.obj
 0001:00082fb0       exit_cti_disp_pc           0000000071083fb0 f   emit_utils.c.obj
 0001:00083010       cbr_fallthrough_exit_cti   0000000071084010 f   emit_utils.c.obj
 0001:00083030       entrance_stub_jmp          0000000071084030 f   emit_utils.c.obj
 0001:00083040       coarse_is_entrance_stub    0000000071084040 f   emit_utils.c.obj
 0001:00083090       fragment_ibt_prefix_size   0000000071084090 f   emit_utils.c.obj
 0001:00083610       insert_fragment_prefix     0000000071084610 f   emit_utils.c.obj
 0001:00083750       append_fcache_enter_prologue 0000000071084750 f   emit_utils.c.obj
 0001:00083800       append_call_exit_dr_hook   0000000071084800 f   emit_utils.c.obj
 0001:00083be0       append_restore_xflags      0000000071084be0 f   emit_utils.c.obj
 0001:00083d00       append_restore_simd_reg    0000000071084d00 f   emit_utils.c.obj
 0001:00083e60       append_restore_gpr         0000000071084e60 f   emit_utils.c.obj
 0001:00084200       append_save_gpr            0000000071085200 f   emit_utils.c.obj
 0001:000846b0       append_save_simd_reg       00000000710856b0 f   emit_utils.c.obj
 0001:00084810       append_save_clear_xflags   0000000071085810 f   emit_utils.c.obj
 0001:000849e0       append_call_enter_dr_hook  00000000710859e0 f   emit_utils.c.obj
 0001:00085070       insert_save_eflags         0000000071086070 f   emit_utils.c.obj
 0001:000851a0       insert_restore_eflags      00000000710861a0 f   emit_utils.c.obj
 0001:00085310       append_ibl_head            0000000071086310 f   emit_utils.c.obj
 0001:00085bf0       emit_inline_ibl_stub       0000000071086bf0 f   emit_utils.c.obj
 0001:00086120       emit_indirect_branch_lookup 0000000071087120 f   emit_utils.c.obj
 0001:000875a0       relink_special_ibl_xfer    00000000710885a0 f   emit_utils.c.obj
 0001:000876a0       is_jmp_rel32               00000000710886a0 f   emit_utils.c.obj
 0001:000876c0       patch_branch               00000000710886c0 f   emit_utils.c.obj
 0001:00087930       insert_exit_stub_other_flags 0000000071088930 f   emit_utils.c.obj
 0001:00087c80       indirect_linkstub_stub_pc  0000000071088c80 f   emit_utils.c.obj
 0001:00087da0       unlink_indirect_exit       0000000071088da0 f   emit_utils.c.obj
 0001:00088100       link_indirect_exit_arch    0000000071089100 f   emit_utils.c.obj
 0001:000882c0       opnd_is_null               00000000710892c0 f   opnd_shared.c.obj
 0001:000882d0       opnd_is_immed_int          00000000710892d0 f   opnd_shared.c.obj
 0001:000882e0       opnd_is_immed_float        00000000710892e0 f   opnd_shared.c.obj
 0001:000882f0       opnd_is_near_pc            00000000710892f0 f   opnd_shared.c.obj
 0001:00088300       opnd_is_near_instr         0000000071089300 f   opnd_shared.c.obj
 0001:00088310       opnd_is_reg                0000000071089310 f   opnd_shared.c.obj
 0001:00088320       opnd_is_base_disp          0000000071089320 f   opnd_shared.c.obj
 0001:00088330       opnd_is_far_pc             0000000071089330 f   opnd_shared.c.obj
 0001:00088340       opnd_is_far_instr          0000000071089340 f   opnd_shared.c.obj
 0001:00088350       opnd_is_mem_instr          0000000071089350 f   opnd_shared.c.obj
 0001:00088360       opnd_is_rel_addr           0000000071089360 f   opnd_shared.c.obj
 0001:00088370       opnd_is_abs_base_disp      0000000071089370 f   opnd_shared.c.obj
 0001:00088390       opnd_is_abs_addr           0000000071089390 f   opnd_shared.c.obj
 0001:000883d0       opnd_is_near_abs_addr      00000000710893d0 f   opnd_shared.c.obj
 0001:00088420       opnd_is_far_abs_addr       0000000071089420 f   opnd_shared.c.obj
 0001:00088470       opnd_is_vsib               0000000071089470 f   opnd_shared.c.obj
 0001:000884a0       reg_is_32bit               00000000710894a0 f   opnd_shared.c.obj
 0001:000884b0       reg_is_64bit               00000000710894b0 f   opnd_shared.c.obj
 0001:000884b0       reg_is_pointer_sized       00000000710894b0 f   opnd_shared.c.obj
 0001:000884c0       opnd_get_reg               00000000710894c0 f   opnd_shared.c.obj
 0001:000884d0       opnd_get_flags             00000000710894d0 f   opnd_shared.c.obj
 0001:000884d0       dr_insert_it_instrs        00000000710894d0 f   instrument.c.obj
 0001:000884d0       dr_get_stolen_reg          00000000710894d0 f   instrument.c.obj
 0001:000884d0       dr_remove_it_instrs        00000000710894d0 f   instrument.c.obj
 0001:000884e0       opnd_set_flags             00000000710894e0 f   opnd_shared.c.obj
 0001:000884f0       opnd_add_flags             00000000710894f0 f   opnd_shared.c.obj
 0001:00088510       opnd_set_size              0000000071089510 f   opnd_shared.c.obj
 0001:00088530       opnd_create_immed_uint     0000000071089530 f   opnd_shared.c.obj
 0001:00088530       opnd_create_immed_int      0000000071089530 f   opnd_shared.c.obj
 0001:00088550       opnd_create_immed_int64    0000000071089550 f   opnd_shared.c.obj
 0001:00088570       opnd_create_immed_float    0000000071089570 f   opnd_shared.c.obj
 0001:00088580       opnd_create_immed_float_for_opcode 0000000071089580 f   opnd_shared.c.obj
 0001:000885b0       opnd_get_immed_int         00000000710895b0 f   opnd_shared.c.obj
 0001:000885b0       instr_get_raw_bits         00000000710895b0 f   instr_shared.c.obj
 0001:000885b0       opnd_get_instr             00000000710895b0 f   opnd_shared.c.obj
 0001:000885b0       instrlist_last             00000000710895b0 f   instrlist.c.obj
 0001:000885c0       opnd_get_immed_int64       00000000710895c0 f   opnd_shared.c.obj
 0001:000885d0       opnd_get_immed_float       00000000710895d0 f   opnd_shared.c.obj
 0001:000885e0       opnd_create_far_pc         00000000710895e0 f   opnd_shared.c.obj
 0001:000885f0       opnd_create_instr_ex       00000000710895f0 f   opnd_shared.c.obj
 0001:00088610       opnd_create_instr          0000000071089610 f   opnd_shared.c.obj
 0001:00088630       opnd_create_far_instr      0000000071089630 f   opnd_shared.c.obj
 0001:00088640       opnd_create_mem_instr      0000000071089640 f   opnd_shared.c.obj
 0001:00088660       opnd_get_pc                0000000071089660 f   opnd_shared.c.obj
 0001:00088690       opnd_get_segment_selector  0000000071089690 f   opnd_shared.c.obj
 0001:000886b0       opnd_get_mem_instr_disp    00000000710896b0 f   opnd_shared.c.obj
 0001:000886b0       opnd_get_shift             00000000710896b0 f   opnd_shared.c.obj
 0001:000886c0       opnd_create_far_base_disp_ex 00000000710896c0 f   opnd_shared.c.obj
 0001:00088720       opnd_create_far_base_disp  0000000071089720 f   opnd_shared.c.obj
 0001:00088780       opnd_get_base              0000000071089780 f   opnd_shared.c.obj
 0001:00088790       opnd_get_disp              0000000071089790 f   opnd_shared.c.obj
 0001:000887a0       opnd_get_index             00000000710897a0 f   opnd_shared.c.obj
 0001:000887b0       opnd_get_scale             00000000710897b0 f   opnd_shared.c.obj
 0001:000887c0       opnd_get_segment           00000000710897c0 f   opnd_shared.c.obj
 0001:000887d0       opnd_is_disp_encode_zero   00000000710897d0 f   opnd_shared.c.obj
 0001:000887f0       opnd_is_disp_force_full    00000000710897f0 f   opnd_shared.c.obj
 0001:00088810       opnd_is_disp_short_addr    0000000071089810 f   opnd_shared.c.obj
 0001:00088830       opnd_set_disp              0000000071089830 f   opnd_shared.c.obj
 0001:00088840       opnd_set_disp_ex           0000000071089840 f   opnd_shared.c.obj
 0001:00088870       opnd_create_far_abs_addr   0000000071089870 f   opnd_shared.c.obj
 0001:00088960       opnd_create_far_rel_addr   0000000071089960 f   opnd_shared.c.obj
 0001:00088980       opnd_get_addr              0000000071089980 f   opnd_shared.c.obj
 0001:00088a00       opnd_is_memory_reference   0000000071089a00 f   opnd_shared.c.obj
 0001:00088a60       opnd_is_far_memory_reference 0000000071089a60 f   opnd_shared.c.obj
 0001:00088af0       opnd_is_near_memory_reference 0000000071089af0 f   opnd_shared.c.obj
 0001:00088b80       opnd_num_regs_used         0000000071089b80 f   opnd_shared.c.obj
 0001:00088c10       opnd_get_reg_used          0000000071089c10 f   opnd_shared.c.obj
 0001:00088cc0       opnd_uses_reg              0000000071089cc0 f   opnd_shared.c.obj
 0001:00088db0       opnd_same_address          0000000071089db0 f   opnd_shared.c.obj
 0001:00088fc0       opnd_share_reg             0000000071089fc0 f   opnd_shared.c.obj
 0001:000890d0       opnd_size_in_bytes         000000007108a0d0 f   opnd_shared.c.obj
 0001:00089300       opnd_size_in_bits          000000007108a300 f   opnd_shared.c.obj
 0001:000893f0       opnd_size_from_bytes       000000007108a3f0 f   opnd_shared.c.obj
 0001:000895e0       get_register_name          000000007108a5e0 f   opnd_shared.c.obj
 0001:000895f0       reg_to_pointer_sized       000000007108a5f0 f   opnd_shared.c.obj
 0001:00089600       reg_32_to_8                000000007108a600 f   opnd_shared.c.obj
 0001:00089620       reg_32_to_64               000000007108a620 f   opnd_shared.c.obj
 0001:00089630       reg_64_to_32               000000007108a630 f   opnd_shared.c.obj
 0001:00089630       reg_32_to_16               000000007108a630 f   opnd_shared.c.obj
 0001:00089640       reg_is_extended            000000007108a640 f   opnd_shared.c.obj
 0001:000896c0       reg_32_to_opsz             000000007108a6c0 f   opnd_shared.c.obj
 0001:00089700       reg_resize_to_opsz         000000007108a700 f   opnd_shared.c.obj
 0001:00089750       reg_parameter_num          000000007108a750 f   opnd_shared.c.obj
 0001:00089780       reg_overlap                000000007108a780 f   opnd_shared.c.obj
 0001:000897d0       reg_get_bits               000000007108a7d0 f   opnd_shared.c.obj
 0001:000898c0       reg_get_size               000000007108a8c0 f   opnd_shared.c.obj
 0001:00089960       opnd_create_tls_slot       000000007108a960 f   opnd_shared.c.obj
 0001:00089990       opnd_is_reg_32bit          000000007108a990 f   opnd_shared.c.obj
 0001:000899b0       opnd_is_reg_pointer_sized  000000007108a9b0 f   opnd_shared.c.obj
 0001:000899b0       opnd_is_reg_64bit          000000007108a9b0 f   opnd_shared.c.obj
 0001:000899d0       opnd_get_size              000000007108a9d0 f   opnd_shared.c.obj
 0001:00089a60       opnd_create_base_disp_ex   000000007108aa60 f   opnd_shared.c.obj
 0001:00089af0       opnd_create_base_disp      000000007108aaf0 f   opnd_shared.c.obj
 0001:00089b60       opnd_create_abs_addr       000000007108ab60 f   opnd_shared.c.obj
 0001:00089c20       opnd_create_rel_addr       000000007108ac20 f   opnd_shared.c.obj
 0001:00089c50       opnd_replace_reg           000000007108ac50 f   opnd_shared.c.obj
 0001:00089ef0       opnd_same                  000000007108aef0 f   opnd_shared.c.obj
 0001:0008a2f0       opnd_defines_use           000000007108b2f0 f   opnd_shared.c.obj
 0001:0008a660       opnd_shrink_to_16_bits     000000007108b660 f   opnd_shared.c.obj
 0001:0008a920       opnd_shrink_to_32_bits     000000007108b920 f   opnd_shared.c.obj
 0001:0008abe0       reg_get_value_priv         000000007108bbe0 f   opnd_shared.c.obj
 0001:0008ad00       reg_get_value              000000007108bd00 f   opnd_shared.c.obj
 0001:0008ad30       reg_get_value_ex           000000007108bd30 f   opnd_shared.c.obj
 0001:0008ae40       reg_set_value_priv         000000007108be40 f   opnd_shared.c.obj
 0001:0008ae70       reg_set_value              000000007108be70 f   opnd_shared.c.obj
 0001:0008aec0       opnd_compute_address_helper 000000007108bec0 f   opnd_shared.c.obj
 0001:0008b020       opnd_compute_address_priv  000000007108c020 f   opnd_shared.c.obj
 0001:0008b080       opnd_compute_address       000000007108c080 f   opnd_shared.c.obj
 0001:0008b0f0       opnd_create_dcontext_field_sz 000000007108c0f0 f   opnd_shared.c.obj
 0001:0008b180       opnd_create_dcontext_field 000000007108c180 f   opnd_shared.c.obj
 0001:0008b210       opnd_create_dcontext_field_via_reg_sz 000000007108c210 f   opnd_shared.c.obj
 0001:0008b2d0       opnd_create_dcontext_field_via_reg 000000007108c2d0 f   opnd_shared.c.obj
 0001:0008b360       opnd_is_reg_partial        000000007108c360 f   opnd_shared.c.obj
 0001:0008b420       opnd_immed_float_arch      000000007108c420 f   opnd.c.obj
 0001:0008b490       opnd_get_reg_dcontext_offs 000000007108c490 f   opnd.c.obj
 0001:0008b550       opnd_create_sized_tls_slot 000000007108c550 f   opnd.c.obj
 0001:0008b5a0       instr_create               000000007108c5a0 f   instr_shared.c.obj
 0001:0008b600       instr_init                 000000007108c600 f   instr_shared.c.obj
 0001:0008b640       instr_free                 000000007108c640 f   instr_shared.c.obj
 0001:0008b6e0       instr_mem_usage            000000007108c6e0 f   instr_shared.c.obj
 0001:0008b720       instr_reset                000000007108c720 f   instr_shared.c.obj
 0001:0008b760       instr_valid                000000007108c760 f   instr_shared.c.obj
 0001:0008b770       instr_opcode_valid         000000007108c770 f   instr_shared.c.obj
 0001:0008b790       instr_get_prefix_flag      000000007108c790 f   instr_shared.c.obj
 0001:0008b7a0       instr_get_prefixes         000000007108c7a0 f   instr_shared.c.obj
 0001:0008b7b0       instr_get_predicate        000000007108c7b0 f   instr_shared.c.obj
 0001:0008b7c0       instr_set_predicate        000000007108c7c0 f   instr_shared.c.obj
 0001:0008b7d0       instr_branch_special_exit  000000007108c7d0 f   instr_shared.c.obj
 0001:0008b7e0       instr_branch_set_special_exit 000000007108c7e0 f   instr_shared.c.obj
 0001:0008b800       instr_exit_branch_type     000000007108c800 f   instr_shared.c.obj
 0001:0008b810       instr_exit_branch_set_type 000000007108c810 f   instr_shared.c.obj
 0001:0008b820       instr_set_app              000000007108c820 f   instr_shared.c.obj
 0001:0008b830       instr_set_meta             000000007108c830 f   instr_shared.c.obj
 0001:0008b830       instr_set_meta_may_fault   000000007108c830 f   instr_shared.c.obj
 0001:0008b840       instr_set_ok_to_emit       000000007108c840 f   instr_shared.c.obj
 0001:0008b860       instr_eflags_conditionally 000000007108c860 f   instr_shared.c.obj
 0001:0008b8d0       instr_get_opcode_eflags    000000007108c8d0 f   instr_shared.c.obj
 0001:0008b900       instr_set_eflags_valid     000000007108c900 f   instr_shared.c.obj
 0001:0008b920       instr_set_arith_flags_valid 000000007108c920 f   instr_shared.c.obj
 0001:0008b940       instr_set_operands_valid   000000007108c940 f   instr_shared.c.obj
 0001:0008b960       instr_free_raw_bits        000000007108c960 f   instr_shared.c.obj
 0001:0008b990       instr_set_translation      000000007108c990 f   instr_shared.c.obj
 0001:0008b9e0       instr_get_app_pc           000000007108c9e0 f   instr_shared.c.obj
 0001:0008b9e0       instr_get_translation      000000007108c9e0 f   instr_shared.c.obj
 0001:0008b9f0       instr_get_raw_byte         000000007108c9f0 f   instr_shared.c.obj
 0001:0008ba00       instr_get_raw_word         000000007108ca00 f   instr_shared.c.obj
 0001:0008ba10       instr_rip_rel_valid        000000007108ca10 f   instr_shared.c.obj
 0001:0008ba30       instr_set_rip_rel_valid    000000007108ca30 f   instr_shared.c.obj
 0001:0008ba50       instr_get_rip_rel_pos      000000007108ca50 f   instr_shared.c.obj
 0001:0008ba60       instr_set_rip_rel_pos      000000007108ca60 f   instr_shared.c.obj
 0001:0008ba70       instr_is_our_mangling      000000007108ca70 f   instr_shared.c.obj
 0001:0008ba80       instr_set_our_mangling     000000007108ca80 f   instr_shared.c.obj
 0001:0008baa0       convert_to_near_rel        000000007108caa0 f   instr_shared.c.obj
 0001:0008bab0       instr_convert_short_meta_jmp_to_long 000000007108cab0 f   instr_shared.c.obj
 0001:0008bb10       instr_raw_is_tls_spill     000000007108cb10 f   instr_shared.c.obj
 0001:0008bc00       move_mm_reg_opcode         000000007108cc00 f   instr_shared.c.obj
 0001:0008bc70       instr_destroy              000000007108cc70 f   instr_shared.c.obj
 0001:0008bca0       instr_reuse                000000007108cca0 f   instr_shared.c.obj
 0001:0008bdb0       instr_is_predicated        000000007108cdb0 f   instr_shared.c.obj
 0001:0008bdc0       instr_set_ok_to_mangle     000000007108cdc0 f   instr_shared.c.obj
 0001:0008bde0       instr_is_meta_may_fault    000000007108cde0 f   instr_shared.c.obj
 0001:0008be00       instr_set_meta_no_translation 000000007108ce00 f   instr_shared.c.obj
 0001:0008be40       instr_shift_raw_bits       000000007108ce40 f   instr_shared.c.obj
 0001:0008be60       instr_set_raw_bits_valid   000000007108ce60 f   instr_shared.c.obj
 0001:0008be80       instr_allocate_raw_bits    000000007108ce80 f   instr_shared.c.obj
 0001:0008bf30       instr_make_persistent      000000007108cf30 f   instr_shared.c.obj
 0001:0008bf50       instr_set_raw_byte         000000007108cf50 f   instr_shared.c.obj
 0001:0008bf70       instr_set_raw_bytes        000000007108cf70 f   instr_shared.c.obj
 0001:0008bfa0       instr_set_raw_word         000000007108cfa0 f   instr_shared.c.obj
 0001:0008bfc0       instr_decode               000000007108cfc0 f   instr_shared.c.obj
 0001:0008c090       instr_decode_with_current_dcontext 000000007108d090 f   instr_shared.c.obj
 0001:0008c0c0       instr_get_branch_target_pc 000000007108d0c0 f   instr_shared.c.obj
 0001:0008c0f0       instr_is_call              000000007108d0f0 f   instr_shared.c.obj
 0001:0008c120       instr_is_cbr               000000007108d120 f   instr_shared.c.obj
 0001:0008c150       instr_is_mbr               000000007108d150 f   instr_shared.c.obj
 0001:0008c180       instr_is_ubr               000000007108d180 f   instr_shared.c.obj
 0001:0008c1b0       instr_is_exit_cti          000000007108d1b0 f   instr_shared.c.obj
 0001:0008c230       instr_is_cti               000000007108d230 f   instr_shared.c.obj
 0001:0008c290       instr_get_interrupt_number 000000007108d290 f   instr_shared.c.obj
 0001:0008c2f0       instr_is_label             000000007108d2f0 f   instr_shared.c.obj
 0001:0008c4a0       instr_is_tls_xcx_spill     000000007108d4a0 f   instr_shared.c.obj
 0001:0008c520       instr_is_reg_spill_or_restore 000000007108d520 f   instr_shared.c.obj
 0001:0008c5a0       instr_is_DR_reg_spill_or_restore 000000007108d5a0 f   instr_shared.c.obj
 0001:0008c630       instr_clone                000000007108d630 f   instr_shared.c.obj
 0001:0008c880       instr_get_opcode           000000007108d880 f   instr_shared.c.obj
 0001:0008c8a0       instr_set_opcode           000000007108d8a0 f   instr_shared.c.obj
 0001:0008c8b0       instr_get_instr_info       000000007108d8b0 f   instr_shared.c.obj
 0001:0008c900       instr_get_src              000000007108d900 f   instr_shared.c.obj
 0001:0008c960       instr_get_dst              000000007108d960 f   instr_shared.c.obj
 0001:0008c9c0       instr_set_num_opnds        000000007108d9c0 f   instr_shared.c.obj
 0001:0008ca30       instr_set_src              000000007108da30 f   instr_shared.c.obj
 0001:0008ca80       instr_set_dst              000000007108da80 f   instr_shared.c.obj
 0001:0008cab0       instr_remove_srcs          000000007108dab0 f   instr_shared.c.obj
 0001:0008cbd0       instr_remove_dsts          000000007108dbd0 f   instr_shared.c.obj
 0001:0008ccb0       instr_get_target           000000007108dcb0 f   instr_shared.c.obj
 0001:0008ccf0       instr_set_target           000000007108dcf0 f   instr_shared.c.obj
 0001:0008cd40       instr_set_prefix_flag      000000007108dd40 f   instr_shared.c.obj
 0001:0008cd50       instr_set_prefixes         000000007108dd50 f   instr_shared.c.obj
 0001:0008cd60       instr_get_eflags           000000007108dd60 f   instr_shared.c.obj
 0001:0008ce50       instr_get_arith_flags      000000007108de50 f   instr_shared.c.obj
 0001:0008ce70       instr_set_raw_bits         000000007108de70 f   instr_shared.c.obj
 0001:0008cea0       instr_length               000000007108dea0 f   instr_shared.c.obj
 0001:0008cef0       instr_expand               000000007108def0 f   instr_shared.c.obj
 0001:0008d110       instr_get_next_expanded    000000007108e110 f   instr_shared.c.obj
 0001:0008d130       instr_get_prev_expanded    000000007108e130 f   instr_shared.c.obj
 0001:0008d150       instrlist_first_expanded   000000007108e150 f   instr_shared.c.obj
 0001:0008d190       instr_shrink_to_16_bits    000000007108e190 f   instr_shared.c.obj
 0001:0008d360       instr_shrink_to_32_bits    000000007108e360 f   instr_shared.c.obj
 0001:0008d4b0       instr_reg_in_dst           000000007108e4b0 f   instr_shared.c.obj
 0001:0008d540       instr_reg_in_src           000000007108e540 f   instr_shared.c.obj
 0001:0008d600       instr_reads_from_reg       000000007108e600 f   instr_shared.c.obj
 0001:0008d6f0       instr_writes_to_reg        000000007108e6f0 f   instr_shared.c.obj
 0001:0008d7b0       instr_writes_to_exact_reg  000000007108e7b0 f   instr_shared.c.obj
 0001:0008d880       instr_replace_src_opnd     000000007108e880 f   instr_shared.c.obj
 0001:0008d9d0       instr_same                 000000007108e9d0 f   instr_shared.c.obj
 0001:0008dbd0       instr_reads_memory         000000007108ebd0 f   instr_shared.c.obj
 0001:0008dc80       instr_writes_memory        000000007108ec80 f   instr_shared.c.obj
 0001:0008dd10       instr_zeroes_ymmh          000000007108ed10 f   instr_shared.c.obj
 0001:0008ddc0       instr_get_rel_addr_target  000000007108edc0 f   instr_shared.c.obj
 0001:0008df20       instr_has_rel_addr_reference 000000007108ef20 f   instr_shared.c.obj
 0001:0008df30       instr_get_rel_addr_dst_idx 000000007108ef30 f   instr_shared.c.obj
 0001:0008dfc0       instr_get_rel_addr_src_idx 000000007108efc0 f   instr_shared.c.obj
 0001:0008e250       instr_compute_address_ex   000000007108f250 f   instr_shared.c.obj
 0001:0008e2c0       instr_compute_address_ex_pos 000000007108f2c0 f   instr_shared.c.obj
 0001:0008e330       instr_compute_address      000000007108f330 f   instr_shared.c.obj
 0001:0008e3a0       instr_memory_reference_size 000000007108f3a0 f   instr_shared.c.obj
 0001:0008e510       decode_memory_reference_size 000000007108f510 f   instr_shared.c.obj
 0001:0008e610       instr_get_label_data_area  000000007108f610 f   instr_shared.c.obj
 0001:0008e630       instr_set_branch_target_pc 000000007108f630 f   instr_shared.c.obj
 0001:0008e680       instr_uses_fp_reg          000000007108f680 f   instr_shared.c.obj
 0001:0008e820       instr_build                000000007108f820 f   instr_shared.c.obj
 0001:0008e900       instr_build_bits           000000007108f900 f   instr_shared.c.obj
 0001:0008e990       instr_uses_reg             000000007108f990 f   instr_shared.c.obj
 0001:0008e9d0       instr_create_0dst_0src     000000007108f9d0 f   instr_shared.c.obj
 0001:0008ea50       instr_create_0dst_1src     000000007108fa50 f   instr_shared.c.obj
 0001:0008eb00       instr_create_0dst_2src     000000007108fb00 f   instr_shared.c.obj
 0001:0008ebf0       instr_create_0dst_3src     000000007108fbf0 f   instr_shared.c.obj
 0001:0008ed10       instr_create_0dst_4src     000000007108fd10 f   instr_shared.c.obj
 0001:0008ee50       instr_create_1dst_0src     000000007108fe50 f   instr_shared.c.obj
 0001:0008ef10       instr_create_1dst_1src     000000007108ff10 f   instr_shared.c.obj
 0001:0008f000       instr_create_1dst_2src     0000000071090000 f   instr_shared.c.obj
 0001:0008f130       instr_create_1dst_3src     0000000071090130 f   instr_shared.c.obj
 0001:0008f280       instr_create_1dst_4src     0000000071090280 f   instr_shared.c.obj
 0001:0008f3f0       instr_create_1dst_5src     00000000710903f0 f   instr_shared.c.obj
 0001:0008f590       instr_create_2dst_0src     0000000071090590 f   instr_shared.c.obj
 0001:0008f680       instr_create_2dst_1src     0000000071090680 f   instr_shared.c.obj
 0001:0008f7a0       instr_create_2dst_2src     00000000710907a0 f   instr_shared.c.obj
 0001:0008f8f0       instr_create_2dst_3src     00000000710908f0 f   instr_shared.c.obj
 0001:0008fa60       instr_create_2dst_4src     0000000071090a60 f   instr_shared.c.obj
 0001:0008fc00       instr_create_2dst_5src     0000000071090c00 f   instr_shared.c.obj
 0001:0008fdc0       instr_create_3dst_0src     0000000071090dc0 f   instr_shared.c.obj
 0001:0008fee0       instr_create_3dst_2src     0000000071090ee0 f   instr_shared.c.obj
 0001:00090050       instr_create_3dst_3src     0000000071091050 f   instr_shared.c.obj
 0001:000901f0       instr_create_3dst_4src     00000000710911f0 f   instr_shared.c.obj
 0001:000903b0       instr_create_3dst_5src     00000000710913b0 f   instr_shared.c.obj
 0001:00090590       instr_create_4dst_1src     0000000071091590 f   instr_shared.c.obj
 0001:000906f0       instr_create_4dst_4src     00000000710916f0 f   instr_shared.c.obj
 0001:000908d0       instr_create_Ndst_Msrc_varsrc 00000000710918d0 f   instr_shared.c.obj
 0001:00090a60       instr_create_Ndst_Msrc_vardst 0000000071091a60 f   instr_shared.c.obj
 0001:00090bd0       instr_create_raw_1byte     0000000071091bd0 f   instr_shared.c.obj
 0001:00090c00       instr_create_raw_2bytes    0000000071091c00 f   instr_shared.c.obj
 0001:00090c50       instr_create_raw_3bytes    0000000071091c50 f   instr_shared.c.obj
 0001:00090cb0       instr_create_restore_from_dcontext 0000000071091cb0 f   instr_shared.c.obj
 0001:00090e10       instr_create_save_to_dcontext 0000000071091e10 f   instr_shared.c.obj
 0001:00090f70       instr_create_restore_from_dc_via_reg 0000000071091f70 f   instr_shared.c.obj
 0001:000910f0       instr_create_save_to_dc_via_reg 00000000710920f0 f   instr_shared.c.obj
 0001:00091350       instr_create_save_immed32_to_dcontext 0000000071092350 f   instr_shared.c.obj
 0001:000913a0       instr_create_save_immed16_to_dcontext 00000000710923a0 f   instr_shared.c.obj
 0001:000913f0       instr_create_save_immed_to_dc_via_reg 00000000710923f0 f   instr_shared.c.obj
 0001:00091500       instr_create_jump_via_dcontext 0000000071092500 f   instr_shared.c.obj
 0001:000915a0       instr_create_restore_dynamo_stack 00000000710925a0 f   instr_shared.c.obj
 0001:000915b0       instr_create_save_to_tls   00000000710925b0 f   instr_shared.c.obj
 0001:000916a0       instr_create_restore_from_tls 00000000710926a0 f   instr_shared.c.obj
 0001:00091790       instr_create_save_to_reg   0000000071092790 f   instr_shared.c.obj
 0001:00091870       instr_create_restore_from_reg 0000000071092870 f   instr_shared.c.obj
 0001:00091ac0       instr_set_x86_mode         0000000071092ac0 f   instr.c.obj
 0001:00091ae0       instr_get_x86_mode         0000000071092ae0 f   instr.c.obj
 0001:00091af0       instr_set_isa_mode         0000000071092af0 f   instr.c.obj
 0001:00091b10       instr_get_isa_mode         0000000071092b10 f   instr.c.obj
 0001:00091b20       instr_length_arch          0000000071092b20 f   instr.c.obj
 0001:00091c50       opc_is_not_a_real_memory_load 0000000071092c50 f   instr.c.obj
 0001:00091c60       instr_compute_address_VSIB 0000000071092c60 f   instr.c.obj
 0001:00091e80       instr_branch_type          0000000071092e80 f   instr.c.obj
 0001:00091fc0       instr_is_mov               0000000071092fc0 f   instr.c.obj
 0001:00091ff0       instr_is_call_arch         0000000071092ff0 f   instr.c.obj
 0001:00092010       instr_is_call_direct       0000000071093010 f   instr.c.obj
 0001:00092040       instr_is_near_call_direct  0000000071093040 f   instr.c.obj
 0001:00092060       instr_is_call_indirect     0000000071093060 f   instr.c.obj
 0001:00092090       instr_is_return            0000000071093090 f   instr.c.obj
 0001:000920c0       instr_is_cbr_arch          00000000710930c0 f   instr.c.obj
 0001:000920f0       instr_is_mbr_arch          00000000710930f0 f   instr.c.obj
 0001:00092120       instr_is_far_cti           0000000071093120 f   instr.c.obj
 0001:00092160       instr_is_far_abs_cti       0000000071093160 f   instr.c.obj
 0001:00092190       instr_is_ubr_arch          0000000071093190 f   instr.c.obj
 0001:000921b0       instr_is_near_ubr          00000000710931b0 f   instr.c.obj
 0001:000921e0       instr_is_cti_short         00000000710931e0 f   instr.c.obj
 0001:00092260       instr_is_cti_loop          0000000071093260 f   instr.c.obj
 0001:00092280       instr_is_cti_short_rewrite 0000000071093280 f   instr.c.obj
 0001:00092330       instr_is_interrupt         0000000071093330 f   instr.c.obj
 0001:00092360       instr_is_mov_constant      0000000071093360 f   instr.c.obj
 0001:00092430       instr_is_prefetch          0000000071093430 f   instr.c.obj
 0001:00092480       instr_is_floating_ex       0000000071093480 f   instr.c.obj
 0001:00092820       instr_is_floating          0000000071093820 f   instr.c.obj
 0001:00092830       instr_saves_float_pc       0000000071093830 f   instr.c.obj
 0001:00092d20       instr_is_sse3              0000000071093d20 f   instr.c.obj
 0001:00092d40       instr_is_3DNow             0000000071093d40 f   instr.c.obj
 0001:00092d80       instr_is_ssse3             0000000071093d80 f   instr.c.obj
 0001:00092da0       instr_is_sse41             0000000071093da0 f   instr.c.obj
 0001:00092dd0       instr_is_sse42             0000000071093dd0 f   instr.c.obj
 0001:00092e10       instr_is_sse4A             0000000071093e10 f   instr.c.obj
 0001:00092e30       instr_is_mov_imm_to_tos    0000000071093e30 f   instr.c.obj
 0001:00092f30       instr_is_undefined         0000000071093f30 f   instr.c.obj
 0001:00092f70       instr_invert_cbr           0000000071093f70 f   instr.c.obj
 0001:00093500       instr_jcc_taken            0000000071094500 f   instr.c.obj
 0001:00093520       instr_cmovcc_to_jcc        0000000071094520 f   instr.c.obj
 0001:000935b0       instr_cmovcc_triggered     00000000710945b0 f   instr.c.obj
 0001:000935e0       instr_predicate_triggered  00000000710945e0 f   instr.c.obj
 0001:00093760       instr_predicate_writes_eflags 0000000071094760 f   instr.c.obj
 0001:00093760       instr_predicate_reads_srcs 0000000071094760 f   instr.c.obj
 0001:00093770       instr_predicate_is_cond    0000000071094770 f   instr.c.obj
 0001:00093780       reg_is_gpr                 0000000071094780 f   instr.c.obj
 0001:00093790       reg_is_segment             0000000071094790 f   instr.c.obj
 0001:000937a0       reg_is_ymm                 00000000710947a0 f   instr.c.obj
 0001:000937b0       reg_is_xmm                 00000000710947b0 f   instr.c.obj
 0001:000937d0       reg_is_mmx                 00000000710947d0 f   instr.c.obj
 0001:000937e0       reg_is_fp                  00000000710947e0 f   instr.c.obj
 0001:000937f0       opnd_same_sizes_ok         00000000710947f0 f   instr.c.obj
 0001:00093890       instr_create_popa          0000000071094890 f   instr.c.obj
 0001:00093a80       instr_create_pusha         0000000071094a80 f   instr.c.obj
 0001:00093c60       instr_create_nbyte_nop     0000000071094c60 f   instr.c.obj
 0001:00093cd0       instr_is_nop               0000000071094cd0 f   instr.c.obj
 0001:00093f40       instr_is_syscall           0000000071094f40 f   instr.c.obj
 0001:00094090       instr_is_mmx               0000000071095090 f   instr.c.obj
 0001:000940e0       instr_is_sse               00000000710950e0 f   instr.c.obj
 0001:00094130       instr_is_sse2              0000000071095130 f   instr.c.obj
 0001:00094180       instr_is_sse_or_sse2       0000000071095180 f   instr.c.obj
 0001:00094200       instr_cbr_taken            0000000071095200 f   instr.c.obj
 0001:00094300       reg_is_simd                0000000071095300 f   instr.c.obj
 0001:00094330       instrlist_init             0000000071095330 f   instrlist.c.obj
 0001:00094350       instrlist_destroy          0000000071095350 f   instrlist.c.obj
 0001:00094360       instrlist_set_return_target 0000000071095360 f   instrlist.c.obj
 0001:00094360       instrlist_set_fall_through_target 0000000071095360 f   instrlist.c.obj
 0001:00094370       get_next_instr_info        0000000071095370 f   decode.c.obj
 0001:00094370       instrlist_get_return_target 0000000071095370 f   instrlist.c.obj
 0001:00094370       instrlist_get_fall_through_target 0000000071095370 f   instrlist.c.obj
 0001:00094380       instrlist_set_translation_target 0000000071095380 f   instrlist.c.obj
 0001:00094390       instrlist_get_translation_target 0000000071095390 f   instrlist.c.obj
 0001:000943a0       instrlist_set_our_mangling 00000000710953a0 f   instrlist.c.obj
 0001:000943c0       instrlist_first            00000000710953c0 f   instrlist.c.obj
 0001:000943d0       instrlist_first_app        00000000710953d0 f   instrlist.c.obj
 0001:00094410       instrlist_last_app         0000000071095410 f   instrlist.c.obj
 0001:00094450       instrlist_append           0000000071095450 f   instrlist.c.obj
 0001:00094520       instrlist_prepend          0000000071095520 f   instrlist.c.obj
 0001:00094600       instrlist_preinsert        0000000071095600 f   instrlist.c.obj
 0001:00094700       instrlist_postinsert       0000000071095700 f   instrlist.c.obj
 0001:00094800       instrlist_remove           0000000071095800 f   instrlist.c.obj
 0001:00094850       instrlist_encode_to_copy   0000000071095850 f   instrlist.c.obj
 0001:00094930       instrlist_encode           0000000071095930 f   instrlist.c.obj
 0001:000949e0       instrlist_create           00000000710959e0 f   instrlist.c.obj
 0001:00094a10       instrlist_clear            0000000071095a10 f   instrlist.c.obj
 0001:00094a90       instrlist_clear_and_destroy 0000000071095a90 f   instrlist.c.obj
 0001:00094ac0       instrlist_replace          0000000071095ac0 f   instrlist.c.obj
 0001:00094b30       instrlist_clone            0000000071095b30 f   instrlist.c.obj
 0001:00094d30       dr_set_isa_mode            0000000071095d30 f   decode_shared.c.obj
 0001:00094dc0       dr_get_isa_mode            0000000071095dc0 f   decode_shared.c.obj
 0001:00094e00       decode_init                0000000071095e00 f   decode_shared.c.obj
 0001:00094e10       is_isa_mode_legal          0000000071095e10 f   decode.c.obj
 0001:00094e20       canonicalize_pc_target     0000000071095e20 f   decode.c.obj
 0001:00094e20       dr_app_pc_as_jump_target   0000000071095e20 f   decode.c.obj
 0001:00094e20       dr_app_pc_as_load_target   0000000071095e20 f   decode.c.obj
 0001:00094e30       set_x86_mode               0000000071095e30 f   decode.c.obj
 0001:00094e70       get_x86_mode               0000000071095e70 f   decode.c.obj
 0001:00094e90       resolve_var_reg_size       0000000071095e90 f   decode.c.obj
 0001:00094ed0       resolve_variable_size      0000000071095ed0 f   decode.c.obj
 0001:000952c0       expand_subreg_size         00000000710962c0 f   decode.c.obj
 0001:00095360       resolve_variable_size_dc   0000000071096360 f   decode.c.obj
 0001:000953c0       resolve_addr_size          00000000710963c0 f   decode.c.obj
 0001:000953f0       optype_is_indir_reg        00000000710963f0 f   decode.c.obj
 0001:00095400       indir_var_reg_size         0000000071096400 f   decode.c.obj
 0001:00095460       indir_var_reg_offs_factor  0000000071096460 f   decode.c.obj
 0001:00097110       resolve_var_reg            0000000071098110 f   decode.c.obj
 0001:00097ca0       decode_predicate_from_instr_info 0000000071098ca0 f   decode.c.obj
 0001:00097ce0       decode_eflags_usage        0000000071098ce0 f   decode.c.obj
 0001:000981c0       decode                     00000000710991c0 f   decode.c.obj
 0001:000981d0       decode_from_copy           00000000710991d0 f   decode.c.obj
 0001:000981e0       decode_first_opcode_byte   00000000710991e0 f   decode.c.obj
 0001:00098200       decode_opcode_name         0000000071099200 f   decode.c.obj
 0001:00098220       opcode_to_encoding_info    0000000071099220 f   decode.c.obj
 0001:00098230       get_encoding_info          0000000071099230 f   encode_shared.c.obj
 0001:000982d0       instr_encode_ignore_reachability 00000000710992d0 f   encode_shared.c.obj
 0001:000982f0       instr_encode_check_reachability 00000000710992f0 f   encode_shared.c.obj
 0001:00098310       instr_encode_to_copy       0000000071099310 f   encode_shared.c.obj
 0001:00098330       instr_encode               0000000071099330 f   encode_shared.c.obj
 0001:00098350       instr_is_encoding_possible 0000000071099350 f   encode_shared.c.obj
 0001:0009a020       instr_info_extra_opnds     000000007109b020 f   encode.c.obj
 0001:0009b3e0       encoding_possible          000000007109c3e0 f   encode.c.obj
 0001:0009b470       decode_info_init_for_instr 000000007109c470 f   encode.c.obj
 0001:0009b4b0       instr_info_opnd_type       000000007109c4b0 f   encode.c.obj
 0001:0009c4a0       copy_and_re_relativize_raw_instr 000000007109d4a0 f   encode.c.obj
 0001:0009c680       instr_encode_arch          000000007109d680 f   encode.c.obj
 0001:0009cca0       disassemble_options_init   000000007109dca0 f   disassemble_shared.c.obj
 0001:0009ccf0       disassemble_set_syntax     000000007109dcf0 f   disassemble_shared.c.obj
 0001:0009cd50       reg_disassemble            000000007109dd50 f   disassemble_shared.c.obj
 0001:0009dd80       internal_opnd_disassemble  000000007109ed80 f   disassemble_shared.c.obj
 0001:0009e390       opnd_disassemble           000000007109f390 f   disassemble_shared.c.obj
 0001:0009e3f0       opnd_disassemble_to_buffer 000000007109f3f0 f   disassemble_shared.c.obj
 0001:0009ee00       instr_disassemble          000000007109fe00 f   disassemble_shared.c.obj
 0001:0009ee50       instr_disassemble_to_buffer 000000007109fe50 f   disassemble_shared.c.obj
 0001:0009ef40       disassemble_app_bb         000000007109ff40 f   disassemble_shared.c.obj
 0001:0009f250       dump_callstack             00000000710a0250 f   disassemble_shared.c.obj
 0001:0009f2b0       dump_callstack_to_buffer   00000000710a02b0 f   disassemble_shared.c.obj
 0001:0009f2d0       dump_dr_callstack          00000000710a02d0 f   disassemble_shared.c.obj
 0001:0009f510       disassemble                00000000710a0510 f   disassemble_shared.c.obj
 0001:0009f640       disassemble_with_bytes     00000000710a0640 f   disassemble_shared.c.obj
 0001:0009f820       disassemble_with_info      00000000710a0820 f   disassemble_shared.c.obj
 0001:0009f8a0       disassemble_from_copy      00000000710a08a0 f   disassemble_shared.c.obj
 0001:0009f930       disassemble_to_buffer      00000000710a0930 f   disassemble_shared.c.obj
 0001:000a02c0       disassemble_fragment_body  00000000710a12c0 f   disassemble_shared.c.obj
 0001:000a02e0       instrlist_disassemble      00000000710a12e0 f   disassemble_shared.c.obj
 0001:000a0750       print_bytes_to_buffer      00000000710a1750 f   disassemble.c.obj
 0001:000a0870       print_extra_bytes_to_buffer 00000000710a1870 f   disassemble.c.obj
 0001:000a0920       opnd_base_disp_scale_disassemble 00000000710a1920 f   disassemble.c.obj
 0001:000a0960       opnd_is_immed_int64        00000000710a1960 f   opnd_shared.c.obj
 0001:000a0960       opnd_disassemble_arch      00000000710a1960 f   disassemble.c.obj
 0001:000a0960       reg_is_stolen              00000000710a1960 f   opnd.c.obj
 0001:000a0960       use_cbr_fallthrough_short  00000000710a1960 f   link.c.obj
 0001:000a0960       instr_is_wow64_syscall     00000000710a1960 f   instr.c.obj
 0001:000a0960       client_clean_call_is_thread_private 00000000710a1960 f   emit_utils_shared.c.obj
 0001:000a0960       ignorable_system_call      00000000710a1960 f   syscall.c.obj
 0001:000a0960       special_ibl_xfer_is_thread_private 00000000710a1960 f   emit_utils_shared.c.obj
 0001:000a0960       instr_is_exclusive_store   00000000710a1960 f   instr.c.obj
 0001:000a0970       opnd_disassemble_noimplicit 00000000710a1970 f   disassemble.c.obj
 0001:000a0e70       print_opcode_name          00000000710a1e70 f   disassemble.c.obj
 0001:000a0ef0       print_instr_prefixes       00000000710a1ef0 f   disassemble.c.obj
 0001:000a10f0       decode_sizeof              00000000710a20f0 f   decode_fast.c.obj
 0001:000a1680       decode_cti                 00000000710a2680 f   decode_fast.c.obj
 0001:000a1fa0       decode_next_pc             00000000710a2fa0 f   decode_fast.c.obj
 0001:000a1fd0       decode_raw                 00000000710a2fd0 f   decode_fast.c.obj
 0001:000a2060       interp_exit                00000000710a3060 f   interp.c.obj
 0001:000a2070       set_reached_image_entry    00000000710a3070 f   interp.c.obj
 0001:000a20c0       reached_image_entry_yet    00000000710a30c0 f   interp.c.obj
 0001:000a20d0       must_not_be_inlined        00000000710a30d0 f   interp.c.obj
 0001:000a2a70       instr_is_call_sysenter_pattern 00000000710a3a70 f   interp.c.obj
 0001:000a3430       bb_process_IAT_convertible_indcall 00000000710a4430 f   interp.c.obj
 0001:000a3640       bb_build_abort             00000000710a4640 f   interp.c.obj
 0001:000a38b0       expand_should_set_translation 00000000710a48b0 f   interp.c.obj
 0001:000a41b0       instr_is_trace_cmp         00000000710a51b0 f   interp.c.obj
 0001:000a4f80       append_trace_speculate_last_ibl 00000000710a5f80 f   interp.c.obj
 0001:000a5120       instr_eflags_to_fragment_eflags 00000000710a6120 f   interp.c.obj
 0001:000a5140       forward_eflags_analysis    00000000710a6140 f   interp.c.obj
 0001:000a51d0       decode_fragment            00000000710a61d0 f   interp.c.obj
 0001:000a5e90       decode_fragment_exact      00000000710a6e90 f   interp.c.obj
 0001:000a5ef0       shift_ctis_in_fragment     00000000710a6ef0 f   interp.c.obj
 0001:000a6140       emulate                    00000000710a7140 f   interp.c.obj
 0001:000a7e00       build_app_bb_ilist         00000000710a8e00 f   interp.c.obj
 0001:000a7e90       decode_as_bb               00000000710a8e90 f   interp.c.obj
 0001:000a7f30       find_app_bb_end            00000000710a8f30 f   interp.c.obj
 0001:000a7fe0       app_bb_overlaps            00000000710a8fe0 f   interp.c.obj
 0001:000a80f0       build_basic_block_fragment 00000000710a90f0 f   interp.c.obj
 0001:000a8760       recreate_bb_ilist          00000000710a9760 f   interp.c.obj
 0001:000a88f0       extend_trace               00000000710a98f0 f   interp.c.obj
 0001:000a8a50       mangle_trace               00000000710a9a50 f   interp.c.obj
 0001:000a9130       recreate_fragment_ilist    00000000710aa130 f   interp.c.obj
 0001:000a97e0       decode_trace               00000000710aa7e0 f   interp.c.obj
 0001:000a9880       set_cache_size             00000000710aa880 f   proc_shared.c.obj
 0001:000a9900       proc_init                  00000000710aa900 f   proc_shared.c.obj
 0001:000a9920       proc_get_vendor            00000000710aa920 f   proc_shared.c.obj
 0001:000a9930       proc_set_vendor            00000000710aa930 f   proc_shared.c.obj
 0001:000a99b0       proc_get_family            00000000710aa9b0 f   proc_shared.c.obj
 0001:000a99c0       proc_get_type              00000000710aa9c0 f   proc_shared.c.obj
 0001:000a99d0       proc_get_model             00000000710aa9d0 f   proc_shared.c.obj
 0001:000a99e0       proc_get_stepping          00000000710aa9e0 f   proc_shared.c.obj
 0001:000a99f0       proc_get_all_feature_bits  00000000710aa9f0 f   proc_shared.c.obj
 0001:000a9a00       proc_get_brand_string      00000000710aaa00 f   proc_shared.c.obj
 0001:000a9a10       proc_get_L1_icache_size    00000000710aaa10 f   proc_shared.c.obj
 0001:000a9a20       proc_get_L1_dcache_size    00000000710aaa20 f   proc_shared.c.obj
 0001:000a9a30       proc_get_L2_cache_size     00000000710aaa30 f   proc_shared.c.obj
 0001:000a9a40       proc_get_cache_size_str    00000000710aaa40 f   proc_shared.c.obj
 0001:000a9a50       proc_get_cache_line_size   00000000710aaa50 f   proc_shared.c.obj
 0001:000a9a60       proc_is_cache_aligned      00000000710aaa60 f   proc_shared.c.obj
 0001:000a9a70       proc_bump_to_end_of_cache_line 00000000710aaa70 f   proc_shared.c.obj
 0001:000a9aa0       proc_get_containing_page   00000000710aaaa0 f   proc_shared.c.obj
 0001:000a9d00       proc_has_feature           00000000710aad00 f   proc.c.obj
 0001:000a9d70       proc_fpstate_save_size     00000000710aad70 f   proc.c.obj
 0001:000a9d90       proc_save_fpstate          00000000710aad90 f   proc.c.obj
 0001:000a9df0       proc_restore_fpstate       00000000710aadf0 f   proc.c.obj
 0001:000a9e40       dr_insert_save_fpstate     00000000710aae40 f   proc.c.obj
 0001:000a9f60       dr_insert_restore_fpstate  00000000710aaf60 f   proc.c.obj
 0001:000aa010       proc_avx_enabled           00000000710ab010 f   proc.c.obj
 0001:000aa260       proc_init_arch             00000000710ab260 f   proc.c.obj
 0001:000aa340       get_clean_call_switch_stack_size 00000000710ab340 f   mangle_shared.c.obj
 0001:000aa350       get_clean_call_temp_stack_size 00000000710ab350 f   mangle_shared.c.obj
 0001:000aa360       insert_get_mcontext_base   00000000710ab360 f   mangle_shared.c.obj
 0001:000aa430       prepare_for_clean_call     00000000710ab430 f   mangle_shared.c.obj
 0001:000aa6c0       cleanup_after_clean_call   00000000710ab6c0 f   mangle_shared.c.obj
 0001:000aa8c0       insert_meta_call_vargs     00000000710ab8c0 f   mangle_shared.c.obj
 0001:000aab90       insert_mov_immed_ptrsz     00000000710abb90 f   mangle_shared.c.obj
 0001:000aabf0       insert_mov_instr_addr      00000000710abbf0 f   mangle_shared.c.obj
 0001:000aac50       insert_push_immed_ptrsz    00000000710abc50 f   mangle_shared.c.obj
 0001:000aac90       insert_push_instr_addr     00000000710abc90 f   mangle_shared.c.obj
 0001:000aacd0       get_app_instr_xl8          00000000710abcd0 f   mangle_shared.c.obj
 0001:000aad00       get_call_return_address    00000000710abd00 f   mangle_shared.c.obj
 0001:000aadc0       mangle                     00000000710abdc0 f   mangle_shared.c.obj
 0001:000ab550       find_syscall_num           00000000710ac550 f   mangle_shared.c.obj
 0001:000ab770       clean_call_info_init       00000000710ac770 f   mangle_shared.c.obj
 0001:000ab7b0       mangle_init                00000000710ac7b0 f   mangle_shared.c.obj
 0001:000ab830       mangle_exit                00000000710ac830 f   mangle_shared.c.obj
 0001:000ab840       convert_to_near_rel_arch   00000000710ac840 f   mangle.c.obj
 0001:000abb10       remangle_short_rewrite     00000000710acb10 f   mangle.c.obj
 0001:000abbe0       insert_out_of_line_context_switch 00000000710acbe0 f   mangle.c.obj
 0001:000abd60       insert_clear_eflags        00000000710acd60 f   mangle.c.obj
 0001:000abf00       insert_push_all_registers  00000000710acf00 f   mangle.c.obj
 0001:000acc30       insert_pop_all_registers   00000000710adc30 f   mangle.c.obj
 0001:000ad7b0       shrink_reg_for_param       00000000710ae7b0 f   mangle.c.obj
 0001:000ad820       insert_parameter_preparation 00000000710ae820 f   mangle.c.obj
 0001:000ae760       insert_reachable_cti       00000000710af760 f   mangle.c.obj
 0001:000aea90       insert_mov_immed_arch      00000000710afa90 f   mangle.c.obj
 0001:000aecd0       insert_push_immed_arch     00000000710afcd0 f   mangle.c.obj
 0001:000af000       instr_check_xsp_mangling   00000000710b0000 f   mangle.c.obj
 0001:000af330       insert_push_retaddr        00000000710b0330 f   mangle.c.obj
 0001:000afb20       mangle_direct_call         00000000710b0b20 f   mangle.c.obj
 0001:000aff50       mangle_indirect_call       00000000710b0f50 f   mangle.c.obj
 0001:000b0380       mangle_return              00000000710b1380 f   mangle.c.obj
 0001:000b0b60       mangle_indirect_jump       00000000710b1b60 f   mangle.c.obj
 0001:000b0d50       mangle_far_direct_jump     00000000710b1d50 f   mangle.c.obj
 0001:000b0da0       mangle_syscall_arch        00000000710b1da0 f   mangle.c.obj
 0001:000b1040       mangle_interrupt           00000000710b2040 f   mangle.c.obj
 0001:000b10a0       float_pc_update            00000000710b20a0 f   mangle.c.obj
 0001:000b11f0       mangle_float_pc            00000000710b21f0 f   mangle.c.obj
 0001:000b16d0       mangle_exit_cti_prefixes   00000000710b26d0 f   mangle.c.obj
 0001:000b1780       mangle_rel_addr            00000000710b2780 f   mangle.c.obj
 0001:000b1b90       mangle_annotation_helper   00000000710b2b90 f   mangle.c.obj
 0001:000b3790       insert_selfmod_sandbox     00000000710b4790 f   mangle.c.obj
 0001:000b3b00       set_selfmod_sandbox_offsets 00000000710b4b00 f   mangle.c.obj
 0001:000b3ce0       finalize_selfmod_sandbox   00000000710b4ce0 f   mangle.c.obj
 0001:000b57b0       analyze_clean_call         00000000710b67b0 f   clean_call_opt.c.obj
 0001:000b6020       insert_inline_clean_call   00000000710b7020 f   clean_call_opt.c.obj
 0001:000b6100       clean_call_opt_init        00000000710b7100 f   clean_call_opt.c.obj
 0001:000b61b0       clean_call_opt_exit        00000000710b71b0 f   clean_call_opt.c.obj
 0001:000b61d0       get_xmm_vals               00000000710b71d0 f   x86_code.c.obj
 0001:000b6210       dynamo_start               00000000710b7210 f   x86_code.c.obj
 0001:000b62c0       auto_setup                 00000000710b72c0 f   x86_code.c.obj
 0001:000b63d0       native_get_retstack_idx    00000000710b73d0 f   x86_code.c.obj
 0001:000b63e0       nt_continue_setup          00000000710b73e0 f   x86_code.c.obj
 0001:000b6500       safe_read_fast             00000000710b7500 f   x86_code.c.obj
 0001:000b6550       is_safe_read_pc            00000000710b7550 f   x86_code.c.obj
 0001:000b6580       safe_read_resume_pc        00000000710b7580 f   x86_code.c.obj
 0001:000b6590       dynamo_auto_start          00000000710b7590 f   x86.asm.obj
 0001:000b65aa       call_switch_stack          00000000710b75aa f   x86.asm.obj
 0001:000b660e       dr_call_on_clean_stack     00000000710b760e f   x86.asm.obj
 0001:000b66b3       clone_and_swap_stack       00000000710b76b3 f   x86.asm.obj
 0001:000b66d6       dr_app_start               00000000710b76d6 f   x86.asm.obj
 0001:000b6743       dr_app_take_over           00000000710b7743 f   x86.asm.obj
 0001:000b6745       dr_app_running_under_dynamorio 00000000710b7745 f   x86.asm.obj
 0001:000b674b       dynamorio_app_take_over    00000000710b774b f   x86.asm.obj
 0001:000b67b8       cleanup_and_terminate      00000000710b77b8 f   x86.asm.obj
 0001:000b68b8       global_do_syscall_int      00000000710b78b8 f   x86.asm.obj
 0001:000b68ba       global_do_syscall_sygate_int 00000000710b78ba f   x86.asm.obj
 0001:000b68c0       global_do_syscall_sysenter 00000000710b78c0 f   x86.asm.obj
 0001:000b68c2       global_do_syscall_sygate_sysenter 00000000710b78c2 f   x86.asm.obj
 0001:000b68d0       global_do_syscall_syscall  00000000710b78d0 f   x86.asm.obj
 0001:000b68d5       global_do_syscall_wow64    00000000710b78d5 f   x86.asm.obj
 0001:000b68dd       global_do_syscall_wow64_index0 00000000710b78dd f   x86.asm.obj
 0001:000b68e7       dynamorio_syscall_int2e    00000000710b78e7 f   x86.asm.obj
 0001:000b68f4       dynamorio_syscall_sygate_int2e 00000000710b78f4 f   x86.asm.obj
 0001:000b6905       dynamorio_syscall_sysenter 00000000710b7905 f   x86.asm.obj
 0001:000b6910       dynamorio_syscall_sygate_sysenter 00000000710b7910 f   x86.asm.obj
 0001:000b6932       dynamorio_mach_syscall_fixup 00000000710b7932     x86.asm.obj
 0001:000b693e       dynamorio_syscall_syscall  00000000710b793e f   x86.asm.obj
 0001:000b6988       dynamorio_syscall_wow64    00000000710b7988 f   x86.asm.obj
 0001:000b69af       dynamorio_syscall_wow64_noedx 00000000710b79af f   x86.asm.obj
 0001:000b69e3       nt_continue_dynamo_start   00000000710b79e3 f   x86.asm.obj
 0001:000b6a44       back_from_native_retstubs  00000000710b7a44 f   x86.asm.obj
 0001:000b6a6c       back_from_native_retstubs_end 00000000710b7a6c     x86.asm.obj
 0001:000b6a6c       back_from_native           00000000710b7a6c f   x86.asm.obj
 0001:000b6ad1       dr_try_start               00000000710b7ad1 f   x86.asm.obj
 0001:000b6ad7       dr_setjmp                  00000000710b7ad7 f   x86.asm.obj
 0001:000b6b1c       dr_longjmp                 00000000710b7b1c f   x86.asm.obj
 0001:000b6b62       atomic_swap                00000000710b7b62 f   x86.asm.obj
 0001:000b6b6b       cpuid_supported            00000000710b7b6b f   x86.asm.obj
 0001:000b6b85       our_cpuid                  00000000710b7b85 f   x86.asm.obj
 0001:000b6ba6       dr_stmxcsr                 00000000710b7ba6 f   x86.asm.obj
 0001:000b6bad       dr_xgetbv                  00000000710b7bad f   x86.asm.obj
 0001:000b6bc4       dr_fxsave                  00000000710b7bc4 f   x86.asm.obj
 0001:000b6bd1       dr_fnsave                  00000000710b7bd1 f   x86.asm.obj
 0001:000b6bd8       dr_fxrstor                 00000000710b7bd8 f   x86.asm.obj
 0001:000b6be0       dr_frstor                  00000000710b7be0 f   x86.asm.obj
 0001:000b6be6       dr_fxsave32                00000000710b7be6 f   x86.asm.obj
 0001:000b6bf2       dr_fxrstor32               00000000710b7bf2 f   x86.asm.obj
 0001:000b6bf9       call_modcode_alt_stack     00000000710b7bf9 f   x86.asm.obj
 0001:000b6c53       get_segments_defg          00000000710b7c53 f   x86.asm.obj
 0001:000b6c7a       get_segments_cs_ss         00000000710b7c7a f   x86.asm.obj
 0001:000b6c8f       get_own_context_helper     00000000710b7c8f f   x86.asm.obj
 0001:000b6d17       get_xmm_caller_saved       00000000710b7d17 f   x86.asm.obj
 0001:000b6d38       get_ymm_caller_saved       00000000710b7d38 f   x86.asm.obj
 0001:000b6d5f       hashlookup_null_handler    00000000710b7d5f f   x86.asm.obj
 0001:000b6d65       safe_read_asm              00000000710b7d65 f   x86.asm.obj
 0001:000b6d8a       safe_read_asm_pre          00000000710b7d8a     x86.asm.obj
 0001:000b6d93       safe_read_asm_mid          00000000710b7d93     x86.asm.obj
 0001:000b6d9d       safe_read_asm_post         00000000710b7d9d     x86.asm.obj
 0001:000b6d9f       safe_read_asm_recover      00000000710b7d9f     x86.asm.obj
 0001:000b6da5       dynamorio_earliest_init_takeover 00000000710b7da5 f   x86.asm.obj
 0001:000b8d60       translate_x86_to_x64       00000000710b9d60 f   x86_to_x64.c.obj
 0001:000b92d0       eventlog_register          00000000710ba2d0 f   eventlog.c.obj
 0001:000b94d0       get_computer_name          00000000710ba4d0 f   eventlog.c.obj
 0001:000b9930       eventlog_deregister        00000000710ba930 f   eventlog.c.obj
 0001:000b9b30       eventlog_init              00000000710bab30 f   eventlog.c.obj
 0001:000b9b90       eventlog_fast_exit         00000000710bab90 f   eventlog.c.obj
 0001:000b9be0       eventlog_slow_exit         00000000710babe0 f   eventlog.c.obj
 0001:000b9c40       os_syslog                  00000000710bac40 f   eventlog.c.obj
 0001:000b9d60       os_terminate_wow64_stack   00000000710bad60 f   os.c.obj
 0001:000b9ec0       os_tls_calloc              00000000710baec0 f   os.c.obj
 0001:000b9ee0       os_tls_cfree               00000000710baee0 f   os.c.obj
 0001:000b9ef0       os_thread_exit             00000000710baef0 f   os.c.obj
 0001:000b9f00       os_thread_under_dynamo     00000000710baf00 f   os.c.obj
 0001:000b9f20       os_thread_not_under_dynamo 00000000710baf20 f   os.c.obj
 0001:000b9f60       os_take_over_mark_thread   00000000710baf60 f   os.c.obj
 0001:000b9fe0       os_take_over_unmark_thread 00000000710bafe0 f   os.c.obj
 0001:000ba0c0       thread_attach_translate    00000000710bb0c0 f   os.c.obj
 0001:000ba140       thread_attach_context_revert 00000000710bb140 f   os.c.obj
 0001:000ba1d0       thread_attach_exit         00000000710bb1d0 f   os.c.obj
 0001:000ba230       get_os_version             00000000710bb230 f   os.c.obj
 0001:000ba240       get_os_version_ex          00000000710bb240 f   os.c.obj
 0001:000ba270       is_in_dynamo_dll           00000000710bb270 f   os.c.obj
 0001:000ba290       prot_string                00000000710bb290 f   os.c.obj
 0001:000ba470       prot_is_writable           00000000710bb470 f   os.c.obj
 0001:000ba4a0       prot_is_executable         00000000710bb4a0 f   os.c.obj
 0001:000ba4d0       memprot_to_osprot          00000000710bb4d0 f   os.c.obj
 0001:000ba520       osprot_to_memprot          00000000710bb520 f   os.c.obj
 0001:000ba590       osprot_add_writecopy       00000000710bb590 f   os.c.obj
 0001:000ba5c0       osprot_replace_memprot     00000000710bb5c0 f   os.c.obj
 0001:000ba670       dump_mbi                   00000000710bb670 f   os.c.obj
 0001:000ba7b0       dump_mbi_addr              00000000710bb7b0 f   os.c.obj
 0001:000ba830       is_pid_me                  00000000710bb830 f   os.c.obj
 0001:000ba850       is_phandle_me              00000000710bb850 f   os.c.obj
 0001:000ba890       get_dynamorio_library_path 00000000710bb890 f   os.c.obj
 0001:000ba8e0       should_inject_into_process 00000000710bb8e0 f   os.c.obj
 0001:000ba9c0       is_user_address            00000000710bb9c0 f   os.c.obj
 0001:000ba9d0       merge_writecopy_pages      00000000710bb9d0 f   os.c.obj
 0001:000bad20       find_executable_vm_areas   00000000710bbd20 f   os.c.obj
 0001:000baf60       remove_from_all_memory_areas 00000000710bbf60 f   os.c.obj
 0001:000baf60       parameters_stack_padded    00000000710bbf60 f   mangle_shared.c.obj
 0001:000baf60       exit_cti_reaches_target    00000000710bbf60 f   emit_utils.c.obj
 0001:000baf60       dr_insert_set_stolen_reg_value 00000000710bbf60 f   instrument.c.obj
 0001:000baf60       dr_mutex_self_owns         00000000710bbf60 f   instrument.c.obj
 0001:000baf60       os_heap_systemwide_overcommit 00000000710bbf60 f   os.c.obj
 0001:000baf60       private_lib_handle_cb      00000000710bbf60 f   loader.c.obj
 0001:000baf60       dr_insert_get_stolen_reg_value 00000000710bbf60 f   instrument.c.obj
 0001:000baf70       process_mmap               00000000710bbf70 f   os.c.obj
 0001:000bb140       get_application_base       00000000710bc140 f   os.c.obj
 0001:000bb1b0       get_image_entry            00000000710bc1b0 f   os.c.obj
 0001:000bb220       os_tls_offset              00000000710bc220 f   os.c.obj
 0001:000bb230       get_local_state_extended   00000000710bc230 f   os.c.obj
 0001:000bb230       get_local_state            00000000710bc230 f   os.c.obj
 0001:000bb250       get_thread_private_dcontext 00000000710bc250 f   os.c.obj
 0001:000bb280       set_thread_private_dcontext 00000000710bc280 f   os.c.obj
 0001:000bb290       create_profile             00000000710bc290 f   os.c.obj
 0001:000bb360       free_profile               00000000710bc360 f   os.c.obj
 0001:000bb3c0       start_profile              00000000710bc3c0 f   os.c.obj
 0001:000bb3e0       stop_profile               00000000710bc3e0 f   os.c.obj
 0001:000bb400       dump_profile_range         00000000710bc400 f   os.c.obj
 0001:000bb4e0       dump_profile               00000000710bc4e0 f   os.c.obj
 0001:000bb4f0       sum_profile_range          00000000710bc4f0 f   os.c.obj
 0001:000bb560       sum_profile                00000000710bc560 f   os.c.obj
 0001:000bb570       reset_profile              00000000710bc570 f   os.c.obj
 0001:000bb580       os_raw_mem_free            00000000710bc580 f   os.c.obj
 0001:000bb5f0       os_raw_mem_alloc           00000000710bc5f0 f   os.c.obj
 0001:000bb690       os_heap_free               00000000710bc690 f   os.c.obj
 0001:000bb6b0       os_heap_reserve            00000000710bc6b0 f   os.c.obj
 0001:000bb6f0       os_heap_reserve_in_region  00000000710bc6f0 f   os.c.obj
 0001:000bb870       os_heap_commit             00000000710bc870 f   os.c.obj
 0001:000bb8e0       os_heap_decommit           00000000710bc8e0 f   os.c.obj
 0001:000bb900       os_heap_get_commit_limit   00000000710bc900 f   os.c.obj
 0001:000bb960       os_find_free_code_space_in_libs 00000000710bc960 f   os.c.obj
 0001:000bb9c0       os_thread_yield            00000000710bc9c0 f   os.c.obj
 0001:000bb9d0       os_thread_sleep            00000000710bc9d0 f   os.c.obj
 0001:000bb9f0       os_timeout                 00000000710bc9f0 f   os.c.obj
 0001:000bba20       os_thread_suspend          00000000710bca20 f   os.c.obj
 0001:000bba30       os_thread_resume           00000000710bca30 f   os.c.obj
 0001:000bba40       os_thread_terminate        00000000710bca40 f   os.c.obj
 0001:000bba50       thread_get_context         00000000710bca50 f   os.c.obj
 0001:000bba70       thread_set_context         00000000710bca70 f   os.c.obj
 0001:000bba90       thread_set_self_context    00000000710bca90 f   os.c.obj
 0001:000bbaa0       thread_set_self_mcontext   00000000710bcaa0 f   os.c.obj
 0001:000bbb00       dr_mcontext_to_context     00000000710bcb00 f   os.c.obj
 0001:000bbb90       get_num_processors         00000000710bcb90 f   os.c.obj
 0001:000bbbe0       debugbox_setup_title       00000000710bcbe0 f   os.c.obj
 0001:000bbc30       debugbox_get_title         00000000710bcc30 f   os.c.obj
 0001:000bbc40       debugbox                   00000000710bcc40 f   os.c.obj
 0001:000bbd00       load_shared_library        00000000710bcd00 f   os.c.obj
 0001:000bbd60       lookup_library_routine     00000000710bcd60 f   os.c.obj
 0001:000bbd70       unload_shared_library      00000000710bcd70 f   os.c.obj
 0001:000bbd90       shared_library_error       00000000710bcd90 f   os.c.obj
 0001:000bbda0       get_allocation_base        00000000710bcda0 f   os.c.obj
 0001:000bbf10       get_allocation_size        00000000710bcf10 f   os.c.obj
 0001:000bc190       query_memory_ex            00000000710bd190 f   os.c.obj
 0001:000bc1a0       query_memory_cur_base      00000000710bd1a0 f   os.c.obj
 0001:000bc1b0       get_memory_info            00000000710bd1b0 f   os.c.obj
 0001:000bc280       dr_virtual_query           00000000710bd280 f   os.c.obj
 0001:000bc2f0       get_stack_bounds           00000000710bd2f0 f   os.c.obj
 0001:000bc410       safe_read_ex               00000000710bd410 f   os.c.obj
 0001:000bc450       safe_read                  00000000710bd450 f   os.c.obj
 0001:000bc4c0       safe_write_ex              00000000710bd4c0 f   os.c.obj
 0001:000bc4f0       safe_write                 00000000710bd4f0 f   os.c.obj
 0001:000bc540       get_current_protection     00000000710bd540 f   os.c.obj
 0001:000bc580       set_protection             00000000710bd580 f   os.c.obj
 0001:000bc6b0       change_protection          00000000710bd6b0 f   os.c.obj
 0001:000bc800       make_hookable              00000000710bd800 f   os.c.obj
 0001:000bc940       make_unhookable            00000000710bd940 f   os.c.obj
 0001:000bca30       make_writable              00000000710bda30 f   os.c.obj
 0001:000bcb30       make_copy_on_writable      00000000710bdb30 f   os.c.obj
 0001:000bcc50       make_unwritable            00000000710bdc50 f   os.c.obj
 0001:000bcd20       convert_NT_to_Dos_path     00000000710bdd20 f   os.c.obj
 0001:000bcee0       convert_to_NT_file_path_wide 00000000710bdee0 f   os.c.obj
 0001:000bd180       convert_to_NT_file_path    00000000710be180 f   os.c.obj
 0001:000bd420       os_get_file_size           00000000710be420 f   os.c.obj
 0001:000bd490       os_get_file_size_by_handle 00000000710be490 f   os.c.obj
 0001:000bd4d0       os_set_file_size           00000000710be4d0 f   os.c.obj
 0001:000bd500       os_get_disk_free_space     00000000710be500 f   os.c.obj
 0001:000bd5a0       os_open_directory          00000000710be5a0 f   os.c.obj
 0001:000bd610       os_open                    00000000710be610 f   os.c.obj
 0001:000bd700       os_close_protected         00000000710be700 f   os.c.obj
 0001:000bd700       os_close                   00000000710be700 f   os.c.obj
 0001:000bd710       os_open_protected          00000000710be710 f   os.c.obj
 0001:000bd720       os_get_current_dir         00000000710be720 f   os.c.obj
 0001:000bd790       os_write                   00000000710be790 f   os.c.obj
 0001:000bd7d0       os_read                    00000000710be7d0 f   os.c.obj
 0001:000bd810       os_flush                   00000000710be810 f   os.c.obj
 0001:000bd820       os_tell                    00000000710be820 f   os.c.obj
 0001:000bd850       os_delete_mapped_file      00000000710be850 f   os.c.obj
 0001:000bd9b0       os_delete_file_w           00000000710be9b0 f   os.c.obj
 0001:000bda40       os_delete_file             00000000710bea40 f   os.c.obj
 0001:000bdb10       os_delete_dir              00000000710beb10 f   os.c.obj
 0001:000bdb70       os_rename_file             00000000710beb70 f   os.c.obj
 0001:000bdcb0       os_rename_file_in_directory 00000000710becb0 f   os.c.obj
 0001:000bdda0       os_map_file                00000000710beda0 f   os.c.obj
 0001:000be030       os_unmap_file              00000000710bf030 f   os.c.obj
 0001:000be050       translate_context          00000000710bf050 f   os.c.obj
 0001:000be0c0       os_raise_exception         00000000710bf0c0 f   os.c.obj
 0001:000be740       detach_helper              00000000710bf740 f   os.c.obj
 0001:000bed90       detach_internal            00000000710bfd90 f   os.c.obj
 0001:000bee00       is_thread_currently_native 00000000710bfe00 f   os.c.obj
 0001:000bee30       mutex_free_contended_event 00000000710bfe30 f   os.c.obj
 0001:000bf280       os_wait_handle             00000000710c0280 f   os.c.obj
 0001:000bf2c0       mutex_wait_contended_lock  00000000710c02c0 f   os.c.obj
 0001:000bf370       mutex_notify_released_lock 00000000710c0370 f   os.c.obj
 0001:000bf3e0       rwlock_wait_contended_writer 00000000710c03e0 f   os.c.obj
 0001:000bf440       rwlock_notify_writer       00000000710c0440 f   os.c.obj
 0001:000bf4b0       rwlock_wait_contended_reader 00000000710c04b0 f   os.c.obj
 0001:000bf510       rwlock_notify_readers      00000000710c0510 f   os.c.obj
 0001:000bf580       create_event               00000000710c0580 f   os.c.obj
 0001:000bf590       destroy_event              00000000710c0590 f   os.c.obj
 0001:000bf5a0       signal_event               00000000710c05a0 f   os.c.obj
 0001:000bf5b0       wait_for_event             00000000710c05b0 f   os.c.obj
 0001:000bf5c0       get_timer_frequency        00000000710c05c0 f   os.c.obj
 0001:000bf610       os_random_seed             00000000710c0610 f   os.c.obj
 0001:000bf650       early_inject_init          00000000710c0650 f   os.c.obj
 0001:000bfcf0       earliest_inject_init       00000000710c0cf0 f   os.c.obj
 0001:000bfd60       earliest_inject_cleanup    00000000710c0d60 f   os.c.obj
 0001:000bfde0       open_trusted_cache_root_directory 00000000710c0de0 f   os.c.obj
 0001:000bfea0       os_user_directory_supports_ownership 00000000710c0ea0 f   os.c.obj
 0001:000bff60       os_validate_user_owned     00000000710c0f60 f   os.c.obj
 0001:000bffa0       os_check_option_compatibility 00000000710c0fa0 f   os.c.obj
 0001:000c0130       check_for_ldrpLoadImportModule 00000000710c1130 f   os.c.obj
 0001:000c01e0       DllMain                    00000000710c11e0 f   os.c.obj
 0001:000c0710       os_fast_exit               00000000710c1710 f   os.c.obj
 0001:000c0840       os_slow_exit               00000000710c1840 f   os.c.obj
 0001:000c0890       os_terminate_common        00000000710c1890 f   os.c.obj
 0001:000c0b80       os_terminate_with_code     00000000710c1b80 f   os.c.obj
 0001:000c0b90       os_terminate               00000000710c1b90 f   os.c.obj
 0001:000c0ba0       os_thread_init             00000000710c1ba0 f   os.c.obj
 0001:000c0cb0       os_thread_stack_exit       00000000710c1cb0 f   os.c.obj
 0001:000c1110       os_thread_take_over_suspended_native 00000000710c2110 f   os.c.obj
 0001:000c1160       os_take_over_all_unknown_threads 00000000710c2160 f   os.c.obj
 0001:000c1340       thread_attach_setup        00000000710c2340 f   os.c.obj
 0001:000c1510       client_thread_target       00000000710c2510 f   os.c.obj
 0001:000c1560       dr_create_client_thread    00000000710c2560 f   os.c.obj
 0001:000c1760       is_first_thread_in_new_process 00000000710c2760 f   os.c.obj
 0001:000c18d0       maybe_inject_into_process  00000000710c28d0 f   os.c.obj
 0001:000c1a20       get_dynamorio_dll_start    00000000710c2a20 f   os.c.obj
 0001:000c1a80       get_dynamorio_dll_preferred_base 00000000710c2a80 f   os.c.obj
 0001:000c1af0       find_dynamo_library_vm_areas 00000000710c2af0 f   os.c.obj
 0001:000c1c80       get_application_end        00000000710c2c80 f   os.c.obj
 0001:000c1d00       thread_get_mcontext        00000000710c2d00 f   os.c.obj
 0001:000c1d80       thread_set_mcontext        00000000710c2d80 f   os.c.obj
 0001:000c1e10       shared_library_bounds      00000000710c2e10 f   os.c.obj
 0001:000c1e40       os_file_exists             00000000710c2e40 f   os.c.obj
 0001:000c1ec0       os_create_dir              00000000710c2ec0 f   os.c.obj
 0001:000c1f50       os_seek                    00000000710c2f50 f   os.c.obj
 0001:000c2910       os_dump_core               00000000710c3910 f   os.c.obj
 0001:000c2980       os_dump_core_live          00000000710c3980 f   os.c.obj
 0001:000c2a10       os_current_user_directory  00000000710c3a10 f   os.c.obj
 0001:000c2b40       windows_version_init       00000000710c3b40 f   os.c.obj
 0001:000c3490       os_init                    00000000710c4490 f   os.c.obj
 0001:000c3970       optimizable_system_call    00000000710c4970 f   syscall.c.obj
 0001:000c39c0       syscall_while_native       00000000710c49c0 f   syscall.c.obj
 0001:000c3ab0       init_syscall_trampolines   00000000710c4ab0 f   syscall.c.obj
 0001:000c3c20       exit_syscall_trampolines   00000000710c4c20 f   syscall.c.obj
 0001:000c3d10       syscall_uses_wow64_index   00000000710c4d10 f   syscall.c.obj
 0001:000c3d30       syscall_uses_edx_param_base 00000000710c4d30 f   syscall.c.obj
 0001:000c3e40       syscall_interception_init  00000000710c4e40 f   syscall.c.obj
 0001:000c3e70       syscall_interception_exit  00000000710c4e70 f   syscall.c.obj
 0001:000c5140       is_cb_return_syscall       00000000710c6140 f   syscall.c.obj
 0001:000c5980       os_normalized_sysnum       00000000710c6980 f   syscall.c.obj
 0001:000c5990       pre_system_call            00000000710c6990 f   syscall.c.obj
 0001:000c7450       post_system_call           00000000710c8450 f   syscall.c.obj
 0001:000c7e50       dr_syscall_get_param       00000000710c8e50 f   syscall.c.obj
 0001:000c7ea0       dr_syscall_set_param       00000000710c8ea0 f   syscall.c.obj
 0001:000c7f10       dr_syscall_get_result      00000000710c8f10 f   syscall.c.obj
 0001:000c7f30       dr_syscall_get_result_ex   00000000710c8f30 f   syscall.c.obj
 0001:000c7f80       dr_syscall_set_result      00000000710c8f80 f   syscall.c.obj
 0001:000c7fa0       dr_syscall_set_result_ex   00000000710c8fa0 f   syscall.c.obj
 0001:000c7ff0       dr_syscall_set_sysnum      00000000710c8ff0 f   syscall.c.obj
 0001:000c8010       dr_syscall_invoke_another  00000000710c9010 f   syscall.c.obj
 0001:000c80e0       dr_syscall_intercept_natively 00000000710c90e0 f   syscall.c.obj
 0001:000c8320       set_asynch_interception    00000000710c9320 f   callback.c.obj
 0001:000c8340       intercept_asynch_for_thread 00000000710c9340 f   callback.c.obj
 0001:000c8b60       get_app_pc_from_intercept_pc 00000000710c9b60 f   callback.c.obj
 0001:000c8bb0       get_intercept_pc_from_app_pc 00000000710c9bb0 f   callback.c.obj
 0001:000c9650       remove_trampoline          00000000710ca650 f   callback.c.obj
 0001:000c9660       is_in_interception_buffer  00000000710ca660 f   callback.c.obj
 0001:000c9680       is_part_of_interception    00000000710ca680 f   callback.c.obj
 0001:000c96c0       is_on_interception_initial_route 00000000710ca6c0 f   callback.c.obj
 0001:000c9710       is_syscall_trampoline      00000000710ca710 f   callback.c.obj
 0001:000c9840       new_thread_is_waiting_for_dr_init 00000000710ca840 f   callback.c.obj
 0001:000c9b10       intercept_nt_continue      00000000710cab10 f   callback.c.obj
 0001:000c9d10       intercept_nt_setcontext    00000000710cad10 f   callback.c.obj
 0001:000c9e20       found_modified_code        00000000710cae20 f   callback.c.obj
 0001:000ca270       report_internal_exception  00000000710cb270 f   callback.c.obj
 0001:000ca6c0       os_forge_exception         00000000710cb6c0 f   callback.c.obj
 0001:000ca7b0       get_prev_swapped_dcontext  00000000710cb7b0 f   callback.c.obj
 0001:000ca7e0       get_pc_after_call          00000000710cb7e0 f   callback.c.obj
 0001:000ca960       remove_image_entry_trampoline 00000000710cb960 f   callback.c.obj
 0001:000ca990       callback_interception_unintercept 00000000710cb990 f   callback.c.obj
 0001:000caab0       callback_interception_exit 00000000710cbab0 f   callback.c.obj
 0001:000cac30       callback_exit              00000000710cbc30 f   callback.c.obj
 0001:000cac60       get_drmarker               00000000710cbc60 f   callback.c.obj
 0001:000cac70       get_app_segment_base       00000000710cbc70 f   callback.c.obj
 0001:000cac70       get_segment_base           00000000710cbc70 f   callback.c.obj
 0001:000cacc0       is_intercepted_app_pc      00000000710cbcc0 f   callback.c.obj
 0001:000cb080       retakeover_after_native    00000000710cc080 f   callback.c.obj
 0001:000cc0f0       intercept_load_dll         00000000710cd0f0 f   callback.c.obj
 0001:000cc210       intercept_unload_dll       00000000710cd210 f   callback.c.obj
 0001:000ce780       intercept_syscall_wrapper  00000000710cf780 f   callback.c.obj
 0001:000ceb50       insert_trampoline          00000000710cfb50 f   callback.c.obj
 0001:000ceca0       callback_interception_init_start 00000000710cfca0 f   callback.c.obj
 0001:000cef20       callback_start_return      00000000710cff20 f   callback.c.obj
 0001:000cf0a0       take_over_primary_thread   00000000710d00a0 f   callback.c.obj
 0001:000cf110       callback_interception_init_finish 00000000710d0110 f   callback.c.obj
 0001:000cf9b0       init_dr_marker             00000000710d09b0 f   drmarker.c.obj
 0001:000cfba0       read_and_verify_dr_marker  00000000710d0ba0 f   drmarker.c.obj
 0001:000cfd00       query_seg_descriptor       00000000710d0d00 f   ntdll.c.obj
 0001:000cfe40       query_win32_start_addr     00000000710d0e40 f   ntdll.c.obj
 0001:000cff80       query_system_info          00000000710d0f80 f   ntdll.c.obj
 0001:000cffb0       get_thread_id              00000000710d0fb0 f   ntdll.c.obj
 0001:000cffc0       get_process_id             00000000710d0fc0 f   ntdll.c.obj
 0001:000cffd0       get_last_error             00000000710d0fd0 f   ntdll.c.obj
 0001:000cffe0       set_last_error             00000000710d0fe0 f   ntdll.c.obj
 0001:000cfff0       thread_id_from_handle      00000000710d0ff0 f   ntdll.c.obj
 0001:000d0020       process_id_from_handle     00000000710d1020 f   ntdll.c.obj
 0001:000d0080       process_id_from_thread_handle 00000000710d1080 f   ntdll.c.obj
 0001:000d00b0       get_peb                    00000000710d10b0 f   ntdll.c.obj
 0001:000d0100       get_own_peb                00000000710d1100 f   ntdll.c.obj
 0001:000d0170       get_teb                    00000000710d1170 f   ntdll.c.obj
 0001:000d01a0       set_ntdll_base             00000000710d11a0 f   ntdll.c.obj
 0001:000d01c0       context_ymmh_saved_area    00000000710d11c0 f   ntdll.c.obj
 0001:000d04f0       context_to_mcontext        00000000710d14f0 f   ntdll.c.obj
 0001:000d04f0       context_to_mcontext_new_thread 00000000710d14f0 f   ntdll.c.obj
 0001:000d0500       mcontext_to_context        00000000710d1500 f   ntdll.c.obj
 0001:000d0830       get_own_context_integer_control 00000000710d1830 f   ntdll.c.obj
 0001:000d0850       get_own_context            00000000710d1850 f   ntdll.c.obj
 0001:000d0ac0       bitmap_find_free_sequence  00000000710d1ac0 f   ntdll.c.obj
 0001:000d0bd0       bitmap_mark_taken_sequence 00000000710d1bd0 f   ntdll.c.obj
 0001:000d0c10       bitmap_mark_freed_sequence 00000000710d1c10 f   ntdll.c.obj
 0001:000d0e80       tls_calloc                 00000000710d1e80 f   ntdll.c.obj
 0001:000d0ea0       get_process_mem_stats      00000000710d1ea0 f   ntdll.c.obj
 0001:000d0ed0       is_wow64_process           00000000710d1ed0 f   ntdll.c.obj
 0001:000d0f70       nt_get_drive_map           00000000710d1f70 f   ntdll.c.obj
 0001:000d0fa0       nt_remote_allocate_virtual_memory 00000000710d1fa0 f   ntdll.c.obj
 0001:000d1100       nt_remote_free_virtual_memory 00000000710d2100 f   ntdll.c.obj
 0001:000d1210       nt_allocate_virtual_memory 00000000710d2210 f   ntdll.c.obj
 0001:000d1230       nt_commit_virtual_memory   00000000710d2230 f   ntdll.c.obj
 0001:000d1370       nt_decommit_virtual_memory 00000000710d2370 f   ntdll.c.obj
 0001:000d1470       nt_free_virtual_memory     00000000710d2470 f   ntdll.c.obj
 0001:000d1580       protect_virtual_memory     00000000710d2580 f   ntdll.c.obj
 0001:000d16a0       nt_remote_protect_virtual_memory 00000000710d26a0 f   ntdll.c.obj
 0001:000d17d0       nt_remote_query_virtual_memory 00000000710d27d0 f   ntdll.c.obj
 0001:000d1920       query_virtual_memory       00000000710d2920 f   ntdll.c.obj
 0001:000d1980       get_mapped_file_name       00000000710d2980 f   ntdll.c.obj
 0001:000d1b10       nt_raw_read_virtual_memory 00000000710d2b10 f   ntdll.c.obj
 0001:000d1b30       nt_read_virtual_memory     00000000710d2b30 f   ntdll.c.obj
 0001:000d1b50       nt_raw_write_virtual_memory 00000000710d2b50 f   ntdll.c.obj
 0001:000d1c60       nt_write_virtual_memory    00000000710d2c60 f   ntdll.c.obj
 0001:000d1c80       nt_continue                00000000710d2c80 f   ntdll.c.obj
 0001:000d1d40       nt_get_context             00000000710d2d40 f   ntdll.c.obj
 0001:000d1e20       nt_set_context             00000000710d2e20 f   ntdll.c.obj
 0001:000d1f00       nt_thread_suspend          00000000710d2f00 f   ntdll.c.obj
 0001:000d1fc0       nt_thread_resume           00000000710d2fc0 f   ntdll.c.obj
 0001:000d2080       nt_thread_iterator_next    00000000710d3080 f   ntdll.c.obj
 0001:000d20c0       nt_terminate_thread        00000000710d30c0 f   ntdll.c.obj
 0001:000d2180       nt_terminate_process       00000000710d3180 f   ntdll.c.obj
 0001:000d2240       nt_terminate_process_for_app 00000000710d3240 f   ntdll.c.obj
 0001:000d2320       am_I_sole_thread           00000000710d3320 f   ntdll.c.obj
 0001:000d2450       check_sole_thread          00000000710d3450 f   ntdll.c.obj
 0001:000d2480       nt_sleep                   00000000710d3480 f   ntdll.c.obj
 0001:000d24a0       nt_yield                   00000000710d34a0 f   ntdll.c.obj
 0001:000d24b0       nt_raw_close               00000000710d34b0 f   ntdll.c.obj
 0001:000d2560       reg_close_key              00000000710d3560 f   ntdll.c.obj
 0001:000d2560       close_handle               00000000710d3560 f   ntdll.c.obj
 0001:000d2560       close_file                 00000000710d3560 f   ntdll.c.obj
 0001:000d2580       duplicate_handle           00000000710d3580 f   ntdll.c.obj
 0001:000d26e0       nt_get_handle_access_rights 00000000710d36e0 f   ntdll.c.obj
 0001:000d2710       nt_get_object_name         00000000710d3710 f   ntdll.c.obj
 0001:000d2730       wchar_to_unicode           00000000710d3730 f   ntdll.c.obj
 0001:000d2740       nt_query_value_key         00000000710d3740 f   ntdll.c.obj
 0001:000d2770       reg_open_key               00000000710d3770 f   ntdll.c.obj
 0001:000d28b0       reg_query_value            00000000710d38b0 f   ntdll.c.obj
 0001:000d2980       reg_set_key_value          00000000710d3980 f   ntdll.c.obj
 0001:000d2b30       reg_set_dword_key_value    00000000710d3b30 f   ntdll.c.obj
 0001:000d2cc0       reg_enum_key               00000000710d3cc0 f   ntdll.c.obj
 0001:000d2d50       reg_enum_value             00000000710d3d50 f   ntdll.c.obj
 0001:000d2de0       get_owner_sd               00000000710d3de0 f   ntdll.c.obj
 0001:000d2e20       equal_sid                  00000000710d3e20 f   ntdll.c.obj
 0001:000d2e60       get_application_name       00000000710d3e60 f   ntdll.c.obj
 0001:000d2eb0       get_application_short_name 00000000710d3eb0 f   ntdll.c.obj
 0001:000d2f00       get_application_short_unqualified_name 00000000710d3f00 f   ntdll.c.obj
 0001:000d2f50       get_application_pid        00000000710d3f50 f   ntdll.c.obj
 0001:000d2fb0       get_process_param_buf      00000000710d3fb0 f   ntdll.c.obj
 0001:000d2ff0       get_application_cmdline    00000000710d3ff0 f   ntdll.c.obj
 0001:000d3040       query_time_100ns           00000000710d4040 f   ntdll.c.obj
 0001:000d3060       query_time_millis          00000000710d4060 f   ntdll.c.obj
 0001:000d3090       query_time_seconds         00000000710d4090 f   ntdll.c.obj
 0001:000d30e0       convert_100ns_to_system_time 00000000710d40e0 f   ntdll.c.obj
 0001:000d3160       convert_system_time_to_100ns 00000000710d4160 f   ntdll.c.obj
 0001:000d31d0       query_system_time          00000000710d41d0 f   ntdll.c.obj
 0001:000d3200       nt_flush_file_buffers      00000000710d4200 f   ntdll.c.obj
 0001:000d3220       read_file                  00000000710d4220 f   ntdll.c.obj
 0001:000d32a0       write_file                 00000000710d42a0 f   ntdll.c.obj
 0001:000d3320       create_iocompletion        00000000710d4320 f   ntdll.c.obj
 0001:000d3350       nt_messagebox              00000000710d4350 f   ntdll.c.obj
 0001:000d3410       nt_create_event            00000000710d4410 f   ntdll.c.obj
 0001:000d3450       nt_close_object_directory  00000000710d4450 f   ntdll.c.obj
 0001:000d3450       nt_close_event             00000000710d4450 f   ntdll.c.obj
 0001:000d3460       nt_wait_event_with_timeout 00000000710d4460 f   ntdll.c.obj
 0001:000d34a0       nt_set_event               00000000710d44a0 f   ntdll.c.obj
 0001:000d34b0       nt_query_performance_counter 00000000710d44b0 f   ntdll.c.obj
 0001:000d34c0       nt_pipe_transceive         00000000710d44c0 f   ntdll.c.obj
 0001:000d3590       nt_create_profile          00000000710d4590 f   ntdll.c.obj
 0001:000d35e0       nt_set_profile_interval    00000000710d45e0 f   ntdll.c.obj
 0001:000d35f0       nt_query_profile_interval  00000000710d45f0 f   ntdll.c.obj
 0001:000d3610       nt_start_profile           00000000710d4610 f   ntdll.c.obj
 0001:000d3620       nt_stop_profile            00000000710d4620 f   ntdll.c.obj
 0001:000d3630       create_thread_common       00000000710d4630 f   ntdll.c.obj
 0001:000d3990       create_thread              00000000710d4990 f   ntdll.c.obj
 0001:000d3af0       create_thread_have_stack   00000000710d4af0 f   ntdll.c.obj
 0001:000d3b80       load_library               00000000710d4b80 f   ntdll.c.obj
 0001:000d3bd0       free_library               00000000710d4bd0 f   ntdll.c.obj
 0001:000d3bf0       get_module_handle          00000000710d4bf0 f   ntdll.c.obj
 0001:000d3c30       nt_initialize_shared_directory 00000000710d4c30 f   ntdll.c.obj
 0001:000d3d80       nt_open_object_directory   00000000710d4d80 f   ntdll.c.obj
 0001:000d3e40       nt_get_symlink_target      00000000710d4e40 f   ntdll.c.obj
 0001:000d3f10       nt_create_section          00000000710d4f10 f   ntdll.c.obj
 0001:000d4100       nt_open_section            00000000710d5100 f   ntdll.c.obj
 0001:000d4260       nt_query_file_info         00000000710d5260 f   ntdll.c.obj
 0001:000d4290       nt_set_file_info           00000000710d5290 f   ntdll.c.obj
 0001:000d42c0       nt_query_volume_info       00000000710d52c0 f   ntdll.c.obj
 0001:000d42f0       nt_query_security_object   00000000710d52f0 f   ntdll.c.obj
 0001:000d4310       initialize_known_SID       00000000710d5310 f   ntdll.c.obj
 0001:000d4330       nt_initialize_context      00000000710d5330 f   ntdll.c.obj
 0001:000d43a0       nt_raw_CreateFile          00000000710d53a0 f   ntdll.c.obj
 0001:000d45e0       nt_raw_OpenFile            00000000710d55e0 f   ntdll.c.obj
 0001:000d4710       nt_raw_OpenKey             00000000710d5710 f   ntdll.c.obj
 0001:000d4810       nt_raw_OpenKeyEx           00000000710d5810 f   ntdll.c.obj
 0001:000d48e0       nt_raw_OpenProcessTokenEx  00000000710d58e0 f   ntdll.c.obj
 0001:000d49b0       nt_raw_OpenThread          00000000710d59b0 f   ntdll.c.obj
 0001:000d4aa0       nt_raw_OpenThreadTokenEx   00000000710d5aa0 f   ntdll.c.obj
 0001:000d4ba0       nt_raw_QueryAttributesFile 00000000710d5ba0 f   ntdll.c.obj
 0001:000d4c80       nt_raw_SetInformationFile  00000000710d5c80 f   ntdll.c.obj
 0001:000d4d90       nt_raw_SetInformationThread 00000000710d5d90 f   ntdll.c.obj
 0001:000d4e80       nt_raw_UnmapViewOfSection  00000000710d5e80 f   ntdll.c.obj
 0001:000d4f60       nt_raw_MapViewOfSection    00000000710d5f60 f   ntdll.c.obj
 0001:000d5170       nt_raw_OpenProcess         00000000710d6170 f   ntdll.c.obj
 0001:000d5260       nt_raw_QueryFullAttributesFile 00000000710d6260 f   ntdll.c.obj
 0001:000d5340       nt_raw_CreateKey           00000000710d6340 f   ntdll.c.obj
 0001:000d54b0       nt_raw_OpenThreadToken     00000000710d64b0 f   ntdll.c.obj
 0001:000d55a0       nt_raw_OpenProcessToken    00000000710d65a0 f   ntdll.c.obj
 0001:000d56a0       syscalls_init_options_read 00000000710d66a0 f   ntdll.c.obj
 0001:000d56e0       get_stderr_handle          00000000710d66e0 f   ntdll.c.obj
 0001:000d5710       get_stdout_handle          00000000710d6710 f   ntdll.c.obj
 0001:000d5740       get_stdin_handle           00000000710d6740 f   ntdll.c.obj
 0001:000d5770       process_handle_from_id     00000000710d6770 f   ntdll.c.obj
 0001:000d58b0       thread_handle_from_id      00000000710d68b0 f   ntdll.c.obj
 0001:000d59f0       get_ntdll_base             00000000710d69f0 f   ntdll.c.obj
 0001:000d5a50       is_in_ntdll                00000000710d6a50 f   ntdll.c.obj
 0001:000d5d20       tls_cfree                  00000000710d6d20 f   ntdll.c.obj
 0001:000d5d30       query_full_attributes_file 00000000710d6d30 f   ntdll.c.obj
 0001:000d5db0       reg_create_key             00000000710d6db0 f   ntdll.c.obj
 0001:000d5e60       env_get_value              00000000710d6e60 f   ntdll.c.obj
 0001:000d5f10       get_current_user_token     00000000710d6f10 f   ntdll.c.obj
 0001:000d5fa0       get_primary_owner_token    00000000710d6fa0 f   ntdll.c.obj
 0001:000d6010       get_current_user_SID       00000000710d7010 f   ntdll.c.obj
 0001:000d6070       get_process_primary_SID    00000000710d7070 f   ntdll.c.obj
 0001:000d6100       nt_create_file             00000000710d7100 f   ntdll.c.obj
 0001:000d63b0       create_file                00000000710d73b0 f   ntdll.c.obj
 0001:000d6440       nt_open_file               00000000710d7440 f   ntdll.c.obj
 0001:000d64f0       nt_delete_file             00000000710d74f0 f   ntdll.c.obj
 0001:000d6590       open_pipe                  00000000710d7590 f   ntdll.c.obj
 0001:000d6850       nt_create_module_file      00000000710d7850 f   ntdll.c.obj
 0001:000d68a0       use_ki_syscall_routines    00000000710d78a0 f   ntdll.c.obj
 0001:000d6920       ntdll_init                 00000000710d7920 f   ntdll.c.obj
 0001:000d6a20       syscalls_init              00000000710d7a20 f   ntdll.c.obj
 0001:000d6ce0       inject_init                00000000710d7ce0 f   inject.c.obj
 0001:000d6d30       inject_into_thread         00000000710d7d30 f   inject.c.obj
 0001:000d8700       inject_into_new_process    00000000710d9700 f   inject.c.obj
 0001:000d8900       double_strrchr             00000000710d9900 f   inject_shared.c.obj
 0001:000d8930       wchar_to_char              00000000710d9930 f   inject_shared.c.obj
 0001:000d8b30       double_wcsrchr             00000000710d9b30 f   inject_shared.c.obj
 0001:000d8b60       w_get_short_name           00000000710d9b60 f   inject_shared.c.obj
 0001:000d8ba0       get_commandline_qualifier  00000000710d9ba0 f   inject_shared.c.obj
 0001:000d8ed0       get_parameter_from_registry 00000000710d9ed0 f   inject_shared.c.obj
 0001:000d8f00       systemwide_inject_enabled  00000000710d9f00 f   inject_shared.c.obj
 0001:000d9050       get_process_imgname_cmdline 00000000710da050 f   inject_shared.c.obj
 0001:000d9460       get_own_qualified_name     00000000710da460 f   inject_shared.c.obj
 0001:000d95c0       get_own_unqualified_name   00000000710da5c0 f   inject_shared.c.obj
 0001:000d9640       get_own_short_qualified_name 00000000710da640 f   inject_shared.c.obj
 0001:000d9790       get_own_short_unqualified_name 00000000710da790 f   inject_shared.c.obj
 0001:000d9960       get_process_parameter      00000000710da960 f   inject_shared.c.obj
 0001:000d9a20       systemwide_should_inject   00000000710daa20 f   inject_shared.c.obj
 0001:000d9a60       section_to_file_lookup     00000000710daa60 f   module.c.obj
 0001:000d9ba0       section_to_file_add_wide   00000000710daba0 f   module.c.obj
 0001:000d9bd0       section_to_file_add        00000000710dabd0 f   module.c.obj
 0001:000d9c00       section_to_file_remove     00000000710dac00 f   module.c.obj
 0001:000da030       print_modules_safe         00000000710db030 f   module.c.obj
 0001:000da1e0       check_for_unsupported_modules 00000000710db1e0 f   module.c.obj
 0001:000da310       is_readable_pe_base        00000000710db310 f   module.c.obj
 0001:000da460       module_pc_section_lookup   00000000710db460 f   module.c.obj
 0001:000da5c0       is_range_in_code_section   00000000710db5c0 f   module.c.obj
 0001:000da6f0       get_executable_segment     00000000710db6f0 f   module.c.obj
 0001:000da860       module_get_nth_segment     00000000710db860 f   module.c.obj
 0001:000daa50       module_get_header_size     00000000710dba50 f   module.c.obj
 0001:000daa60       get_named_section_bounds   00000000710dba60 f   module.c.obj
 0001:000dac00       get_IAT_section_bounds     00000000710dbc00 f   module.c.obj
 0001:000dac60       get_module_entry           00000000710dbc60 f   module.c.obj
 0001:000dac70       get_module_base            00000000710dbc70 f   module.c.obj
 0001:000daca0       get_module_preferred_base  00000000710dbca0 f   module.c.obj
 0001:000dacf0       get_dll_short_name         00000000710dbcf0 f   module.c.obj
 0001:000dad40       get_ldr_module_by_pc       00000000710dbd40 f   module.c.obj
 0001:000dadb0       get_module_name            00000000710dbdb0 f   module.c.obj
 0001:000daf00       get_module_characteristics 00000000710dbf00 f   module.c.obj
 0001:000daf10       module_has_cor20_header    00000000710dbf10 f   module.c.obj
 0001:000daf90       module_is_32bit            00000000710dbf90 f   module.c.obj
 0001:000dafe0       module_is_64bit            00000000710dbfe0 f   module.c.obj
 0001:000db030       os_modules_init            00000000710dc030 f   module.c.obj
 0001:000db080       os_modules_exit            00000000710dc080 f   module.c.obj
 0001:000db090       free_module_names          00000000710dc090 f   module.c.obj
 0001:000db0e0       get_module_info_pe         00000000710dc0e0 f   module.c.obj
 0001:000db1e0       get_module_preferred_base_safe 00000000710dc1e0 f   module.c.obj
 0001:000db220       os_get_module_info_all_names 00000000710dc220 f   module.c.obj
 0001:000db2f0       os_module_store_IAT_code   00000000710dc2f0 f   module.c.obj
 0001:000db3c0       os_module_cmp_IAT_code     00000000710dc3c0 f   module.c.obj
 0001:000db4a0       os_module_free_IAT_code    00000000710dc4a0 f   module.c.obj
 0001:000db6a0       module_reloc_iterator_start 00000000710dc6a0 f   module.c.obj
 0001:000db850       module_file_relocatable    00000000710dc850 f   module.c.obj
 0001:000db890       module_rebase              00000000710dc890 f   module.c.obj
 0001:000db940       module_dump_pe_file        00000000710dc940 f   module.c.obj
 0001:000dbdd0       aslr_compare_header        00000000710dcdd0 f   module.c.obj
 0001:000dbf00       module_contents_compare    00000000710dcf00 f   module.c.obj
 0001:000dcc40       get_module_company_name    00000000710ddc40 f   module.c.obj
 0001:000dcca0       get_shared_lib_name        00000000710ddca0 f   module.c.obj
 0001:000dccf0       os_module_has_dynamic_base 00000000710ddcf0 f   module.c.obj
 0001:000dcd70       dr_module_import_iterator_start 00000000710ddd70 f   module.c.obj
 0001:000dce10       dr_module_import_iterator_hasnext 00000000710dde10 f   module.c.obj
 0001:000dce30       dr_module_import_iterator_next 00000000710dde30 f   module.c.obj
 0001:000dce70       dr_module_import_iterator_stop 00000000710dde70 f   module.c.obj
 0001:000dcfc0       dr_symbol_import_iterator_start 00000000710ddfc0 f   module.c.obj
 0001:000dd0b0       dr_symbol_import_iterator_hasnext 00000000710de0b0 f   module.c.obj
 0001:000dd0d0       dr_symbol_import_iterator_next 00000000710de0d0 f   module.c.obj
 0001:000dd130       dr_symbol_import_iterator_stop 00000000710de130 f   module.c.obj
 0001:000dd170       print_modules_ldrlist_and_ourlist 00000000710de170 f   module.c.obj
 0001:000dd4e0       print_module_section_info  00000000710de4e0 f   module.c.obj
 0001:000dd610       is_IAT                     00000000710de610 f   module.c.obj
 0001:000dd700       is_in_IAT                  00000000710de700 f   module.c.obj
 0001:000ddae0       get_module_short_name_uncached 00000000710deae0 f   module.c.obj
 0001:000ddbb0       is_module_patch_region     00000000710debb0 f   module.c.obj
 0001:000ddd80       os_module_area_reset       00000000710ded80 f   module.c.obj
 0001:000dde10       os_module_area_init        00000000710dee10 f   module.c.obj
 0001:000de010       os_get_module_info         00000000710df010 f   module.c.obj
 0001:000de100       is_readable_without_exception 00000000710df100 f   module_shared.c.obj
 0001:000de1a0       get_remote_process_entry   00000000710df1a0 f   module_shared.c.obj
 0001:000de700       get_module_exports_directory 00000000710df700 f   module_shared.c.obj
 0001:000de710       get_proc_address           00000000710df710 f   module_shared.c.obj
 0001:000de720       get_proc_address_ex        00000000710df720 f   module_shared.c.obj
 0001:000de730       get_proc_address_by_ordinal 00000000710df730 f   module_shared.c.obj
 0001:000de740       get_proc_address_resolve_forward 00000000710df740 f   module_shared.c.obj
 0001:000de860       dr_symbol_export_iterator_start 00000000710df860 f   module_shared.c.obj
 0001:000de960       dr_symbol_export_iterator_hasnext 00000000710df960 f   module_shared.c.obj
 0001:000de980       dr_symbol_export_iterator_next 00000000710df980 f   module_shared.c.obj
 0001:000dea50       dr_symbol_export_iterator_stop 00000000710dfa50 f   module_shared.c.obj
 0001:000dfab0       get_system_processes       00000000710e0ab0 f   diagnost.c.obj
 0001:000e06e0       diagnost_exit              00000000710e16e0 f   diagnost.c.obj
 0001:000e0a70       report_diagnostics         00000000710e1a70 f   diagnost.c.obj
 0001:000e0dc0       aslr_pre_process_mapview   00000000710e1dc0 f   aslr.c.obj
 0001:000e0ec0       aslr_retry_map_syscall     00000000710e1ec0 f   aslr.c.obj
 0001:000e0f50       aslr_post_process_mapview  00000000710e1f50 f   aslr.c.obj
 0001:000e14c0       aslr_pre_process_unmapview 00000000710e24c0 f   aslr.c.obj
 0001:000e1510       aslr_possible_preferred_address 00000000710e2510 f   aslr.c.obj
 0001:000e1570       aslr_force_dynamorio_rebase 00000000710e2570 f   aslr.c.obj
 0001:000e1600       aslr_free_dynamorio_loadblock 00000000710e2600 f   aslr.c.obj
 0001:000e1670       aslr_post_process_allocate_virtual_memory 00000000710e2670 f   aslr.c.obj
 0001:000e1770       aslr_pre_process_free_virtual_memory 00000000710e2770 f   aslr.c.obj
 0001:000e1d60       get_file_short_name        00000000710e2d60 f   aslr.c.obj
 0001:000e27d0       aslr_is_handle_KnownDlls   00000000710e37d0 f   aslr.c.obj
 0001:000e2860       aslr_recreate_known_dll_file 00000000710e3860 f   aslr.c.obj
 0001:000e28f0       aslr_init                  00000000710e38f0 f   aslr.c.obj
 0001:000e2ad0       aslr_exit                  00000000710e3ad0 f   aslr.c.obj
 0001:000e3a20       aslr_post_process_create_or_open_section 00000000710e4a20 f   aslr.c.obj
 0001:000e3ac0       get_private_peb            00000000710e4ac0 f   loader.c.obj
 0001:000e3ad0       should_swap_peb_pointer    00000000710e4ad0 f   loader.c.obj
 0001:000e3ad0       should_swap_teb_nonstack_fields 00000000710e4ad0 f   loader.c.obj
 0001:000e3af0       is_using_app_peb           00000000710e4af0 f   loader.c.obj
 0001:000e3da0       swap_peb_pointer           00000000710e4da0 f   loader.c.obj
 0001:000e3db0       restore_peb_pointer_for_thread 00000000710e4db0 f   loader.c.obj
 0001:000e3eb0       check_app_stack_limit      00000000710e4eb0 f   loader.c.obj
 0001:000e3f80       os_using_app_state         00000000710e4f80 f   loader.c.obj
 0001:000e3f90       os_swap_context            00000000710e4f90 f   loader.c.obj
 0001:000e3fa0       privload_add_areas         00000000710e4fa0 f   loader.c.obj
 0001:000e3fc0       privload_remove_areas      00000000710e4fc0 f   loader.c.obj
 0001:000e3fe0       privload_unmap_file        00000000710e4fe0 f   loader.c.obj
 0001:000e3ff0       privload_map_and_relocate  00000000710e4ff0 f   loader.c.obj
 0001:000e41c0       privload_call_entry        00000000710e51c0 f   loader.c.obj
 0001:000e4f70       privload_attach_parent_console 00000000710e5f70 f   loader.c.obj
 0001:000e4fb0       privload_console_share     00000000710e5fb0 f   loader.c.obj
 0001:000e5370       privload_redirect_setup    00000000710e6370 f   loader.c.obj
 0001:000e5500       privload_os_finalize       00000000710e6500 f   loader.c.obj
 0001:000e5810       bootstrap_protect_virtual_memory 00000000710e6810 f   loader.c.obj
 0001:000e5a10       privload_bootstrap_dynamorio_imports 00000000710e6a10 f   loader.c.obj
 0001:000e5d40       os_loader_init_prologue    00000000710e6d40 f   loader.c.obj
 0001:000e60b0       os_loader_init_epilogue    00000000710e70b0 f   loader.c.obj
 0001:000e60c0       os_loader_exit             00000000710e70c0 f   loader.c.obj
 0001:000e61a0       os_loader_thread_init_prologue 00000000710e71a0 f   loader.c.obj
 0001:000e62f0       os_loader_thread_init_epilogue 00000000710e72f0 f   loader.c.obj
 0001:000e6330       privload_unload_imports    00000000710e7330 f   loader.c.obj
 0001:000e6530       privload_load_private_library 00000000710e7530 f   loader.c.obj
 0001:000e6590       privload_load_finalized    00000000710e7590 f   loader.c.obj
 0001:000e68e0       privload_process_imports   00000000710e78e0 f   loader.c.obj
 0001:000e6ae0       drwinapi_init              00000000710e7ae0 f   drwinapi.c.obj
 0001:000e6b00       drwinapi_exit              00000000710e7b00 f   drwinapi.c.obj
 0001:000e6b20       drwinapi_onload            00000000710e7b20 f   drwinapi.c.obj
 0001:000e6ba0       drwinapi_redirect_imports  00000000710e7ba0 f   drwinapi.c.obj
 0001:000e6d40       drwinapi_redirect_getprocaddr 00000000710e7d40 f   drwinapi.c.obj
 0001:000e6de0       ntstatus_to_last_error     00000000710e7de0 f   drwinapi.c.obj
 0001:000e7000       redirect_ignore_arg8       00000000710e8000 f   drwinapi.c.obj
 0001:000e7000       redirect_ignore_arg12      00000000710e8000 f   drwinapi.c.obj
 0001:000e7000       redirect_ignore_arg0       00000000710e8000 f   drwinapi.c.obj
 0001:000e7000       redirect_ignore_arg4       00000000710e8000 f   drwinapi.c.obj
 0001:000e7000       redirect_RtlSetHeapInformation 00000000710e8000 f   ntdll_redir.c.obj
 0001:000e7010       ntdll_redir_init           00000000710e8010 f   ntdll_redir.c.obj
 0001:000e7140       ntdll_redir_exit           00000000710e8140 f   ntdll_redir.c.obj
 0001:000e7170       ntdll_redir_lookup         00000000710e8170 f   ntdll_redir.c.obj
 0001:000e7230       redirect_RtlCreateHeap     00000000710e8230 f   ntdll_redir.c.obj
 0001:000e7270       redirect_RtlDestroyHeap    00000000710e8270 f   ntdll_redir.c.obj
 0001:000e72d0       redirect_RtlAllocateHeap   00000000710e82d0 f   ntdll_redir.c.obj
 0001:000e7390       redirect_RtlFreeHeap       00000000710e8390 f   ntdll_redir.c.obj
 0001:000e7440       redirect_RtlSizeHeap       00000000710e8440 f   ntdll_redir.c.obj
 0001:000e74e0       redirect_RtlValidateHeap   00000000710e84e0 f   ntdll_redir.c.obj
 0001:000e7560       redirect_RtlLockHeap       00000000710e8560 f   ntdll_redir.c.obj
 0001:000e75b0       redirect_RtlUnlockHeap     00000000710e85b0 f   ntdll_redir.c.obj
 0001:000e7600       redirect_RtlFreeUnicodeString 00000000710e8600 f   ntdll_redir.c.obj
 0001:000e7650       redirect_RtlFreeAnsiString 00000000710e8650 f   ntdll_redir.c.obj
 0001:000e76a0       redirect_RtlFreeOemString  00000000710e86a0 f   ntdll_redir.c.obj
 0001:000e76f0       redirect_RtlInitializeCriticalSectionEx 00000000710e86f0 f   ntdll_redir.c.obj
 0001:000e77e0       redirect_RtlDeleteCriticalSection 00000000710e87e0 f   ntdll_redir.c.obj
 0001:000e7860       redirect_NtCreateFile      00000000710e8860 f   ntdll_redir.c.obj
 0001:000e78c0       redirect_NtCreateKey       00000000710e88c0 f   ntdll_redir.c.obj
 0001:000e78f0       redirect_NtMapViewOfSection 00000000710e88f0 f   ntdll_redir.c.obj
 0001:000e7950       redirect_NtOpenFile        00000000710e8950 f   ntdll_redir.c.obj
 0001:000e7970       redirect_NtOpenKey         00000000710e8970 f   ntdll_redir.c.obj
 0001:000e7980       redirect_NtOpenKeyEx       00000000710e8980 f   ntdll_redir.c.obj
 0001:000e7990       redirect_NtOpenProcess     00000000710e8990 f   ntdll_redir.c.obj
 0001:000e79a0       redirect_NtOpenProcessToken 00000000710e89a0 f   ntdll_redir.c.obj
 0001:000e79b0       redirect_NtOpenProcessTokenEx 00000000710e89b0 f   ntdll_redir.c.obj
 0001:000e79c0       redirect_NtOpenThread      00000000710e89c0 f   ntdll_redir.c.obj
 0001:000e79d0       redirect_NtOpenThreadToken 00000000710e89d0 f   ntdll_redir.c.obj
 0001:000e79e0       redirect_NtOpenThreadTokenEx 00000000710e89e0 f   ntdll_redir.c.obj
 0001:000e7a00       redirect_NtQueryAttributesFile 00000000710e8a00 f   ntdll_redir.c.obj
 0001:000e7a10       redirect_NtQueryFullAttributesFile 00000000710e8a10 f   ntdll_redir.c.obj
 0001:000e7a20       redirect_NtSetInformationFile 00000000710e8a20 f   ntdll_redir.c.obj
 0001:000e7a40       redirect_NtSetInformationThread 00000000710e8a40 f   ntdll_redir.c.obj
 0001:000e7a50       redirect_NtUnmapViewOfSection 00000000710e8a50 f   ntdll_redir.c.obj
 0001:000e7a60       redirect_LdrGetProcedureAddress 00000000710e8a60 f   ntdll_redir.c.obj
 0001:000e7aa0       redirect_LdrLoadDll        00000000710e8aa0 f   ntdll_redir.c.obj
 0001:000e7b20       redirect_RtlPcToFileHeader 00000000710e8b20 f   ntdll_redir.c.obj
 0001:000e7ba0       ntdll_redir_fls_init       00000000710e8ba0 f   ntdll_redir.c.obj
 0001:000e7c50       ntdll_redir_fls_exit       00000000710e8c50 f   ntdll_redir.c.obj
 0001:000e7c90       redirect_RtlFlsAlloc       00000000710e8c90 f   ntdll_redir.c.obj
 0001:000e7d60       redirect_RtlFlsFree        00000000710e8d60 f   ntdll_redir.c.obj
 0001:000e7e30       redirect_RtlProcessFlsData 00000000710e8e30 f   ntdll_redir.c.obj
 0001:000e7fa0       redirect_RtlReAllocateHeap 00000000710e8fa0 f   ntdll_redir.c.obj
 0001:000e8090       redirect_RtlInitializeCriticalSection 00000000710e9090 f   ntdll_redir.c.obj
 0001:000e80a0       redirect_RtlInitializeCriticalSectionAndSpinCount 00000000710e90a0 f   ntdll_redir.c.obj
 0001:000e80b0       kernel32_redir_init        00000000710e90b0 f   kernel32_redir.c.obj
 0001:000e8170       kernel32_redir_exit        00000000710e9170 f   kernel32_redir.c.obj
 0001:000e81a0       kernel32_redir_onload      00000000710e91a0 f   kernel32_redir.c.obj
 0001:000e8250       kernel32_redir_lookup      00000000710e9250 f   kernel32_redir.c.obj
 0001:000e82b0       kernel32_redir_onload_proc 00000000710e92b0 f   kernel32_proc.c.obj
 0001:000e82f0       dr_get_logfile             00000000710e92f0 f   instrument.c.obj
 0001:000e82f0       redirect_GetCurrentProcess 00000000710e92f0 f   kernel32_proc.c.obj
 0001:000e8300       dr_get_process_id          00000000710e9300 f   instrument.c.obj
 0001:000e8300       redirect_GetCurrentProcessId 00000000710e9300 f   kernel32_proc.c.obj
 0001:000e8310       redirect_ExitProcess       00000000710e9310 f   kernel32_proc.c.obj
 0001:000e8320       redirect_GetCurrentThread  00000000710e9320 f   kernel32_proc.c.obj
 0001:000e8330       redirect_GetCurrentThreadId 00000000710e9330 f   kernel32_proc.c.obj
 0001:000e8340       redirect_FlsAlloc          00000000710e9340 f   kernel32_proc.c.obj
 0001:000e8380       redirect_FlsFree           00000000710e9380 f   kernel32_proc.c.obj
 0001:000e83b0       redirect_FlsGetValue       00000000710e93b0 f   kernel32_proc.c.obj
 0001:000e83f0       redirect_FlsSetValue       00000000710e93f0 f   kernel32_proc.c.obj
 0001:000e8490       kernel32_redir_onload_lib  00000000710e9490 f   kernel32_lib.c.obj
 0001:000e8520       redirect_GetModuleHandleA  00000000710e9520 f   kernel32_lib.c.obj
 0001:000e8590       redirect_GetModuleHandleW  00000000710e9590 f   kernel32_lib.c.obj
 0001:000e8640       redirect_GetProcAddress    00000000710e9640 f   kernel32_lib.c.obj
 0001:000e8690       redirect_LoadLibraryW      00000000710e9690 f   kernel32_lib.c.obj
 0001:000e8700       redirect_LoadLibraryA      00000000710e9700 f   kernel32_lib.c.obj
 0001:000e8700       redirect_LoadLibraryExA    00000000710e9700 f   kernel32_lib.c.obj
 0001:000e8730       redirect_LoadLibraryExW    00000000710e9730 f   kernel32_lib.c.obj
 0001:000e8740       redirect_FreeLibrary       00000000710e9740 f   kernel32_lib.c.obj
 0001:000e8760       redirect_GetModuleFileNameA 00000000710e9760 f   kernel32_lib.c.obj
 0001:000e8830       redirect_GetModuleFileNameW 00000000710e9830 f   kernel32_lib.c.obj
 0001:000e8910       kernel32_redir_init_mem    00000000710e9910 f   kernel32_mem.c.obj
 0001:000e8930       kernel32_redir_exit_mem    00000000710e9930 f   kernel32_mem.c.obj
 0001:000e8940       redirect_EncodePointer     00000000710e9940 f   kernel32_mem.c.obj
 0001:000e8940       redirect_DecodePointer     00000000710e9940 f   kernel32_mem.c.obj
 0001:000e8950       redirect_GetProcessHeap    00000000710e9950 f   kernel32_mem.c.obj
 0001:000e8970       redirect_HeapAlloc         00000000710e9970 f   kernel32_mem.c.obj
 0001:000e8980       redirect_HeapCompact       00000000710e9980 f   kernel32_mem.c.obj
 0001:000e8990       redirect_HeapCreate        00000000710e9990 f   kernel32_mem.c.obj
 0001:000e89d0       redirect_HeapDestroy       00000000710e99d0 f   kernel32_mem.c.obj
 0001:000e89e0       redirect_HeapFree          00000000710e99e0 f   kernel32_mem.c.obj
 0001:000e89f0       redirect_HeapReAlloc       00000000710e99f0 f   kernel32_mem.c.obj
 0001:000e8a00       redirect_HeapSetInformation 00000000710e9a00 f   kernel32_mem.c.obj
 0001:000e8a30       redirect_HeapSize          00000000710e9a30 f   kernel32_mem.c.obj
 0001:000e8a40       redirect_HeapValidate      00000000710e9a40 f   kernel32_mem.c.obj
 0001:000e8a50       redirect_HeapWalk          00000000710e9a50 f   kernel32_mem.c.obj
 0001:000e8a70       redirect_LocalAlloc        00000000710e9a70 f   kernel32_mem.c.obj
 0001:000e8b00       redirect_LocalFree         00000000710e9b00 f   kernel32_mem.c.obj
 0001:000e8b70       redirect_LocalReAlloc      00000000710e9b70 f   kernel32_mem.c.obj
 0001:000e8ce0       redirect_LocalLock         00000000710e9ce0 f   kernel32_mem.c.obj
 0001:000e8d30       redirect_LocalHandle       00000000710e9d30 f   kernel32_mem.c.obj
 0001:000e8d50       redirect_LocalUnlock       00000000710e9d50 f   kernel32_mem.c.obj
 0001:000e8db0       redirect_LocalSize         00000000710e9db0 f   kernel32_mem.c.obj
 0001:000e8e10       redirect_LocalFlags        00000000710e9e10 f   kernel32_mem.c.obj
 0001:000e8ea0       redirect_IsBadReadPtr      00000000710e9ea0 f   kernel32_mem.c.obj
 0001:000e8ed0       redirect_ReadProcessMemory 00000000710e9ed0 f   kernel32_mem.c.obj
 0001:000e8f20       redirect_VirtualAlloc      00000000710e9f20 f   kernel32_mem.c.obj
 0001:000e8ff0       redirect_VirtualFree       00000000710e9ff0 f   kernel32_mem.c.obj
 0001:000e9040       redirect_VirtualProtect    00000000710ea040 f   kernel32_mem.c.obj
 0001:000e9120       redirect_VirtualQueryEx    00000000710ea120 f   kernel32_mem.c.obj
 0001:000e9160       redirect_VirtualQuery      00000000710ea160 f   kernel32_mem.c.obj
 0001:000e91b0       kernel32_redir_init_file   00000000710ea1b0 f   kernel32_file.c.obj
 0001:000e9290       kernel32_redir_exit_file   00000000710ea290 f   kernel32_file.c.obj
 0001:000e92b0       kernel32_redir_onload_file 00000000710ea2b0 f   kernel32_file.c.obj
 0001:000e9430       redirect_CreateDirectoryA  00000000710ea430 f   kernel32_file.c.obj
 0001:000e9490       redirect_CreateDirectoryW  00000000710ea490 f   kernel32_file.c.obj
 0001:000e9530       redirect_GetCurrentDirectoryW 00000000710ea530 f   kernel32_file.c.obj
 0001:000e95c0       redirect_SetCurrentDirectoryW 00000000710ea5c0 f   kernel32_file.c.obj
 0001:000e9980       redirect_CreateFileA       00000000710ea980 f   kernel32_file.c.obj
 0001:000e9a10       redirect_CreateFileW       00000000710eaa10 f   kernel32_file.c.obj
 0001:000e9ad0       redirect_DeleteFileA       00000000710eaad0 f   kernel32_file.c.obj
 0001:000e9b50       redirect_DeleteFileW       00000000710eab50 f   kernel32_file.c.obj
 0001:000e9c10       redirect_ReadFile          00000000710eac10 f   kernel32_file.c.obj
 0001:000e9d30       redirect_GetFileAttributesW 00000000710ead30 f   kernel32_file.c.obj
 0001:000e9e00       redirect_GetFileInformationByHandle 00000000710eae00 f   kernel32_file.c.obj
 0001:000e9f40       redirect_GetFileSize       00000000710eaf40 f   kernel32_file.c.obj
 0001:000e9f90       redirect_GetFileType       00000000710eaf90 f   kernel32_file.c.obj
 0001:000ea050       redirect_CreateFileMappingW 00000000710eb050 f   kernel32_file.c.obj
 0001:000ea1b0       redirect_MapViewOfFileEx   00000000710eb1b0 f   kernel32_file.c.obj
 0001:000ea2b0       redirect_UnmapViewOfFile   00000000710eb2b0 f   kernel32_file.c.obj
 0001:000ea2f0       redirect_FlushViewOfFile   00000000710eb2f0 f   kernel32_file.c.obj
 0001:000ea350       redirect_CreatePipe        00000000710eb350 f   kernel32_file.c.obj
 0001:000ea560       redirect_DeviceIoControl   00000000710eb560 f   kernel32_file.c.obj
 0001:000ea680       open_dir_from_path         00000000710eb680 f   kernel32_file.c.obj
 0001:000ea7b0       redirect_GetDiskFreeSpaceW 00000000710eb7b0 f   kernel32_file.c.obj
 0001:000ea880       redirect_GetDriveTypeW     00000000710eb880 f   kernel32_file.c.obj
 0001:000ea9c0       redirect_CloseHandle       00000000710eb9c0 f   kernel32_file.c.obj
 0001:000ea9c0       redirect_FindClose         00000000710eb9c0 f   kernel32_file.c.obj
 0001:000ea9e0       redirect_DuplicateHandle   00000000710eb9e0 f   kernel32_file.c.obj
 0001:000eaa20       redirect_GetStdHandle      00000000710eba20 f   kernel32_file.c.obj
 0001:000eaa70       redirect_FileTimeToLocalFileTime 00000000710eba70 f   kernel32_file.c.obj
 0001:000eaaf0       redirect_LocalFileTimeToFileTime 00000000710ebaf0 f   kernel32_file.c.obj
 0001:000eab70       redirect_FileTimeToSystemTime 00000000710ebb70 f   kernel32_file.c.obj
 0001:000eab90       redirect_SystemTimeToFileTime 00000000710ebb90 f   kernel32_file.c.obj
 0001:000eabc0       redirect_GetSystemTimeAsFileTime 00000000710ebbc0 f   kernel32_file.c.obj
 0001:000eac00       redirect_GetFileTime       00000000710ebc00 f   kernel32_file.c.obj
 0001:000eaca0       redirect_SetFileTime       00000000710ebca0 f   kernel32_file.c.obj
 0001:000eb1b0       redirect_FindFirstFileA    00000000710ec1b0 f   kernel32_file.c.obj
 0001:000eb260       redirect_FindFirstFileW    00000000710ec260 f   kernel32_file.c.obj
 0001:000eb340       redirect_FindNextFileA     00000000710ec340 f   kernel32_file.c.obj
 0001:000eb390       redirect_FindNextFileW     00000000710ec390 f   kernel32_file.c.obj
 0001:000eb3e0       redirect_FlushFileBuffers  00000000710ec3e0 f   kernel32_file.c.obj
 0001:000eb410       redirect_RemoveDirectoryA  00000000710ec410 f   kernel32_file.c.obj
 0001:000eb420       redirect_RemoveDirectoryW  00000000710ec420 f   kernel32_file.c.obj
 0001:000eb430       redirect_GetCurrentDirectoryA 00000000710ec430 f   kernel32_file.c.obj
 0001:000eb4d0       redirect_SetCurrentDirectoryA 00000000710ec4d0 f   kernel32_file.c.obj
 0001:000eb570       redirect_GetFileAttributesA 00000000710ec570 f   kernel32_file.c.obj
 0001:000eb5d0       redirect_CreateFileMappingA 00000000710ec5d0 f   kernel32_file.c.obj
 0001:000eb690       redirect_MapViewOfFile     00000000710ec690 f   kernel32_file.c.obj
 0001:000eb6c0       redirect_GetDiskFreeSpaceA 00000000710ec6c0 f   kernel32_file.c.obj
 0001:000eb760       redirect_GetDriveTypeA     00000000710ec760 f   kernel32_file.c.obj
 0001:000eb7c0       redirect_InitializeCriticalSectionAndSpinCount 00000000710ec7c0 f   kernel32_sync.c.obj
 0001:000eb7f0       redirect_InitializeCriticalSectionEx 00000000710ec7f0 f   kernel32_sync.c.obj
 0001:000eb820       redirect_DeleteCriticalSection 00000000710ec820 f   kernel32_sync.c.obj
 0001:000eb830       redirect_EnterCriticalSection 00000000710ec830 f   kernel32_sync.c.obj
 0001:000eb840       redirect_LeaveCriticalSection 00000000710ec840 f   kernel32_sync.c.obj
 0001:000eb850       redirect_InterlockedCompareExchange 00000000710ec850 f   kernel32_sync.c.obj
 0001:000eb860       redirect_InterlockedDecrement 00000000710ec860 f   kernel32_sync.c.obj
 0001:000eb870       redirect_InterlockedExchange 00000000710ec870 f   kernel32_sync.c.obj
 0001:000eb880       redirect_InterlockedIncrement 00000000710ec880 f   kernel32_sync.c.obj
 0001:000eb890       redirect_WaitForSingleObject 00000000710ec890 f   kernel32_sync.c.obj
 0001:000eb900       redirect_GetLastError      00000000710ec900 f   kernel32_misc.c.obj
 0001:000eb910       redirect_SetLastError      00000000710ec910 f   kernel32_misc.c.obj
 0001:000eb920       rpcrt4_redir_init          00000000710ec920 f   rpcrt4_redir.c.obj
 0001:000eb9b0       rpcrt4_redir_exit          00000000710ec9b0 f   rpcrt4_redir.c.obj
 0001:000eb9c0       rpcrt4_redir_lookup        00000000710ec9c0 f   rpcrt4_redir.c.obj
 0001:000eba20       redirect_UuidCreate        00000000710eca20 f   rpcrt4_redir.c.obj
 0001:000ebab0       advapi32_redir_init        00000000710ecab0 f   advapi32_redir.c.obj
 0001:000ebb60       advapi32_redir_exit        00000000710ecb60 f   advapi32_redir.c.obj
 0001:000ebb70       dr_app_stop                00000000710ecb70 f   dynamo.c.obj
 0001:000ebb70       os_tls_init                00000000710ecb70 f   os.c.obj
 0001:000ebb70       instrument_thread_exit     00000000710ecb70 f   instrument.c.obj
 0001:000ebb70       ntdll_exit                 00000000710ecb70 f   ntdll.c.obj
 0001:000ebb70       arch_thread_exit           00000000710ecb70 f   arch.c.obj
 0001:000ebb70       native_module_init         00000000710ecb70 f   native_pe.c.obj
 0001:000ebb70       perscache_slow_exit        00000000710ecb70 f   perscache.c.obj
 0001:000ebb70       update_all_memory_areas    00000000710ecb70 f   os.c.obj
 0001:000ebb70       monitor_thread_reset_init  00000000710ecb70 f   monitor.c.obj
 0001:000ebb70       callback_init              00000000710ecb70 f   callback.c.obj
 0001:000ebb70       patch_stub                 00000000710ecb70 f   emit_utils.c.obj
 0001:000ebb70       loginst                    00000000710ecb70 f   instr_shared.c.obj
 0001:000ebb70       all_memory_areas_lock      00000000710ecb70 f   os.c.obj
 0001:000ebb70       check_for_run_once         00000000710ecb70 f   inject_shared.c.obj
 0001:000ebb70       monitor_init               00000000710ecb70 f   monitor.c.obj
 0001:000ebb70       interp_init                00000000710ecb70 f   interp.c.obj
 0001:000ebb70       logopnd                    00000000710ecb70 f   instr_shared.c.obj
 0001:000ebb70       synch_init                 00000000710ecb70 f   synch.c.obj
 0001:000ebb70       dr_request_synchronized_exit 00000000710ecb70 f   instrument.c.obj
 0001:000ebb70       os_tls_exit                00000000710ecb70 f   os.c.obj
 0001:000ebb70       advapi32_redir_onload      00000000710ecb70 f   advapi32_redir.c.obj
 0001:000ebb70       native_module_exit         00000000710ecb70 f   native_pe.c.obj
 0001:000ebb70       os_terminate_wow64_write_args 00000000710ecb70 f   os.c.obj
 0001:000ebb70       native_module_unhook       00000000710ecb70 f   native_pe.c.obj
 0001:000ebb70       mutex_mark_as_app          00000000710ecb70 f   utils.c.obj
 0001:000ebb70       internal_error             00000000710ecb70 f   drhelper:dr_helper.c.obj
 0001:000ebb70       kernel32_redir_exit_proc   00000000710ecb70 f   kernel32_proc.c.obj
 0001:000ebb70       machine_cache_sync         00000000710ecb70 f   proc.c.obj
 0001:000ebb70       all_memory_areas_unlock    00000000710ecb70 f   os.c.obj
 0001:000ebb70       unpatch_stub               00000000710ecb70 f   emit_utils.c.obj
 0001:000ebb70       dr_log                     00000000710ecb70 f   instrument.c.obj
 0001:000ebb70       loader_pre_client_thread_exit 00000000710ecb70 f   loader.c.obj
 0001:000ebb70       aslr_thread_init           00000000710ecb70 f   aslr.c.obj
 0001:000ebb70       rpcrt4_redir_onload        00000000710ecb70 f   rpcrt4_redir.c.obj
 0001:000ebb70       os_loader_thread_exit      00000000710ecb70 f   loader.c.obj
 0001:000ebb70       aslr_thread_exit           00000000710ecb70 f   aslr.c.obj
 0001:000ebb70       config_exit                00000000710ecb70 f   config.c.obj
 0001:000ebb70       native_module_hook         00000000710ecb70 f   native_pe.c.obj
 0001:000ebb80       advapi32_redir_lookup      00000000710ecb80 f   advapi32_redir.c.obj
 0001:000ebbe0       redirect_RegCloseKey       00000000710ecbe0 f   advapi32_redir.c.obj
 0001:000ebe40       redirect_RegOpenKeyExW     00000000710ece40 f   advapi32_redir.c.obj
 0001:000ebfc0       redirect_RegQueryValueExW  00000000710ecfc0 f   advapi32_redir.c.obj
 0001:000ec210       redirect_RegOpenKeyExA     00000000710ed210 f   advapi32_redir.c.obj
 0001:000ec2a0       redirect_RegQueryValueExA  00000000710ed2a0 f   advapi32_redir.c.obj
 0001:000ec44e       memcpy                     00000000710ed44e f   ntdll_imports:ntdll.dll
 0001:000ec454       strncpy                    00000000710ed454 f   ntdll_imports:ntdll.dll
 0001:000ec45a       strncat                    00000000710ed45a f   ntdll_imports:ntdll.dll
 0001:000ec460       strncmp                    00000000710ed460 f   ntdll_imports:ntdll.dll
 0001:000ec466       memset                     00000000710ed466 f   ntdll_imports:ntdll.dll
 0001:000ec46c       tolower                    00000000710ed46c f   ntdll_imports:ntdll.dll
 0001:000ec472       _stricmp                   00000000710ed472 f   ntdll_imports:ntdll.dll
 0001:000ec478       strchr                     00000000710ed478 f   ntdll_imports:ntdll.dll
 0001:000ec47e       strstr                     00000000710ed47e f   ntdll_imports:ntdll.dll
 0001:000ec484       memmove                    00000000710ed484 f   ntdll_imports:ntdll.dll
 0001:000ec48a       memcmp                     00000000710ed48a f   ntdll_imports:ntdll.dll
 0001:000ec490       _strnicmp                  00000000710ed490 f   ntdll_imports:ntdll.dll
 0001:000ec496       strrchr                    00000000710ed496 f   ntdll_imports:ntdll.dll
 0001:000ec49c       strtoul                    00000000710ed49c f   ntdll_imports:ntdll.dll
 0001:000ec4a2       wcsstr                     00000000710ed4a2 f   ntdll_imports:ntdll.dll
 0001:000ec4a8       wcsncpy                    00000000710ed4a8 f   ntdll_imports:ntdll.dll
 0001:000ec4ae       wcsncmp                    00000000710ed4ae f   ntdll_imports:ntdll.dll
 0001:000ec4b4       _wcsicmp                   00000000710ed4b4 f   ntdll_imports:ntdll.dll
 0001:000ec4ba       atoi                       00000000710ed4ba f   ntdll_imports:ntdll.dll
 0001:000ec4c0       iswctype                   00000000710ed4c0 f   ntdll_imports:ntdll.dll
 0001:000ec4c6       wcschr                     00000000710ed4c6 f   ntdll_imports:ntdll.dll
 0001:000ec4cc       wcsncat                    00000000710ed4cc f   ntdll_imports:ntdll.dll
 0001:000ec4d2       RtlCreateHeap              00000000710ed4d2 f   ntdll_imports:ntdll.dll
 0001:000ec4d8       RtlDestroyHeap             00000000710ed4d8 f   ntdll_imports:ntdll.dll
 0001:000ec4de       RtlAllocateHeap            00000000710ed4de f   ntdll_imports:ntdll.dll
 0001:000ec4e4       RtlFreeHeap                00000000710ed4e4 f   ntdll_imports:ntdll.dll
 0001:000ec4ea       RtlSizeHeap                00000000710ed4ea f   ntdll_imports:ntdll.dll
 0001:000ec4f0       RtlValidateHeap            00000000710ed4f0 f   ntdll_imports:ntdll.dll
 0001:000ec4f6       RtlLockHeap                00000000710ed4f6 f   ntdll_imports:ntdll.dll
 0001:000ec4fc       RtlUnlockHeap              00000000710ed4fc f   ntdll_imports:ntdll.dll
 0001:000ec502       RtlFreeUnicodeString       00000000710ed502 f   ntdll_imports:ntdll.dll
 0001:000ec508       RtlFreeAnsiString          00000000710ed508 f   ntdll_imports:ntdll.dll
 0001:000ec50e       RtlFreeOemString           00000000710ed50e f   ntdll_imports:ntdll.dll
 0001:000ec514       RtlReAllocateHeap          00000000710ed514 f   ntdll_imports:ntdll.dll
 0001:000ec520       dr_fpu_exception_init      00000000710ed520 f   drhelper:x86_shared.asm.obj
 0001:000ec52d       get_mmx_val                00000000710ed52d f   drhelper:x86_shared.asm.obj
 0001:000ec581       get_frame_ptr              00000000710ed581 f   drhelper:x86_shared.asm.obj
 0001:000ec585       get_stack_ptr              00000000710ed585 f   drhelper:x86_shared.asm.obj
 0001:000ec58d       load_dynamo                00000000710ed58d f   drhelper:x86_shared.asm.obj
 0001:000ec5c6       load_dynamo_failure        00000000710ed5c6 f   drhelper:x86_shared.asm.obj
 0001:000ec600       unexpected_return          00000000710ed600 f   drhelper:asm_shared.asm.obj
 0002:00000000       __imp_memcpy               00000000710ee000     ntdll_imports:ntdll.dll
 0002:00000008       __imp_strncpy              00000000710ee008     ntdll_imports:ntdll.dll
 0002:00000010       __imp_strncat              00000000710ee010     ntdll_imports:ntdll.dll
 0002:00000018       __imp_strncmp              00000000710ee018     ntdll_imports:ntdll.dll
 0002:00000020       __imp_memset               00000000710ee020     ntdll_imports:ntdll.dll
 0002:00000028       __imp_tolower              00000000710ee028     ntdll_imports:ntdll.dll
 0002:00000030       __imp__stricmp             00000000710ee030     ntdll_imports:ntdll.dll
 0002:00000038       __imp_strchr               00000000710ee038     ntdll_imports:ntdll.dll
 0002:00000040       __imp_strstr               00000000710ee040     ntdll_imports:ntdll.dll
 0002:00000048       __imp_memmove              00000000710ee048     ntdll_imports:ntdll.dll
 0002:00000050       __imp_memcmp               00000000710ee050     ntdll_imports:ntdll.dll
 0002:00000058       __imp__strnicmp            00000000710ee058     ntdll_imports:ntdll.dll
 0002:00000060       __imp_strrchr              00000000710ee060     ntdll_imports:ntdll.dll
 0002:00000068       __imp_strtoul              00000000710ee068     ntdll_imports:ntdll.dll
 0002:00000070       __imp_wcsstr               00000000710ee070     ntdll_imports:ntdll.dll
 0002:00000078       __imp_wcsncpy              00000000710ee078     ntdll_imports:ntdll.dll
 0002:00000080       __imp_LdrLoadDll           00000000710ee080     ntdll_imports:ntdll.dll
 0002:00000088       __imp_wcsncmp              00000000710ee088     ntdll_imports:ntdll.dll
 0002:00000090       __imp_KiUserApcDispatcher  00000000710ee090     ntdll_imports:ntdll.dll
 0002:00000098       __imp_NtCallbackReturn     00000000710ee098     ntdll_imports:ntdll.dll
 0002:000000a0       __imp_KiUserExceptionDispatcher 00000000710ee0a0     ntdll_imports:ntdll.dll
 0002:000000a8       __imp_KiUserCallbackDispatcher 00000000710ee0a8     ntdll_imports:ntdll.dll
 0002:000000b0       __imp_KiRaiseUserExceptionDispatcher 00000000710ee0b0     ntdll_imports:ntdll.dll
 0002:000000b8       __imp_LdrUnloadDll         00000000710ee0b8     ntdll_imports:ntdll.dll
 0002:000000c0       __imp__wcsicmp             00000000710ee0c0     ntdll_imports:ntdll.dll
 0002:000000c8       __imp_NtTestAlert          00000000710ee0c8     ntdll_imports:ntdll.dll
 0002:000000d0       __imp_NtQueryInformationThread 00000000710ee0d0     ntdll_imports:ntdll.dll
 0002:000000d8       __imp_NtQuerySystemInformation 00000000710ee0d8     ntdll_imports:ntdll.dll
 0002:000000e0       __imp_NtQueryInformationProcess 00000000710ee0e0     ntdll_imports:ntdll.dll
 0002:000000e8       __imp_RtlLeaveCriticalSection 00000000710ee0e8     ntdll_imports:ntdll.dll
 0002:000000f0       __imp_RtlEnterCriticalSection 00000000710ee0f0     ntdll_imports:ntdll.dll
 0002:000000f8       __imp_NtAllocateVirtualMemory 00000000710ee0f8     ntdll_imports:ntdll.dll
 0002:00000100       __imp_NtFreeVirtualMemory  00000000710ee100     ntdll_imports:ntdll.dll
 0002:00000108       __imp_NtProtectVirtualMemory 00000000710ee108     ntdll_imports:ntdll.dll
 0002:00000110       __imp_NtQueryVirtualMemory 00000000710ee110     ntdll_imports:ntdll.dll
 0002:00000118       __imp_NtReadVirtualMemory  00000000710ee118     ntdll_imports:ntdll.dll
 0002:00000120       __imp_NtWriteVirtualMemory 00000000710ee120     ntdll_imports:ntdll.dll
 0002:00000128       __imp_NtContinue           00000000710ee128     ntdll_imports:ntdll.dll
 0002:00000130       __imp_NtGetContextThread   00000000710ee130     ntdll_imports:ntdll.dll
 0002:00000138       __imp_NtSetContextThread   00000000710ee138     ntdll_imports:ntdll.dll
 0002:00000140       __imp_NtSuspendThread      00000000710ee140     ntdll_imports:ntdll.dll
 0002:00000148       __imp_NtResumeThread       00000000710ee148     ntdll_imports:ntdll.dll
 0002:00000150       __imp_NtTerminateThread    00000000710ee150     ntdll_imports:ntdll.dll
 0002:00000158       __imp_NtTerminateProcess   00000000710ee158     ntdll_imports:ntdll.dll
 0002:00000160       __imp_NtDelayExecution     00000000710ee160     ntdll_imports:ntdll.dll
 0002:00000168       __imp_NtYieldExecution     00000000710ee168     ntdll_imports:ntdll.dll
 0002:00000170       __imp_NtClose              00000000710ee170     ntdll_imports:ntdll.dll
 0002:00000178       __imp_NtDuplicateObject    00000000710ee178     ntdll_imports:ntdll.dll
 0002:00000180       __imp_NtQueryObject        00000000710ee180     ntdll_imports:ntdll.dll
 0002:00000188       __imp_RtlInitUnicodeString 00000000710ee188     ntdll_imports:ntdll.dll
 0002:00000190       __imp_NtQueryValueKey      00000000710ee190     ntdll_imports:ntdll.dll
 0002:00000198       __imp_NtOpenKey            00000000710ee198     ntdll_imports:ntdll.dll
 0002:000001a0       __imp_NtSetValueKey        00000000710ee1a0     ntdll_imports:ntdll.dll
 0002:000001a8       __imp_NtEnumerateKey       00000000710ee1a8     ntdll_imports:ntdll.dll
 0002:000001b0       __imp_NtEnumerateValueKey  00000000710ee1b0     ntdll_imports:ntdll.dll
 0002:000001b8       __imp_NtQuerySystemTime    00000000710ee1b8     ntdll_imports:ntdll.dll
 0002:000001c0       __imp_NtFlushBuffersFile   00000000710ee1c0     ntdll_imports:ntdll.dll
 0002:000001c8       __imp_NtReadFile           00000000710ee1c8     ntdll_imports:ntdll.dll
 0002:000001d0       __imp_NtWriteFile          00000000710ee1d0     ntdll_imports:ntdll.dll
 0002:000001d8       __imp_NtCreateIoCompletion 00000000710ee1d8     ntdll_imports:ntdll.dll
 0002:000001e0       __imp_NtRaiseHardError     00000000710ee1e0     ntdll_imports:ntdll.dll
 0002:000001e8       __imp_NtCreateEvent        00000000710ee1e8     ntdll_imports:ntdll.dll
 0002:000001f0       __imp_NtWaitForSingleObject 00000000710ee1f0     ntdll_imports:ntdll.dll
 0002:000001f8       __imp_NtSetEvent           00000000710ee1f8     ntdll_imports:ntdll.dll
 0002:00000200       __imp_NtQueryPerformanceCounter 00000000710ee200     ntdll_imports:ntdll.dll
 0002:00000208       __imp_NtCancelIoFile       00000000710ee208     ntdll_imports:ntdll.dll
 0002:00000210       __imp_NtFsControlFile      00000000710ee210     ntdll_imports:ntdll.dll
 0002:00000218       __imp_NtCreateProfile      00000000710ee218     ntdll_imports:ntdll.dll
 0002:00000220       __imp_NtSetIntervalProfile 00000000710ee220     ntdll_imports:ntdll.dll
 0002:00000228       __imp_NtQueryIntervalProfile 00000000710ee228     ntdll_imports:ntdll.dll
 0002:00000230       __imp_NtStartProfile       00000000710ee230     ntdll_imports:ntdll.dll
 0002:00000238       __imp_NtStopProfile        00000000710ee238     ntdll_imports:ntdll.dll
 0002:00000240       __imp_NtCreateThread       00000000710ee240     ntdll_imports:ntdll.dll
 0002:00000248       __imp_LdrGetDllHandle      00000000710ee248     ntdll_imports:ntdll.dll
 0002:00000250       __imp_NtCreateDirectoryObject 00000000710ee250     ntdll_imports:ntdll.dll
 0002:00000258       __imp_NtOpenDirectoryObject 00000000710ee258     ntdll_imports:ntdll.dll
 0002:00000260       __imp_NtQuerySymbolicLinkObject 00000000710ee260     ntdll_imports:ntdll.dll
 0002:00000268       __imp_NtOpenSymbolicLinkObject 00000000710ee268     ntdll_imports:ntdll.dll
 0002:00000270       __imp_NtCreateSection      00000000710ee270     ntdll_imports:ntdll.dll
 0002:00000278       __imp_NtOpenSection        00000000710ee278     ntdll_imports:ntdll.dll
 0002:00000280       __imp_NtQueryInformationFile 00000000710ee280     ntdll_imports:ntdll.dll
 0002:00000288       __imp_NtSetInformationFile 00000000710ee288     ntdll_imports:ntdll.dll
 0002:00000290       __imp_NtQueryVolumeInformationFile 00000000710ee290     ntdll_imports:ntdll.dll
 0002:00000298       __imp_NtQuerySecurityObject 00000000710ee298     ntdll_imports:ntdll.dll
 0002:000002a0       __imp_NtCreateFile         00000000710ee2a0     ntdll_imports:ntdll.dll
 0002:000002a8       __imp_NtOpenFile           00000000710ee2a8     ntdll_imports:ntdll.dll
 0002:000002b0       __imp_NtOpenThread         00000000710ee2b0     ntdll_imports:ntdll.dll
 0002:000002b8       __imp_NtQueryAttributesFile 00000000710ee2b8     ntdll_imports:ntdll.dll
 0002:000002c0       __imp_NtSetInformationThread 00000000710ee2c0     ntdll_imports:ntdll.dll
 0002:000002c8       __imp_NtUnmapViewOfSection 00000000710ee2c8     ntdll_imports:ntdll.dll
 0002:000002d0       __imp_NtMapViewOfSection   00000000710ee2d0     ntdll_imports:ntdll.dll
 0002:000002d8       __imp_NtOpenProcess        00000000710ee2d8     ntdll_imports:ntdll.dll
 0002:000002e0       __imp_NtQueryFullAttributesFile 00000000710ee2e0     ntdll_imports:ntdll.dll
 0002:000002e8       __imp_NtCreateKey          00000000710ee2e8     ntdll_imports:ntdll.dll
 0002:000002f0       __imp_NtOpenThreadToken    00000000710ee2f0     ntdll_imports:ntdll.dll
 0002:000002f8       __imp_NtOpenProcessToken   00000000710ee2f8     ntdll_imports:ntdll.dll
 0002:00000300       __imp_RtlTryEnterCriticalSection 00000000710ee300     ntdll_imports:ntdll.dll
 0002:00000308       __imp_RtlQueryEnvironmentVariable_U 00000000710ee308     ntdll_imports:ntdll.dll
 0002:00000310       __imp_NtQueryInformationToken 00000000710ee310     ntdll_imports:ntdll.dll
 0002:00000318       __imp_RtlConvertSidToUnicodeString 00000000710ee318     ntdll_imports:ntdll.dll
 0002:00000320       __imp_LdrGetProcedureAddress 00000000710ee320     ntdll_imports:ntdll.dll
 0002:00000328       __imp_atoi                 00000000710ee328     ntdll_imports:ntdll.dll
 0002:00000330       __imp_iswctype             00000000710ee330     ntdll_imports:ntdll.dll
 0002:00000338       __imp_wcschr               00000000710ee338     ntdll_imports:ntdll.dll
 0002:00000340       __imp_wcsncat              00000000710ee340     ntdll_imports:ntdll.dll
 0002:00000348       __imp_RtlCreateHeap        00000000710ee348     ntdll_imports:ntdll.dll
 0002:00000350       __imp_RtlInitializeCriticalSection 00000000710ee350     ntdll_imports:ntdll.dll
 0002:00000358       __imp_RtlDestroyHeap       00000000710ee358     ntdll_imports:ntdll.dll
 0002:00000360       __imp_RtlAllocateHeap      00000000710ee360     ntdll_imports:ntdll.dll
 0002:00000368       __imp_RtlFreeHeap          00000000710ee368     ntdll_imports:ntdll.dll
 0002:00000370       __imp_RtlSizeHeap          00000000710ee370     ntdll_imports:ntdll.dll
 0002:00000378       __imp_RtlValidateHeap      00000000710ee378     ntdll_imports:ntdll.dll
 0002:00000380       __imp_RtlLockHeap          00000000710ee380     ntdll_imports:ntdll.dll
 0002:00000388       __imp_RtlUnlockHeap        00000000710ee388     ntdll_imports:ntdll.dll
 0002:00000390       __imp_RtlFreeUnicodeString 00000000710ee390     ntdll_imports:ntdll.dll
 0002:00000398       __imp_RtlFreeAnsiString    00000000710ee398     ntdll_imports:ntdll.dll
 0002:000003a0       __imp_RtlFreeOemString     00000000710ee3a0     ntdll_imports:ntdll.dll
 0002:000003a8       __imp_RtlDeleteCriticalSection 00000000710ee3a8     ntdll_imports:ntdll.dll
 0002:000003b0       __imp_RtlReAllocateHeap    00000000710ee3b0     ntdll_imports:ntdll.dll
 0002:000003b8       __imp_NtFlushVirtualMemory 00000000710ee3b8     ntdll_imports:ntdll.dll
 0002:000003c0       __imp_NtCreateNamedPipeFile 00000000710ee3c0     ntdll_imports:ntdll.dll
 0002:000003c8       __imp_NtDeviceIoControlFile 00000000710ee3c8     ntdll_imports:ntdll.dll
 0002:000003d0       __imp_NtQueryDirectoryFile 00000000710ee3d0     ntdll_imports:ntdll.dll
 0002:000003d8       \177ntdll_NULL_THUNK_DATA  00000000710ee3d8     ntdll_imports:ntdll.dll
 0002:00000400       default_options            00000000710ee400     options.c.obj
 0002:00009540       ??_C@_0N@PICEHFFO@SYSLOG_ERROR?$AA@ 00000000710f7540     options.c.obj
 0002:00009550       ??_C@_0DH@DFDEIABE@Application?5?$CFs?5?$CI?$CFs?$CJ?5option?5?$CFs?5is@ 00000000710f7550     options.c.obj
 0002:00009588       ??_C@_0L@HELMAADM@Continuing?$AA@ 00000000710f7588     options.c.obj
 0002:000095a0       ??_C@_0EO@JIJIHHFL@Application?5?$CFs?5?$CI?$CFs?$CJ?4?5Option?5pars@ 00000000710f75a0     options.c.obj
 0002:000095f0       ??_C@_02DPKJAMEF@?$CFd?$AA@ 00000000710f75f0     options.c.obj
 0002:000095f4       ??_C@_04OPBHEPOC@0x?$CFx?$AA@ 00000000710f75f4     options.c.obj
 0002:00009600       ??_C@_0EM@JEEPODPO@Application?5?$CFs?5?$CI?$CFs?$CJ?4?5Option?5pars@ 00000000710f7600     options.c.obj
 0002:0000964c       ??_C@_04PEOOHEKN@?$CFd?$CFc?$AA@ 00000000710f764c     options.c.obj
 0002:00009660       ??_C@_0EM@OJLCINID@Application?5?$CFs?5?$CI?$CFs?$CJ?4?5Option?5pars@ 00000000710f7660     options.c.obj
 0002:000096b0       ??_C@_07NDNBFKNF@0x?$CFI64x?$AA@ 00000000710f76b0     options.c.obj
 0002:000096b8       ??_C@_01ICJEACDI@?$DL?$AA@ 00000000710f76b8     options.c.obj
 0002:000096c0       ??_C@_0EC@KNGLKHOD@Application?5?$CFs?5?$CI?$CFs?$CJ?4?5Option?5pars@ 00000000710f76c0     options.c.obj
 0002:00009704       ??_C@_02DKCKIIND@?$CFs?$AA@ 00000000710f7704     options.c.obj
 0002:00009708       ??_C@_0M@CIIMLBAM@thin_client?$AA@ 00000000710f7708     options.c.obj
 0002:00009718       ??_C@_08DALCJOKH@peephole?$AA@ 00000000710f7718     options.c.obj
 0002:00009728       ??_C@_0BL@BKIMAGMH@remove_unnecessary_zeroing?$AA@ 00000000710f7728     options.c.obj
 0002:00009748       ??_C@_0BF@EPFFNOKG@call_return_matching?$AA@ 00000000710f7748     options.c.obj
 0002:00009760       ??_C@_0O@JBKMJJOA@constant_prop?$AA@ 00000000710f7760     options.c.obj
 0002:00009770       ??_C@_0BB@FKEEJJDC@remove_dead_code?$AA@ 00000000710f7770     options.c.obj
 0002:00009788       ??_C@_0N@FGAEEIA@stack_adjust?$AA@ 00000000710f7788     options.c.obj
 0002:00009798       ??_C@_0N@IMGCCDDF@instr_counts?$AA@ 00000000710f7798     options.c.obj
 0002:000097a8       ??_C@_0N@KPONKJKE@unroll_loops?$AA@ 00000000710f77a8     options.c.obj
 0002:000097b8       ??_C@_09MKOHDBBA@vectorize?$AA@ 00000000710f77b8     options.c.obj
 0002:000097c4       ??_C@_03EDEJGBME@rlr?$AA@  00000000710f77c4     options.c.obj
 0002:000097c8       ??_C@_08FCDJGKEM@prefetch?$AA@ 00000000710f77c8     options.c.obj
 0002:000097d8       ??_C@_0M@FGEKHANH@?5synthethic?$AA@ 00000000710f77d8     options.c.obj
 0002:000097e8       ??_C@_0BJ@GCPKMMOC@skip_thread_exit_at_exit?$AA@ 00000000710f77e8     options.c.obj
 0002:00009808       ??_C@_0BC@EGNDHEAB@multi_thread_exit?$AA@ 00000000710f7808     options.c.obj
 0002:00009820       ??_C@_0O@OIBHDBOK@synch_at_exit?$AA@ 00000000710f7820     options.c.obj
 0002:00009830       ??_C@_0BD@EINGKAHB@ignore_assert_list?$AA@ 00000000710f7830     options.c.obj
 0002:00009848       ??_C@_0BJ@PLGDFHCL@unsafe_ignore_eflags_ibl?$AA@ 00000000710f7848     options.c.obj
 0002:00009868       ??_C@_0BM@FHHEEAPC@unsafe_ignore_eflags_prefix?$AA@ 00000000710f7868     options.c.obj
 0002:00009888       ??_C@_0BL@PMKGHGNM@unsafe_ignore_eflags_trace?$AA@ 00000000710f7888     options.c.obj
 0002:000098a8       ??_C@_0BF@BJMLMBOE@unsafe_ignore_eflags?$AA@ 00000000710f78a8     options.c.obj
 0002:000098c0       ??_C@_0BH@DJNBFOAD@unsafe_ignore_overflow?$AA@ 00000000710f78c0     options.c.obj
 0002:000098d8       ??_C@_0BE@IDHHMILB@unsafe_hang_process?$AA@ 00000000710f78d8     options.c.obj
 0002:000098f0       ??_C@_0BF@IMACBEPO@unsafe_crash_process?$AA@ 00000000710f78f0     options.c.obj
 0002:00009908       ??_C@_0BD@KLCJMLA@stress_fake_userva?$AA@ 00000000710f7908     options.c.obj
 0002:00009920       ??_C@_0BG@HACDADHG@vmarea_increment_size?$AA@ 00000000710f7920     options.c.obj
 0002:00009938       ??_C@_0BE@OOPOIAAM@vmarea_initial_size?$AA@ 00000000710f7938     options.c.obj
 0002:00009950       ??_C@_0BN@KNHHBEIF@detach_fix_sysenter_on_stack?$AA@ 00000000710f7950     options.c.obj
 0002:00009970       ??_C@_0CF@NHLKLJHP@stress_detach_with_stacked_callb@ 00000000710f7970     options.c.obj
 0002:00009998       ??_C@_0BH@NBFAAJKK@detect_dangling_fcache?$AA@ 00000000710f7998     options.c.obj
 0002:000099b0       ??_C@_0BG@NGFKAKFD@stress_recreate_state?$AA@ 00000000710f79b0     options.c.obj
 0002:000099c8       ??_C@_0BD@JAHJPIPO@stress_recreate_pc?$AA@ 00000000710f79c8     options.c.obj
 0002:000099e0       ??_C@_0BD@LKEEMGFL@slowdown_ibl_found?$AA@ 00000000710f79e0     options.c.obj
 0002:000099f8       ??_C@_0BA@JEMHLHN@ibl_addr_prefix?$AA@ 00000000710f79f8     options.c.obj
 0002:00009a08       ??_C@_0BD@FJLHMKDE@ibl_sentinel_check?$AA@ 00000000710f7a08     options.c.obj
 0002:00009a20       ??_C@_0BH@FGNJNKFP@pad_jmps_set_alignment?$AA@ 00000000710f7a20     options.c.obj
 0002:00009a38       ??_C@_0BF@HHGFAOIH@pad_jmps_shift_trace?$AA@ 00000000710f7a38     options.c.obj
 0002:00009a50       ??_C@_0BC@HAJLHLG@pad_jmps_shift_bb?$AA@ 00000000710f7a50     options.c.obj
 0002:00009a68       ??_C@_0BP@EJCGMBNN@pad_jmps_return_excess_padding?$AA@ 00000000710f7a68     options.c.obj
 0002:00009a88       ??_C@_0BH@NNHGDKFO@pad_jmps_mark_no_trace?$AA@ 00000000710f7a88     options.c.obj
 0002:00009aa0       ??_C@_08DNBIFICC@pad_jmps?$AA@ 00000000710f7aa0     options.c.obj
 0002:00009ab0       ??_C@_09LPMGLJME@prng_seed?$AA@ 00000000710f7ab0     options.c.obj
 0002:00009ac0       ??_C@_0L@BNBLFNCO@mute_nudge?$AA@ 00000000710f7ac0     options.c.obj
 0002:00009acc       ??_C@_06DGDLPBAN@client?$AA@ 00000000710f7acc     options.c.obj
 0002:00009ad4       ??_C@_03IMLOALHE@low?$AA@  00000000710f7ad4     options.c.obj
 0002:00009ad8       ??_C@_06HIDOEFBI@medium?$AA@ 00000000710f7ad8     options.c.obj
 0002:00009ae0       ??_C@_0P@ODDDPLPI@aslr_safe_save?$AA@ 00000000710f7ae0     options.c.obj
 0002:00009af0       ??_C@_0BI@ODMGDBCA@aslr_cache_exclude_list?$AA@ 00000000710f7af0     options.c.obj
 0002:00009b08       ??_C@_0BI@JKFJMAMH@aslr_cache_include_list?$AA@ 00000000710f7b08     options.c.obj
 0002:00009b20       ??_C@_0BA@BDIOACJJ@aslr_cache_list?$AA@ 00000000710f7b20     options.c.obj
 0002:00009b30       ??_C@_0BH@OAKPJMJD@exempt_aslr_extra_list?$AA@ 00000000710f7b30     options.c.obj
 0002:00009b48       ??_C@_0L@MHLGKAIH@aslr_extra?$AA@ 00000000710f7b48     options.c.obj
 0002:00009b58       ??_C@_0BB@NACGGENF@exempt_aslr_list?$AA@ 00000000710f7b58     options.c.obj
 0002:00009b70       ??_C@_0BJ@PHKMAAHP@exempt_aslr_default_list?$AA@ 00000000710f7b70     options.c.obj
 0002:00009b90       ??_C@_0BE@LBNNPGMC@aslr_section_prefix?$AA@ 00000000710f7b90     options.c.obj
 0002:00009ba8       ??_C@_0BC@LFMACPEK@aslr_short_digest?$AA@ 00000000710f7ba8     options.c.obj
 0002:00009bc0       ??_C@_0BA@LCLKLELK@aslr_validation?$AA@ 00000000710f7bc0     options.c.obj
 0002:00009bd0       ??_C@_0BB@FELJCJAJ@aslr_reserve_pad?$AA@ 00000000710f7bd0     options.c.obj
 0002:00009be8       ??_C@_0BN@CKHCHODC@aslr_heap_exe_reserve_offset?$AA@ 00000000710f7be8     options.c.obj
 0002:00009c08       ??_C@_0BJ@KEEIAPHF@aslr_heap_reserve_offset?$AA@ 00000000710f7c08     options.c.obj
 0002:00009c28       ??_C@_0BD@CJCGNBEG@aslr_parent_offset?$AA@ 00000000710f7c28     options.c.obj
 0002:00009c40       ??_C@_0N@ILNKIGJM@aslr_dll_pad?$AA@ 00000000710f7c40     options.c.obj
 0002:00009c50       ??_C@_0BA@HFEAHAKM@aslr_dll_offset?$AA@ 00000000710f7c50     options.c.obj
 0002:00009c60       ??_C@_0N@CAIIOLJE@aslr_dll_top?$AA@ 00000000710f7c60     options.c.obj
 0002:00009c70       ??_C@_0O@OCPBOLBM@aslr_dll_base?$AA@ 00000000710f7c70     options.c.obj
 0002:00009c80       ??_C@_0O@FGKILGNH@aslr_internal?$AA@ 00000000710f7c80     options.c.obj
 0002:00009c90       ??_C@_0O@PCPDNKLC@min_free_disk?$AA@ 00000000710f7c90     options.c.obj
 0002:00009ca0       ??_C@_0L@MEAMDKON@aslr_cache?$AA@ 00000000710f7ca0     options.c.obj
 0002:00009cb0       ??_C@_0L@MDAOFJMO@aslr_retry?$AA@ 00000000710f7cb0     options.c.obj
 0002:00009cc0       ??_C@_0M@JILNMNNF@aslr_action?$AA@ 00000000710f7cc0     options.c.obj
 0002:00009ccc       ??_C@_01DGKLNCNG@R?$AA@    00000000710f7ccc     options.c.obj
 0002:00009cd0       ??_C@_04LIMBHAFN@aslr?$AA@ 00000000710f7cd0     options.c.obj
 0002:00009cd8       ??_C@_07GGIBFBPH@aslr_dr?$AA@ 00000000710f7cd8     options.c.obj
 0002:00009ce0       ??_C@_06HAMENCGL@sygate?$AA@ 00000000710f7ce0     options.c.obj
 0002:00009ce8       ??_C@_0BP@PDKOCINJ@native_exec_hook_create_thread?$AA@ 00000000710f7ce8     options.c.obj
 0002:00009d08       ??_C@_0BA@IPKDMICI@sygate_sysenter?$AA@ 00000000710f7d08     options.c.obj
 0002:00009d18       ??_C@_0L@GIMOEIGB@sygate_int?$AA@ 00000000710f7d18     options.c.obj
 0002:00009d28       ??_C@_0BD@HLNNONFL@dr_sygate_sysenter?$AA@ 00000000710f7d28     options.c.obj
 0002:00009d40       ??_C@_0O@NDMEIMMK@dr_sygate_int?$AA@ 00000000710f7d40     options.c.obj
 0002:00009d50       ??_C@_0BK@BAHFFJLM@native_exec_hook_conflict?$AA@ 00000000710f7d50     options.c.obj
 0002:00009d70       ??_C@_0O@KLEABIEL@hook_conflict?$AA@ 00000000710f7d70     options.c.obj
 0002:00009d80       ??_C@_0BA@KJCCNHLP@clean_testalert?$AA@ 00000000710f7d80     options.c.obj
 0002:00009d90       ??_C@_0BG@KKGKMKLP@hook_ldr_dll_routines?$AA@ 00000000710f7d90     options.c.obj
 0002:00009da8       ??_C@_0BB@LJADALBK@hook_image_entry?$AA@ 00000000710f7da8     options.c.obj
 0002:00009dc0       ??_C@_0L@KBMJCGNP@apc_policy?$AA@ 00000000710f7dc0     options.c.obj
 0002:00009dd0       ??_C@_0O@GIGDDAGP@thread_policy?$AA@ 00000000710f7dd0     options.c.obj
 0002:00009de0       ??_C@_0BJ@IIJAJJAK@unsafe_IAT_ignore_hooker?$AA@ 00000000710f7de0     options.c.obj
 0002:00009e00       ??_C@_09KGEDIIPH@IAT_elide?$AA@ 00000000710f7e00     options.c.obj
 0002:00009e10       ??_C@_0M@FEBKDNKH@IAT_convert?$AA@ 00000000710f7e10     options.c.obj
 0002:00009e20       ??_C@_0P@DDLELKMK@indcall2direct?$AA@ 00000000710f7e20     options.c.obj
 0002:00009e30       ??_C@_0N@IJIODOM@inline_calls?$AA@ 00000000710f7e30     options.c.obj
 0002:00009e40       ??_C@_0BA@NBAHEFFL@native_exec_opt?$AA@ 00000000710f7e40     options.c.obj
 0002:00009e50       ??_C@_0BH@DNIAMMKO@native_exec_retakeover?$AA@ 00000000710f7e50     options.c.obj
 0002:00009e68       ??_C@_0BF@BDDBPCIC@native_exec_dot_pexe?$AA@ 00000000710f7e68     options.c.obj
 0002:00009e80       ??_C@_0BJ@MAIJIDEP@native_exec_managed_code?$AA@ 00000000710f7e80     options.c.obj
 0002:00009ea0       ??_C@_0BI@CIKJGAIL@native_exec_guess_calls?$AA@ 00000000710f7ea0     options.c.obj
 0002:00009eb8       ??_C@_0BF@NGMKOADD@native_exec_callcall?$AA@ 00000000710f7eb8     options.c.obj
 0002:00009ed0       ??_C@_0BF@OCAJEGCK@native_exec_dircalls?$AA@ 00000000710f7ed0     options.c.obj
 0002:00009ee8       ??_C@_0BF@PAGEFDAN@native_exec_syscalls?$AA@ 00000000710f7ee8     options.c.obj
 0002:00009f00       ??_C@_0BB@NIMFEHIL@native_exec_list?$AA@ 00000000710f7f00     options.c.obj
 0002:00009f18       ??_C@_0BJ@OJPFOAGH@native_exec_default_list?$AA@ 00000000710f7f18     options.c.obj
 0002:00009f38       ??_C@_0M@GKINNNPF@native_exec?$AA@ 00000000710f7f38     options.c.obj
 0002:00009f48       ??_C@_07PMEPBGIG@desktop?$AA@ 00000000710f7f48     options.c.obj
 0002:00009f50       ??_C@_07EMFBDGOD@persist?$AA@ 00000000710f7f50     options.c.obj
 0002:00009f58       ??_C@_0BD@JALAPONE@persist_shared_dir?$AA@ 00000000710f7f58     options.c.obj
 0002:00009f70       ??_C@_0M@GMOOMFMP@persist_dir?$AA@ 00000000710f7f70     options.c.obj
 0002:00009f80       ??_C@_0BE@IILAIFNK@coarse_split_riprel?$AA@ 00000000710f7f80     options.c.obj
 0002:00009f98       ??_C@_0BD@BEMOFINO@coarse_split_calls?$AA@ 00000000710f7f98     options.c.obj
 0002:00009fb0       ??_C@_0BB@DJBCOPBE@coarse_merge_iat?$AA@ 00000000710f7fb0     options.c.obj
 0002:00009fc8       ??_C@_0BE@GKGHPKEL@persist_touch_stubs?$AA@ 00000000710f7fc8     options.c.obj
 0002:00009fe0       ??_C@_0BM@KNDDAHKL@persist_protect_stubs_limit?$AA@ 00000000710f7fe0     options.c.obj
 0002:0000a000       ??_C@_0BG@GMNHENFA@persist_protect_stubs?$AA@ 00000000710f8000     options.c.obj
 0002:0000a018       ??_C@_0BP@HOPBGFAJ@persist_check_exempted_options?$AA@ 00000000710f8018     options.c.obj
 0002:0000a038       ??_C@_0BM@JIBAHNJE@persist_check_local_options?$AA@ 00000000710f8038     options.c.obj
 0002:0000a058       ??_C@_0BG@OIIFOHFL@persist_check_options?$AA@ 00000000710f8058     options.c.obj
 0002:0000a070       ??_C@_0BF@PHNLCEGF@persist_short_digest?$AA@ 00000000710f8070     options.c.obj
 0002:0000a088       ??_C@_0BI@LJLEBBPL@persist_load_validation?$AA@ 00000000710f8088     options.c.obj
 0002:0000a0a0       ??_C@_0BH@JBDEGNLD@persist_gen_validation?$AA@ 00000000710f80a0     options.c.obj
 0002:0000a0b8       ??_C@_0BC@BLIIPCLB@persist_lock_file?$AA@ 00000000710f80b8     options.c.obj
 0002:0000a0d0       ??_C@_0BI@NOLMMIPD@persist_map_rw_separate?$AA@ 00000000710f80d0     options.c.obj
 0002:0000a0e8       ??_C@_0BA@EJMCGJPC@coarse_fill_ibl?$AA@ 00000000710f80e8     options.c.obj
 0002:0000a0f8       ??_C@_0BF@FKNCKJMH@persist_exclude_list?$AA@ 00000000710f80f8     options.c.obj
 0002:0000a110       ??_C@_0O@PFBADAKG@use_persisted?$AA@ 00000000710f8110     options.c.obj
 0002:0000a120       ??_C@_0BB@BEHGFN@persist_per_user?$AA@ 00000000710f8120     options.c.obj
 0002:0000a138       ??_C@_0BA@EAPFNFJF@persist_per_app?$AA@ 00000000710f8138     options.c.obj
 0002:0000a148       ??_C@_0BG@EKHIPEJN@coarse_pclookup_table?$AA@ 00000000710f8148     options.c.obj
 0002:0000a160       ??_C@_0BN@HMALKFP@unsafe_freeze_elide_sole_ubr?$AA@ 00000000710f8160     options.c.obj
 0002:0000a180       ??_C@_0BI@JIAAMJIN@coarse_freeze_elide_ubr?$AA@ 00000000710f8180     options.c.obj
 0002:0000a198       ??_C@_0BL@NCJEAOAI@coarse_freeze_rebased_aslr?$AA@ 00000000710f8198     options.c.obj
 0002:0000a1b8       ??_C@_0BC@PPFBNCJE@coarse_disk_merge?$AA@ 00000000710f81b8     options.c.obj
 0002:0000a1d0       ??_C@_0BC@IJPEIC@coarse_lone_merge?$AA@ 00000000710f81d0     options.c.obj
 0002:0000a1e8       ??_C@_0BE@DPKACJDP@coarse_freeze_merge?$AA@ 00000000710f81e8     options.c.obj
 0002:0000a200       ??_C@_0BE@CCANOAGB@coarse_freeze_clean?$AA@ 00000000710f8200     options.c.obj
 0002:0000a218       ??_C@_0BF@LBCNIKDG@coarse_freeze_rename?$AA@ 00000000710f8218     options.c.obj
 0002:0000a230       ??_C@_0BG@CDBEGOCC@coarse_freeze_clobber?$AA@ 00000000710f8230     options.c.obj
 0002:0000a248       ??_C@_0BG@OCODBFHO@coarse_freeze_rct_min?$AA@ 00000000710f8248     options.c.obj
 0002:0000a260       ??_C@_0BK@MNPCAAGG@coarse_freeze_append_size?$AA@ 00000000710f8260     options.c.obj
 0002:0000a280       ??_C@_0BH@EKDNFAGL@coarse_freeze_min_size?$AA@ 00000000710f8280     options.c.obj
 0002:0000a298       ??_C@_0BI@KJMEMKPO@coarse_freeze_at_unload?$AA@ 00000000710f8298     options.c.obj
 0002:0000a2b0       ??_C@_0BG@ODLOIJFC@coarse_freeze_at_exit?$AA@ 00000000710f82b0     options.c.obj
 0002:0000a2c8       ??_C@_0BF@IPOFPGNC@coarse_enable_freeze?$AA@ 00000000710f82c8     options.c.obj
 0002:0000a2e0       ??_C@_0BA@OFFGIAHJ@enable_full_api?$AA@ 00000000710f82e0     options.c.obj
 0002:0000a2f0       ??_C@_0N@JCADCPDG@coarse_units?$AA@ 00000000710f82f0     options.c.obj
 0002:0000a300       ??_C@_0BE@CKGPBAD@validate_owner_file?$AA@ 00000000710f8300     options.c.obj
 0002:0000a318       ??_C@_0BD@IIPCGLEA@validate_owner_dir?$AA@ 00000000710f8318     options.c.obj
 0002:0000a330       ??_C@_0BB@EALMBJBP@translate_fpu_pc?$AA@ 00000000710f8330     options.c.obj
 0002:0000a348       ??_C@_0BD@HPEECMLF@store_translations?$AA@ 00000000710f8348     options.c.obj
 0002:0000a360       ??_C@_0BH@FADLACH@safe_translate_flushed?$AA@ 00000000710f8360     options.c.obj
 0002:0000a378       ??_C@_0P@ELODBAMO@sandbox_writes?$AA@ 00000000710f8378     options.c.obj
 0002:0000a388       ??_C@_0BF@KPPHDLON@hw_cache_consistency?$AA@ 00000000710f8388     options.c.obj
 0002:0000a3a0       ??_C@_08OMGFKNBG@noasynch?$AA@ 00000000710f83a0     options.c.obj
 0002:0000a3b0       ??_C@_0N@CDONDLPL@allow_detach?$AA@ 00000000710f83b0     options.c.obj
 0002:0000a3c0       ??_C@_0BH@EJMBBPLG@track_module_filenames?$AA@ 00000000710f83c0     options.c.obj
 0002:0000a3d8       ??_C@_0BA@KGFAPLBI@hide_from_query?$AA@ 00000000710f83d8     options.c.obj
 0002:0000a3e8       ??_C@_04IBOFHAPJ@hide?$AA@ 00000000710f83e8     options.c.obj
 0002:0000a3f0       ??_C@_0BK@PIFFCLAE@unloaded_target_exception?$AA@ 00000000710f83f0     options.c.obj
 0002:0000a410       ??_C@_0BP@IAEDBNNH@moduledb_exemptions_report_max?$AA@ 00000000710f8410     options.c.obj
 0002:0000a430       ??_C@_0BP@OAJEFJGE@unknown_module_load_report_max?$AA@ 00000000710f8430     options.c.obj
 0002:0000a450       ??_C@_0BG@GPLOCDEI@unknown_module_policy?$AA@ 00000000710f8450     options.c.obj
 0002:0000a468       ??_C@_0BI@CFDMBFKK@whitelist_company_names?$AA@ 00000000710f8468     options.c.obj
 0002:0000a480       ??_C@_0CA@HILGAAIJ@whitelist_company_names_default?$AA@ 00000000710f8480     options.c.obj
 0002:0000a4a0       ??_C@_06GCIOJDMP@staged?$AA@ 00000000710f84a0     options.c.obj
 0002:0000a4a8       ??_C@_0N@KFMGBFJF@use_moduledb?$AA@ 00000000710f84a8     options.c.obj
 0002:0000a4b8       ??_C@_0BB@DHDHHFKD@patch_proof_list?$AA@ 00000000710f84b8     options.c.obj
 0002:0000a4d0       ??_C@_0BJ@OEEMFOD@patch_proof_default_list?$AA@ 00000000710f84d0     options.c.obj
 0002:0000a4f0       ??_C@_0BE@NLPDFKJF@handle_ntdll_modify?$AA@ 00000000710f84f0     options.c.obj
 0002:0000a508       ??_C@_0BB@NAFKFPM@handle_DR_modify?$AA@ 00000000710f8508     options.c.obj
 0002:0000a520       ??_C@_0BE@BFDKJHFH@block_mod_load_list?$AA@ 00000000710f8520     options.c.obj
 0002:0000a538       ??_C@_0BM@HECJKBFC@block_mod_load_list_default?$AA@ 00000000710f8538     options.c.obj
 0002:0000a558       ??_C@_0BG@NBAJHNJD@enable_block_mod_load?$AA@ 00000000710f8558     options.c.obj
 0002:0000a570       ??_C@_0M@HFFGEONM@guard_pages?$AA@ 00000000710f8570     options.c.obj
 0002:0000a580       ??_C@_0M@JADDJDJE@alt_teb_tls?$AA@ 00000000710f8580     options.c.obj
 0002:0000a590       ??_C@_09OGLNNOAL@tls_flags?$AA@ 00000000710f8590     options.c.obj
 0002:0000a5a0       ??_C@_09MBGAKKEA@tls_align?$AA@ 00000000710f85a0     options.c.obj
 0002:0000a5b0       ??_C@_0BB@DFBBLFPP@shared_eq_ignore?$AA@ 00000000710f85b0     options.c.obj
 0002:0000a5c8       ??_C@_0BJ@EPFAJHFF@shared_syscalls_fastpath?$AA@ 00000000710f85c8     options.c.obj
 0002:0000a5e8       ??_C@_0CA@CNMDNHFP@shared_fragment_shared_syscalls?$AA@ 00000000710f85e8     options.c.obj
 0002:0000a608       ??_C@_0BA@CGIHCAM@shared_syscalls?$AA@ 00000000710f8608     options.c.obj
 0002:0000a618       ??_C@_0CA@MGEDBOJP@ignore_syscalls_follow_sysenter?$AA@ 00000000710f8618     options.c.obj
 0002:0000a638       ??_C@_0BI@JKNBGIEK@inline_ignored_syscalls?$AA@ 00000000710f8638     options.c.obj
 0002:0000a650       ??_C@_0BA@FIMFJMMC@ignore_syscalls?$AA@ 00000000710f8650     options.c.obj
 0002:0000a660       ??_C@_0CJ@KGCKPEAK@suspend_on_synch_failure_for_app@ 00000000710f8660     options.c.obj
 0002:0000a690       ??_C@_0BG@ELOGOGAO@synch_with_sleep_time?$AA@ 00000000710f8690     options.c.obj
 0002:0000a6a8       ??_C@_0BG@HHAEJNCM@synch_thread_sleep_MP?$AA@ 00000000710f86a8     options.c.obj
 0002:0000a6c0       ??_C@_0BG@GFDBGPOE@synch_thread_sleep_UP?$AA@ 00000000710f86c0     options.c.obj
 0002:0000a6d8       ??_C@_0BM@NNPADEBK@synch_all_threads_max_loops?$AA@ 00000000710f86d8     options.c.obj
 0002:0000a6f8       ??_C@_0BH@PCHLJBJC@synch_thread_max_loops?$AA@ 00000000710f86f8     options.c.obj
 0002:0000a710       ??_C@_0P@PHOINLDK@inject_primary?$AA@ 00000000710f8710     options.c.obj
 0002:0000a720       ??_C@_0BP@HJPJEEON@vista_inject_at_create_process?$AA@ 00000000710f8720     options.c.obj
 0002:0000a740       ??_C@_0BJ@JCPHMHEN@inject_at_create_process?$AA@ 00000000710f8740     options.c.obj
 0002:0000a760       ??_C@_0BM@IKKEBBDA@early_inject_stress_helpers?$AA@ 00000000710f8760     options.c.obj
 0002:0000a780       ??_C@_0BJ@HNIIOIID@early_inject_helper_name?$AA@ 00000000710f8780     options.c.obj
 0002:0000a7a0       ??_C@_0BI@MMNAOFCO@early_inject_helper_dll?$AA@ 00000000710f87a0     options.c.obj
 0002:0000a7b8       ??_C@_0BF@OPNBFEEK@early_inject_address?$AA@ 00000000710f87b8     options.c.obj
 0002:0000a7d0       ??_C@_0BG@PGEANJJE@early_inject_location?$AA@ 00000000710f87d0     options.c.obj
 0002:0000a7e8       ??_C@_0BB@NHDHOAOP@early_inject_map?$AA@ 00000000710f87e8     options.c.obj
 0002:0000a800       ??_C@_0N@BPFLKNDF@early_inject?$AA@ 00000000710f8800     options.c.obj
 0002:0000a810       ??_C@_0BJ@JFOKMCDM@follow_explicit_children?$AA@ 00000000710f8810     options.c.obj
 0002:0000a830       ??_C@_0BC@LFHJOLNO@follow_systemwide?$AA@ 00000000710f8830     options.c.obj
 0002:0000a848       ??_C@_0BA@IHJNPENK@follow_children?$AA@ 00000000710f8848     options.c.obj
 0002:0000a858       ??_C@_0M@DNJCCKIJ@oom_timeout?$AA@ 00000000710f8858     options.c.obj
 0002:0000a868       ??_C@_0BH@KNCNLENH@silent_commit_oom_list?$AA@ 00000000710f8868     options.c.obj
 0002:0000a880       ??_C@_0BA@MPLPJLM@silent_oom_mask?$AA@ 00000000710f8880     options.c.obj
 0002:0000a890       ??_C@_0M@OCADLCCG@vm_use_last?$AA@ 00000000710f8890     options.c.obj
 0002:0000a8a0       ??_C@_0P@MEAEPFJL@reachable_heap?$AA@ 00000000710f88a0     options.c.obj
 0002:0000a8b0       ??_C@_0BC@KPPMGOFL@heap_in_lower_4GB?$AA@ 00000000710f88b0     options.c.obj
 0002:0000a8c8       ??_C@_0BB@LOICKFAE@vm_base_near_app?$AA@ 00000000710f88c8     options.c.obj
 0002:0000a8e0       ??_C@_0BB@LICKGGGC@vm_allow_smaller?$AA@ 00000000710f88e0     options.c.obj
 0002:0000a8f8       ??_C@_0BF@KEIPPFAH@vm_allow_not_at_base?$AA@ 00000000710f88f8     options.c.obj
 0002:0000a910       ??_C@_0O@JACFNNKN@vm_max_offset?$AA@ 00000000710f8910     options.c.obj
 0002:0000a920       ??_C@_07MJAONCCG@vm_base?$AA@ 00000000710f8920     options.c.obj
 0002:0000a928       ??_C@_07FOOLHPHE@vm_size?$AA@ 00000000710f8928     options.c.obj
 0002:0000a930       ??_C@_0L@GJECEGCO@vm_reserve?$AA@ 00000000710f8930     options.c.obj
 0002:0000a940       ??_C@_0CB@DGEHMNIC@skip_out_of_vm_reserve_curiosity@ 00000000710f8940     options.c.obj
 0002:0000a968       ??_C@_0BL@EDFFGHOC@reset_every_nth_trace_unit?$AA@ 00000000710f8968     options.c.obj
 0002:0000a988       ??_C@_0BI@CMJIGGNG@reset_every_nth_bb_unit?$AA@ 00000000710f8988     options.c.obj
 0002:0000a9a0       ??_C@_0BI@GKDODNEF@reset_at_nth_trace_unit?$AA@ 00000000710f89a0     options.c.obj
 0002:0000a9b8       ??_C@_0BF@KMMEFOKL@reset_at_nth_bb_unit?$AA@ 00000000710f89b8     options.c.obj
 0002:0000a9d0       ??_C@_0BI@LMHAGLJK@reset_every_nth_pending?$AA@ 00000000710f89d0     options.c.obj
 0002:0000a9e8       ??_C@_0BO@LPANJHH@report_reset_commit_threshold?$AA@ 00000000710f89e8     options.c.obj
 0002:0000aa08       ??_C@_0BL@GOFEKBCP@reset_at_commit_free_limit?$AA@ 00000000710f8a08     options.c.obj
 0002:0000aa28       ??_C@_0CD@PPKAHJHK@reset_at_commit_percent_free_lim@ 00000000710f8a28     options.c.obj
 0002:0000aa50       ??_C@_0BC@CBNGNGCP@reset_at_vmm_full?$AA@ 00000000710f8a50     options.c.obj
 0002:0000aa68       ??_C@_0BL@DCFNPCBF@report_reset_vmm_threshold?$AA@ 00000000710f8a68     options.c.obj
 0002:0000aa88       ??_C@_0BI@GAFPGBEB@reset_at_vmm_free_limit?$AA@ 00000000710f8a88     options.c.obj
 0002:0000aaa0       ??_C@_0CA@CDCLBKNK@reset_at_vmm_percent_free_limit?$AA@ 00000000710f8aa0     options.c.obj
 0002:0000aac0       ??_C@_0CD@PLEFLFNI@reset_at_switch_to_os_at_vmm_lim@ 00000000710f8ac0     options.c.obj
 0002:0000aae8       ??_C@_0CA@DIJBFKGC@switch_to_os_at_vmm_reset_limit?$AA@ 00000000710f8ae8     options.c.obj
 0002:0000ab08       ??_C@_0BE@FNOAFBMG@reset_at_nth_thread?$AA@ 00000000710f8b08     options.c.obj
 0002:0000ab20       ??_C@_0BI@KGGHBDKI@reset_at_fragment_count?$AA@ 00000000710f8b20     options.c.obj
 0002:0000ab38       ??_C@_0N@PKEAFJBO@enable_reset?$AA@ 00000000710f8b38     options.c.obj
 0002:0000ab48       ??_C@_0BH@NDFMKIPI@cache_shared_free_list?$AA@ 00000000710f8b48     options.c.obj
 0002:0000ab60       ??_C@_0BB@DOJMIJIH@sandbox_non_text?$AA@ 00000000710f8b60     options.c.obj
 0002:0000ab78       ??_C@_0BB@MKMJKNL@sandbox_writable?$AA@ 00000000710f8b78     options.c.obj
 0002:0000ab90       ??_C@_0BF@GEOBPJEH@sandbox2ro_threshold?$AA@ 00000000710f8b90     options.c.obj
 0002:0000aba8       ??_C@_0BF@MDAIFFHD@ro2sandbox_threshold?$AA@ 00000000710f8ba8     options.c.obj
 0002:0000abc0       ??_C@_0BD@OOLMDKGG@cache_coarse_align?$AA@ 00000000710f8bc0     options.c.obj
 0002:0000abd8       ??_C@_0P@MECCAEAI@cache_bb_align?$AA@ 00000000710f8bd8     options.c.obj
 0002:0000abe8       ??_C@_0BC@CCKNNLHN@cache_trace_align?$AA@ 00000000710f8be8     options.c.obj
 0002:0000ac00       ??_C@_0BI@OPGACKBB@cache_coarse_bb_replace?$AA@ 00000000710f8c00     options.c.obj
 0002:0000ac18       ??_C@_0BG@HLMIAKFM@cache_coarse_bb_regen?$AA@ 00000000710f8c18     options.c.obj
 0002:0000ac30       ??_C@_0BL@KKGCGCJD@cache_shared_trace_replace?$AA@ 00000000710f8c30     options.c.obj
 0002:0000ac50       ??_C@_0BJ@GCEDOODD@cache_shared_trace_regen?$AA@ 00000000710f8c50     options.c.obj
 0002:0000ac70       ??_C@_0BI@KCLHKEBN@cache_shared_bb_replace?$AA@ 00000000710f8c70     options.c.obj
 0002:0000ac88       ??_C@_0BG@CEEFKMAE@cache_shared_bb_regen?$AA@ 00000000710f8c88     options.c.obj
 0002:0000aca0       ??_C@_0BE@LFENMFNO@cache_trace_replace?$AA@ 00000000710f8ca0     options.c.obj
 0002:0000acb8       ??_C@_0BC@EJKEGKGE@cache_trace_regen?$AA@ 00000000710f8cb8     options.c.obj
 0002:0000acd0       ??_C@_0BB@PBGJGBKH@cache_bb_replace?$AA@ 00000000710f8cd0     options.c.obj
 0002:0000ace8       ??_C@_0P@KPCLLFBB@cache_bb_regen?$AA@ 00000000710f8ce8     options.c.obj
 0002:0000acf8       ??_C@_0BN@MFPBDMNP@cache_coarse_bb_unit_upgrade?$AA@ 00000000710f8cf8     options.c.obj
 0002:0000ad18       ??_C@_0CA@NOPNMANB@cache_shared_trace_unit_upgrade?$AA@ 00000000710f8d18     options.c.obj
 0002:0000ad38       ??_C@_0BN@MAJGACCL@cache_shared_bb_unit_upgrade?$AA@ 00000000710f8d38     options.c.obj
 0002:0000ad58       ??_C@_0BJ@FAGJHCNG@cache_trace_unit_upgrade?$AA@ 00000000710f8d58     options.c.obj
 0002:0000ad78       ??_C@_0BG@MNPDBKAH@cache_bb_unit_upgrade?$AA@ 00000000710f8d78     options.c.obj
 0002:0000ad90       ??_C@_0BH@GNHILJOG@finite_coarse_bb_cache?$AA@ 00000000710f8d90     options.c.obj
 0002:0000ada8       ??_C@_0BK@PHLHCPDB@finite_shared_trace_cache?$AA@ 00000000710f8da8     options.c.obj
 0002:0000adc8       ??_C@_0BH@DCPFBPLO@finite_shared_bb_cache?$AA@ 00000000710f8dc8     options.c.obj
 0002:0000ade0       ??_C@_0BD@HKIACNIF@finite_trace_cache?$AA@ 00000000710f8de0     options.c.obj
 0002:0000adf8       ??_C@_0BA@KFABLMEK@finite_bb_cache?$AA@ 00000000710f8df8     options.c.obj
 0002:0000ae08       ??_C@_0BP@EOJAOBOM@cache_coarse_bb_unit_quadruple?$AA@ 00000000710f8e08     options.c.obj
 0002:0000ae28       ??_C@_0BJ@FALGECFK@cache_coarse_bb_unit_max?$AA@ 00000000710f8e28     options.c.obj
 0002:0000ae48       ??_C@_0BK@HALKMNIL@cache_coarse_bb_unit_init?$AA@ 00000000710f8e48     options.c.obj
 0002:0000ae68       ??_C@_0BE@CLLBKDL@cache_coarse_bb_max?$AA@ 00000000710f8e68     options.c.obj
 0002:0000ae80       ??_C@_0CC@GEBIGJFJ@cache_shared_trace_unit_quadrupl@ 00000000710f8e80     options.c.obj
 0002:0000aea8       ??_C@_0BM@FDEFKCBO@cache_shared_trace_unit_max?$AA@ 00000000710f8ea8     options.c.obj
 0002:0000aec8       ??_C@_0BN@BAILLOC@cache_shared_trace_unit_init?$AA@ 00000000710f8ec8     options.c.obj
 0002:0000aee8       ??_C@_0BH@GIIIILDF@cache_shared_trace_max?$AA@ 00000000710f8ee8     options.c.obj
 0002:0000af00       ??_C@_0BP@PPCBNNJJ@cache_shared_bb_unit_quadruple?$AA@ 00000000710f8f00     options.c.obj
 0002:0000af20       ??_C@_0BJ@FJENNJPP@cache_shared_bb_unit_max?$AA@ 00000000710f8f20     options.c.obj
 0002:0000af40       ??_C@_0BK@NGAPGBHH@cache_shared_bb_unit_init?$AA@ 00000000710f8f40     options.c.obj
 0002:0000af60       ??_C@_0BE@CELBMFOD@cache_shared_bb_max?$AA@ 00000000710f8f60     options.c.obj
 0002:0000af78       ??_C@_0BL@ODGKDKK@cache_trace_unit_quadruple?$AA@ 00000000710f8f78     options.c.obj
 0002:0000af98       ??_C@_0BF@FLDHLAJE@cache_trace_unit_max?$AA@ 00000000710f8f98     options.c.obj
 0002:0000afb0       ??_C@_0BG@MGNKDMO@cache_trace_unit_init?$AA@ 00000000710f8fb0     options.c.obj
 0002:0000afc8       ??_C@_0BA@FNOABMH@cache_trace_max?$AA@ 00000000710f8fc8     options.c.obj
 0002:0000afd8       ??_C@_0BI@NFHMCDAE@cache_bb_unit_quadruple?$AA@ 00000000710f8fd8     options.c.obj
 0002:0000aff0       ??_C@_0BC@HCKKFNKI@cache_bb_unit_max?$AA@ 00000000710f8ff0     options.c.obj
 0002:0000b008       ??_C@_0BD@CDCLECKE@cache_bb_unit_init?$AA@ 00000000710f9008     options.c.obj
 0002:0000b020       ??_C@_0N@OFFIGIAG@cache_bb_max?$AA@ 00000000710f9020     options.c.obj
 0002:0000b030       ??_C@_0BH@MDMFHPEG@cache_commit_increment?$AA@ 00000000710f9030     options.c.obj
 0002:0000b048       ??_C@_0BG@OFKENKDF@heap_commit_increment?$AA@ 00000000710f9048     options.c.obj
 0002:0000b060       ??_C@_0BD@DLFEBOOO@max_heap_unit_size?$AA@ 00000000710f9060     options.c.obj
 0002:0000b078       ??_C@_0BO@LEGDNIMF@initial_global_heap_unit_size?$AA@ 00000000710f9078     options.c.obj
 0002:0000b098       ??_C@_0BH@FDGFGDOL@initial_heap_unit_size?$AA@ 00000000710f9098     options.c.obj
 0002:0000b0b0       ??_C@_0BE@CGDKFDEN@simulate_contention?$AA@ 00000000710f90b0     options.c.obj
 0002:0000b0c8       ??_C@_0BC@JENCJPIL@spin_yield_rwlock?$AA@ 00000000710f90c8     options.c.obj
 0002:0000b0e0       ??_C@_0BB@NFIIGFEL@spin_yield_mutex?$AA@ 00000000710f90e0     options.c.obj
 0002:0000b0f8       ??_C@_0BE@GCPLDIJD@private_future_load?$AA@ 00000000710f90f8     options.c.obj
 0002:0000b110       ??_C@_0BA@DJHHMNLO@private_bb_load?$AA@ 00000000710f9110     options.c.obj
 0002:0000b120       ??_C@_0BL@PDCPPBAN@private_bb_ibl_targets_max?$AA@ 00000000710f9120     options.c.obj
 0002:0000b140       ??_C@_0BO@CHACIFLH@private_trace_ibl_targets_max?$AA@ 00000000710f9140     options.c.obj
 0002:0000b160       ??_C@_0BM@IFBGJAGP@private_bb_ibl_targets_init?$AA@ 00000000710f9160     options.c.obj
 0002:0000b180       ??_C@_0BP@KOHGOHIJ@private_trace_ibl_targets_init?$AA@ 00000000710f9180     options.c.obj
 0002:0000b1a0       ??_C@_0BA@ILALLIHP@trace_ibt_groom?$AA@ 00000000710f91a0     options.c.obj
 0002:0000b1b0       ??_C@_0N@HFJFHPFO@bb_ibt_groom?$AA@ 00000000710f91b0     options.c.obj
 0002:0000b1c0       ??_C@_0BM@HGJGGLOG@coarse_pclookup_htable_load?$AA@ 00000000710f91c0     options.c.obj
 0002:0000b1e0       ??_C@_0BG@ECBGKLHA@coarse_th_htable_load?$AA@ 00000000710f91e0     options.c.obj
 0002:0000b1f8       ??_C@_0BD@JJLNBMAN@coarse_htable_load?$AA@ 00000000710f91f8     options.c.obj
 0002:0000b210       ??_C@_0BJ@PIJNIALK@shared_ibt_table_bb_load?$AA@ 00000000710f9210     options.c.obj
 0002:0000b230       ??_C@_0BM@KCHLBALD@shared_ibt_table_trace_load?$AA@ 00000000710f9230     options.c.obj
 0002:0000b250       ??_C@_0BJ@MMBACLEG@shared_ibt_table_bb_init?$AA@ 00000000710f9250     options.c.obj
 0002:0000b270       ??_C@_0BM@JGPGLLEP@shared_ibt_table_trace_init?$AA@ 00000000710f9270     options.c.obj
 0002:0000b290       ??_C@_0BM@LBJLDLJD@private_bb_ibl_targets_load?$AA@ 00000000710f9290     options.c.obj
 0002:0000b2b0       ??_C@_0BJ@JLFLBOLE@private_ibl_targets_load?$AA@ 00000000710f92b0     options.c.obj
 0002:0000b2d0       ??_C@_0BD@KAHKICIA@private_trace_load?$AA@ 00000000710f92d0     options.c.obj
 0002:0000b2e8       ??_C@_0BH@CNCFFPPG@global_rct_ind_br_load?$AA@ 00000000710f92e8     options.c.obj
 0002:0000b300       ??_C@_0BH@MOPOHIAK@shared_after_call_load?$AA@ 00000000710f9300     options.c.obj
 0002:0000b318       ??_C@_0BD@NIOOMNHL@shared_future_load?$AA@ 00000000710f9318     options.c.obj
 0002:0000b330       ??_C@_0BC@GFLJGPHE@shared_trace_load?$AA@ 00000000710f9330     options.c.obj
 0002:0000b348       ??_C@_0P@MLMFODDA@shared_bb_load?$AA@ 00000000710f9348     options.c.obj
 0002:0000b358       ??_C@_0BI@JFMALDJP@ibl_indcall_hash_offset?$AA@ 00000000710f9358     options.c.obj
 0002:0000b370       ??_C@_0BF@EIJPCMBL@ibl_hash_func_offset?$AA@ 00000000710f9370     options.c.obj
 0002:0000b388       ??_C@_0O@MPKJOLBG@alt_hash_func?$AA@ 00000000710f9388     options.c.obj
 0002:0000b398       ??_C@_0BJ@DMMPLHMD@single_privileged_thread?$AA@ 00000000710f9398     options.c.obj
 0002:0000b3b8       ??_C@_0N@CBGJPHNI@protect_mask?$AA@ 00000000710f93b8     options.c.obj
 0002:0000b3c8       ??_C@_0O@LEPKFAJF@max_trace_bbs?$AA@ 00000000710f93c8     options.c.obj
 0002:0000b3d8       ??_C@_0BE@ONPCCLFH@speculate_last_exit?$AA@ 00000000710f93d8     options.c.obj
 0002:0000b3f0       ??_C@_0BJ@CCNMHKJG@shared_trace_ibl_routine?$AA@ 00000000710f93f0     options.c.obj
 0002:0000b410       ??_C@_0BA@EGMFAPF@shared_bbs_only?$AA@ 00000000710f9410     options.c.obj
 0002:0000b420       ??_C@_0BH@CMKDAJHN@rehash_unlinked_always?$AA@ 00000000710f9420     options.c.obj
 0002:0000b438       ??_C@_0BK@HHECHNKE@rehash_unlinked_threshold?$AA@ 00000000710f9438     options.c.obj
 0002:0000b458       ??_C@_0BM@DKBOCGHF@trace_single_restore_prefix?$AA@ 00000000710f9458     options.c.obj
 0002:0000b478       ??_C@_0BJ@LAEOCIED@bb_single_restore_prefix?$AA@ 00000000710f9478     options.c.obj
 0002:0000b498       ??_C@_0BN@MKICGLEE@bb_ibt_table_includes_traces?$AA@ 00000000710f9498     options.c.obj
 0002:0000b4b8       ??_C@_0P@GJJPIALH@bb_ibl_targets?$AA@ 00000000710f94b8     options.c.obj
 0002:0000b4c8       ??_C@_0BB@ELMMCOFG@ibl_table_in_tls?$AA@ 00000000710f94c8     options.c.obj
 0002:0000b4e0       ??_C@_0BM@POLGDDNG@ref_count_shared_ibt_tables?$AA@ 00000000710f94e0     options.c.obj
 0002:0000b500       ??_C@_0BI@BMGNKPNI@shared_trace_ibt_tables?$AA@ 00000000710f9500     options.c.obj
 0002:0000b518       ??_C@_0BF@OLNNFHP@shared_bb_ibt_tables?$AA@ 00000000710f9518     options.c.obj
 0002:0000b530       ??_C@_0BB@BGMFKDLE@inline_trace_ibl?$AA@ 00000000710f9530     options.c.obj
 0002:0000b548       ??_C@_0BH@LOGJAIHB@atomic_inlined_linking?$AA@ 00000000710f9548     options.c.obj
 0002:0000b560       ??_C@_0O@IMKEJACC@inline_bb_ibl?$AA@ 00000000710f9560     options.c.obj
 0002:0000b570       ??_C@_0P@LLDKFBIK@indirect_stubs?$AA@ 00000000710f9570     options.c.obj
 0002:0000b580       ??_C@_0BA@LPCDKNMI@cbr_single_stub?$AA@ 00000000710f9580     options.c.obj
 0002:0000b590       ??_C@_0BJ@FNCNIHKA@unsafe_free_shared_stubs?$AA@ 00000000710f9590     options.c.obj
 0002:0000b5b0       ??_C@_0BD@NOEKLGMI@free_private_stubs?$AA@ 00000000710f95b0     options.c.obj
 0002:0000b5c8       ??_C@_0BG@GEKKBHPB@separate_shared_stubs?$AA@ 00000000710f95c8     options.c.obj
 0002:0000b5e0       ??_C@_0BH@MDFEODMM@separate_private_stubs?$AA@ 00000000710f95e0     options.c.obj
 0002:0000b5f8       ??_C@_0BE@HMGEEGCL@single_thread_in_DR?$AA@ 00000000710f95f8     options.c.obj
 0002:0000b610       ??_C@_0BC@PFMAEKLA@private_ib_in_tls?$AA@ 00000000710f9610     options.c.obj
 0002:0000b628       ??_C@_0BG@PGKKLBEC@free_unmapped_futures?$AA@ 00000000710f9628     options.c.obj
 0002:0000b640       ??_C@_0BK@FPPHJCOM@lazy_deletion_max_pending?$AA@ 00000000710f9640     options.c.obj
 0002:0000b660       ??_C@_0BF@FGGJJJGP@syscalls_synch_flush?$AA@ 00000000710f9660     options.c.obj
 0002:0000b678       ??_C@_0BA@MEOGEMGP@shared_deletion?$AA@ 00000000710f9678     options.c.obj
 0002:0000b688       ??_C@_0BI@DOKCHNEP@remove_trace_components?$AA@ 00000000710f9688     options.c.obj
 0002:0000b6a0       ??_C@_0BK@BLIPPLDC@remove_shared_trace_heads?$AA@ 00000000710f96a0     options.c.obj
 0002:0000b6c0       ??_C@_0P@NDEKLHCN@thread_private?$AA@ 00000000710f96c0     options.c.obj
 0002:0000b6d0       ??_C@_0O@NKEGFBCK@shared_traces?$AA@ 00000000710f96d0     options.c.obj
 0002:0000b6e0       ??_C@_0L@LKCDEBII@shared_bbs?$AA@ 00000000710f96e0     options.c.obj
 0002:0000b6f0       ??_C@_0BD@IDJPCFBE@check_for_SEH_push?$AA@ 00000000710f96f0     options.c.obj
 0002:0000b708       ??_C@_0BB@HNIBBOHI@process_SEH_push?$AA@ 00000000710f9708     options.c.obj
 0002:0000b720       ??_C@_0O@BBPGELP@max_bb_instrs?$AA@ 00000000710f9720     options.c.obj
 0002:0000b730       ??_C@_0BD@KCODGNLB@selfmod_max_writes?$AA@ 00000000710f9730     options.c.obj
 0002:0000b748       ??_C@_0BB@MGEELOKH@elide_back_calls?$AA@ 00000000710f9748     options.c.obj
 0002:0000b760       ??_C@_0BA@BOMLLMPP@elide_back_jmps?$AA@ 00000000710f9760     options.c.obj
 0002:0000b770       ??_C@_0P@JGDENKHC@max_elide_call?$AA@ 00000000710f9770     options.c.obj
 0002:0000b780       ??_C@_0O@OLBDDKIK@max_elide_jmp?$AA@ 00000000710f9780     options.c.obj
 0002:0000b790       ??_C@_0BI@FILEDPNI@trace_counter_on_delete?$AA@ 00000000710f9790     options.c.obj
 0002:0000b7a8       ??_C@_0O@KBELACGP@enable_traces?$AA@ 00000000710f97a8     options.c.obj
 0002:0000b7b8       ??_C@_0P@LGLPAPEG@disable_traces?$AA@ 00000000710f97b8     options.c.obj
 0002:0000b7c8       ??_C@_0BA@GHJKABJM@trace_threshold?$AA@ 00000000710f97c8     options.c.obj
 0002:0000b7d8       ??_C@_09LMCAMFHG@nullcalls?$AA@ 00000000710f97d8     options.c.obj
 0002:0000b7e8       ??_C@_0BD@LNHCEIIP@nop_initial_bblock?$AA@ 00000000710f97e8     options.c.obj
 0002:0000b800       ??_C@_0BG@FAGKJGIB@spinlock_count_on_SMP?$AA@ 00000000710f9800     options.c.obj
 0002:0000b818       ??_C@_0BF@KEICJEAP@stack_shares_gencode?$AA@ 00000000710f9818     options.c.obj
 0002:0000b830       ??_C@_0L@NELPJPHD@stack_size?$AA@ 00000000710f9830     options.c.obj
 0002:0000b840       ??_C@_0BB@DBKECCBH@deadlock_timeout?$AA@ 00000000710f9840     options.c.obj
 0002:0000b858       ??_C@_0BA@KDOPPBOJ@svchost_timeout?$AA@ 00000000710f9858     options.c.obj
 0002:0000b868       ??_C@_0BA@PCILKBLG@os_aslr_version?$AA@ 00000000710f9868     options.c.obj
 0002:0000b878       ??_C@_07DCFCJKKK@os_aslr?$AA@ 00000000710f9878     options.c.obj
 0002:0000b880       ??_C@_0BJ@KGMKFPOE@max_supported_os_version?$AA@ 00000000710f9880     options.c.obj
 0002:0000b8a0       ??_C@_0M@LDBGBFFJ@diagnostics?$AA@ 00000000710f98a0     options.c.obj
 0002:0000b8b0       ??_C@_0O@MNGFBMKJ@appfault_mask?$AA@ 00000000710f98b0     options.c.obj
 0002:0000b8c0       ??_C@_0M@NCBIBDG@stderr_mask?$AA@ 00000000710f98c0     options.c.obj
 0002:0000b8d0       ??_C@_0O@FEPDNLMH@external_dump?$AA@ 00000000710f98d0     options.c.obj
 0002:0000b8e0       ??_C@_09DGGEKFFJ@live_dump?$AA@ 00000000710f98e0     options.c.obj
 0002:0000b8f0       ??_C@_0BN@HJAPDIHI@dumpcore_violation_threshold?$AA@ 00000000710f98f0     options.c.obj
 0002:0000b910       ??_C@_0O@BFJOIPPM@dumpcore_mask?$AA@ 00000000710f9910     options.c.obj
 0002:0000b920       ??_C@_0BF@IOMDKEHA@internal_detach_mask?$AA@ 00000000710f9920     options.c.obj
 0002:0000b938       ??_C@_0M@MDEOJMG@syslog_init?$AA@ 00000000710f9938     options.c.obj
 0002:0000b948       ??_C@_0BF@HIHHIGFB@syslog_internal_mask?$AA@ 00000000710f9948     options.c.obj
 0002:0000b960       ??_C@_0M@HNDMHHGI@syslog_mask?$AA@ 00000000710f9960     options.c.obj
 0002:0000b970       ??_C@_0BB@KIBKAJMO@eventlog_timeout?$AA@ 00000000710f9970     options.c.obj
 0002:0000b988       ??_C@_0M@NKLAHCJ@msgbox_mask?$AA@ 00000000710f9988     options.c.obj
 0002:0000b998       ??_C@_0O@JFNIDBOK@prof_pcs_freq?$AA@ 00000000710f9998     options.c.obj
 0002:0000b9a8       ??_C@_0BA@OCKFIDLH@prof_pcs_global?$AA@ 00000000710f99a8     options.c.obj
 0002:0000b9b8       ??_C@_0P@EGFDNHHH@prof_pcs_ntdll?$AA@ 00000000710f99b8     options.c.obj
 0002:0000b9c8       ??_C@_0P@NGHKNFFM@prof_pcs_stubs?$AA@ 00000000710f99c8     options.c.obj
 0002:0000b9d8       ??_C@_0BA@GMBLGDBE@prof_pcs_fcache?$AA@ 00000000710f99d8     options.c.obj
 0002:0000b9e8       ??_C@_0BB@MAAFIFAD@prof_pcs_gencode?$AA@ 00000000710f99e8     options.c.obj
 0002:0000ba00       ??_C@_0M@DFLHCHBB@prof_pcs_DR?$AA@ 00000000710f9a00     options.c.obj
 0002:0000ba10       ??_C@_0BD@NELPINKC@x86_to_x64_ibl_opt?$AA@ 00000000710f9a10     options.c.obj
 0002:0000ba28       ??_C@_0L@BEBBJEFA@x86_to_x64?$AA@ 00000000710f9a28     options.c.obj
 0002:0000ba38       ??_C@_0P@LDJIGNKB@mangle_app_seg?$AA@ 00000000710f9a38     options.c.obj
 0002:0000ba48       ??_C@_0BI@NAIACOKL@cleancall_ignore_eflags?$AA@ 00000000710f9a48     options.c.obj
 0002:0000ba60       ??_C@_0O@FAMNJDHJ@opt_cleancall?$AA@ 00000000710f9a60     options.c.obj
 0002:0000ba70       ??_C@_0BD@OOPPJGMF@fast_client_decode?$AA@ 00000000710f9a70     options.c.obj
 0002:0000ba88       ??_C@_0M@PMPJJJCE@full_decode?$AA@ 00000000710f9a88     options.c.obj
 0002:0000ba98       ??_C@_0M@GJLGFNLH@bb_prefixes?$AA@ 00000000710f9a98     options.c.obj
 0002:0000baa8       ??_C@_0L@JJGDEDCC@opt_memory?$AA@ 00000000710f9aa8     options.c.obj
 0002:0000bab8       ??_C@_09GKMDCGM@opt_speed?$AA@ 00000000710f9ab8     options.c.obj
 0002:0000bac8       ??_C@_09KAKFPILC@probe_api?$AA@ 00000000710f9ac8     options.c.obj
 0002:0000bad8       ??_C@_08ILAEGCPK@code_api?$AA@ 00000000710f9ad8     options.c.obj
 0002:0000bae8       ??_C@_0M@DMJBPECP@private_peb?$AA@ 00000000710f9ae8     options.c.obj
 0002:0000baf8       ??_C@_0BB@FDIFGKLK@privlib_privheap?$AA@ 00000000710f9af8     options.c.obj
 0002:0000bb10       ??_C@_0P@GFNNFLGN@private_loader?$AA@ 00000000710f9b10     options.c.obj
 0002:0000bb20       ??_C@_0L@GOBKFCLA@client_lib?$AA@ 00000000710f9b20     options.c.obj
 0002:0000bb30       ??_C@_07NEAAOFN@opt_jit?$AA@ 00000000710f9b30     options.c.obj
 0002:0000bb38       ??_C@_08DLIMMJOI@prof_pcs?$AA@ 00000000710f9b38     options.c.obj
 0002:0000bb44       ??_C@_06LOLGHLCB@kstats?$AA@ 00000000710f9b44     options.c.obj
 0002:0000bb4c       ??_C@_06BCHOJLEN@logdir?$AA@ 00000000710f9b4c     options.c.obj
 0002:0000bb58       ??_C@_0O@CHHEGCNN@global_rstats?$AA@ 00000000710f9b58     options.c.obj
 0002:0000bb68       ??_C@_07PEOACEPK@gendump?$AA@ 00000000710f9b68     options.c.obj
 0002:0000bb70       ??_C@_0M@LGNPDIPE@bbdump_tags?$AA@ 00000000710f9b70     options.c.obj
 0002:0000bb80       ??_C@_0M@NFGBCLKN@disasm_mask?$AA@ 00000000710f9b80     options.c.obj
 0002:0000bb90       ??_C@_0O@PPDKPFAG@decode_strict?$AA@ 00000000710f9b90     options.c.obj
 0002:0000bba0       ??_C@_0L@DBBALILK@syntax_arm?$AA@ 00000000710f9ba0     options.c.obj
 0002:0000bbb0       ??_C@_0L@KOJNGNBA@syntax_att?$AA@ 00000000710f9bb0     options.c.obj
 0002:0000bbc0       ??_C@_0N@DIJGIBAH@syntax_intel?$AA@ 00000000710f9bc0     options.c.obj
 0002:0000bbd0       ??_C@_0BC@OCFJJLOA@tracedump_origins?$AA@ 00000000710f9bd0     options.c.obj
 0002:0000bbe8       ??_C@_0P@CLFKIKLB@tracedump_text?$AA@ 00000000710f9be8     options.c.obj
 0002:0000bbf8       ??_C@_0BB@KCJAAMBM@tracedump_binary?$AA@ 00000000710f9bf8     options.c.obj
 0002:0000bc10       ??_C@_08KLMJDBCG@link_ibl?$AA@ 00000000710f9c10     options.c.obj
 0002:0000bc1c       ??_C@_06JOBENMDF@nolink?$AA@ 00000000710f9c1c     options.c.obj
 0002:0000bc24       ??_C@_05JJDEBGJM@?$DM?$CFs?$DO?6?$AA@ 00000000710f9c24     options.c.obj
 0002:0000bc30       ??_C@_07CPCPJPKL@version?$AA@ 00000000710f9c30     options.c.obj
 0002:0000bc38       ??_C@_03HLOKGNFF@no_?$AA@  00000000710f9c38     options.c.obj
 0002:0000bc40       ??_C@_0BA@NEEKIGAJ@dynamic_options?$AA@ 00000000710f9c40     options.c.obj
 0002:0000bc50       ??_C@_06HBDFNLOA@?9?$CFs?$CFs?5?$AA@ 00000000710f9c50     options.c.obj
 0002:0000bc57       ??_C@_00CNPNBAHC@?$AA@     00000000710f9c57     options.c.obj
 0002:0000bc58       ??_C@_07GEOKAJBD@?9?$CFs?5?$CFd?5?$AA@ 00000000710f9c58     options.c.obj
 0002:0000bc60       ??_C@_09BGIAJJAP@?9?$CFs?50x?$CFx?5?$AA@ 00000000710f9c60     options.c.obj
 0002:0000bc70       ??_C@_0BA@HAEDPKLB@?9?$CFs?50x?$CF016I64x?5?$AA@ 00000000710f9c70     options.c.obj
 0002:0000bc80       ??_C@_09OMNOJPEF@?9?$CFs?5?$CFd?$CFs?5?$AA@ 00000000710f9c80     options.c.obj
 0002:0000bc8c       ??_C@_01HMGJMAIH@B?$AA@    00000000710f9c8c     options.c.obj
 0002:0000bc90       ??_C@_01KNKLHLMO@K?$AA@    00000000710f9c90     options.c.obj
 0002:0000bc98       ??_C@_09EBFGJJKF@?9?$CFs?5?8?$CFs?8?5?$AA@ 00000000710f9c98     options.c.obj
 0002:0000bca8       ??_C@_0BC@JFEMBCBK@DYNAMORIO_OPTIONS?$AA@ 00000000710f9ca8     options.c.obj
 0002:0000bcc0       ??_C@_08GHMAOHAP@optimize?$AA@ 00000000710f9cc0     options.c.obj
 0002:0000bcd0       ??_C@_0L@GLCJFLPF@R_aka_aslr?$AA@ 00000000710f9cd0     options.c.obj
 0002:0000bce0       ??_C@_0CB@GDMLFMHA@enable_full_api_aka_coarse_units@ 00000000710f9ce0     options.c.obj
 0002:0000bd08       ??_C@_0BI@FGICKGPE@staged_aka_use_moduledb?$AA@ 00000000710f9d08     options.c.obj
 0002:0000bd20       ??_C@_0M@ENMPFAKH@profile_pcs?$AA@ 00000000710f9d20     options.c.obj
 0002:0000bd30       ??_C@_0O@CDBGGAIM@dummy_version?$AA@ 00000000710f9d30     options.c.obj
 0002:0000bd40       ??_C@_0BA@MELOJPHI@SYSLOG_CRITICAL?$AA@ 00000000710f9d40     options.c.obj
 0002:0000bd50       ??_C@_0DL@BPFOKDK@Application?5?$CFs?5?$CI?$CFs?$CJ?5bad?5option?5s@ 00000000710f9d50     options.c.obj
 0002:0000bd90       ??_C@_0BC@KOPDOIAA@fatal?5usage?5error?$AA@ 00000000710f9d90     options.c.obj
 0002:0000bda8       ??_C@_0O@DKGHACLH@dynamorio?4dll?$AA@ 00000000710f9da8     options.c.obj
 0002:0000bdb8       ??_C@_08BLDFAJMO@?4cspdata?$AA@ 00000000710f9db8     dynamo.c.obj
 0002:0000bdc8       ??_C@_08FDNFAHKK@?4fspdata?$AA@ 00000000710f9dc8     dynamo.c.obj
 0002:0000bdd4       ??_C@_05LDKNOBJL@?4data?$AA@ 00000000710f9dd4     dynamo.c.obj
 0002:0000bde0       ??_C@_08IADABMBP@?4nspdata?$AA@ 00000000710f9de0     dynamo.c.obj
 0002:0000bdf0       datasec_writable_neverprot 00000000710f9df0     dynamo.c.obj
 0002:0000bdf8       DATASEC_SELFPROT           00000000710f9df8     dynamo.c.obj
 0002:0000be08       DATASEC_NAMES              00000000710f9e08     dynamo.c.obj
 0002:0000be28       ??_C@_0BN@NDDEHAKM@Peak?5heap?5units?5on?5free?5list?$AA@ 00000000710f9e28     dynamo.c.obj
 0002:0000be48       ??_C@_0BI@FDFGAHP@Heap?5units?5on?5free?5list?$AA@ 00000000710f9e48     dynamo.c.obj
 0002:0000be60       ??_C@_0BN@BILHAKAB@Peak?5heap?5units?5on?5live?5list?$AA@ 00000000710f9e60     dynamo.c.obj
 0002:0000be80       ??_C@_0BI@MOLGBKNC@Heap?5units?5on?5live?5list?$AA@ 00000000710f9e80     dynamo.c.obj
 0002:0000be98       ??_C@_0BP@FDMIJPKA@Peak?5fcache?5units?5on?5free?5list?$AA@ 00000000710f9e98     dynamo.c.obj
 0002:0000beb8       ??_C@_0BK@OEGKMPBJ@Fcache?5units?5on?5free?5list?$AA@ 00000000710f9eb8     dynamo.c.obj
 0002:0000bed8       ??_C@_0BP@JIELOFAN@Peak?5fcache?5units?5on?5live?5list?$AA@ 00000000710f9ed8     dynamo.c.obj
 0002:0000bef8       ??_C@_0BK@CPOJLFLE@Fcache?5units?5on?5live?5list?$AA@ 00000000710f9ef8     dynamo.c.obj
 0002:0000bf18       ??_C@_0CF@DBHDLAOD@Persisted?5caches?5successfully?5lo@ 00000000710f9f18     dynamo.c.obj
 0002:0000bf40       ??_C@_0BI@CHDLDCDE@Peak?5coarse?9grain?5units?$AA@ 00000000710f9f40     dynamo.c.obj
 0002:0000bf58       ??_C@_0BD@MPABPKHL@Coarse?9grain?5units?$AA@ 00000000710f9f58     dynamo.c.obj
 0002:0000bf70       ??_C@_0BK@EEACMCKH@Trace?5fragments?5generated?$AA@ 00000000710f9f70     dynamo.c.obj
 0002:0000bf90       ??_C@_0CA@FAACLDLC@Basic?5block?5fragments?5generated?$AA@ 00000000710f9f90     dynamo.c.obj
 0002:0000bfb0       ??_C@_0BE@GFJLOGLJ@Application?5munmaps?$AA@ 00000000710f9fb0     dynamo.c.obj
 0002:0000bfc8       ??_C@_0BC@LPNJDHBA@Application?5mmaps?$AA@ 00000000710f9fc8     dynamo.c.obj
 0002:0000bfe0       ??_C@_0BH@KGFOFMKP@Native?5modules?5present?$AA@ 00000000710f9fe0     dynamo.c.obj
 0002:0000bff8       ??_C@_0BD@DJBOACLK@System?5calls?0?5post?$AA@ 00000000710f9ff8     dynamo.c.obj
 0002:0000c010       ??_C@_0BC@ECLPEIDC@System?5calls?0?5pre?$AA@ 00000000710fa010     dynamo.c.obj
 0002:0000c028       ??_C@_0L@OGPLIMOG@Exceptions?$AA@ 00000000710fa028     dynamo.c.obj
 0002:0000c034       ??_C@_04OBINGPBF@APCs?$AA@ 00000000710fa034     dynamo.c.obj
 0002:0000c040       ??_C@_09GBNPILBN@Callbacks?$AA@ 00000000710fa040     dynamo.c.obj
 0002:0000c050       ??_C@_0BF@JGKIEKIF@Threads?5ever?5created?$AA@ 00000000710fa050     dynamo.c.obj
 0002:0000c068       ??_C@_0CF@LFLEHKAL@Peak?5threads?5under?5DynamoRIO?5con@ 00000000710fa068     dynamo.c.obj
 0002:0000c090       ??_C@_0CA@JHBBMOGG@Threads?5under?5DynamoRIO?5control?$AA@ 00000000710fa090     dynamo.c.obj
 0002:0000c0b0       ??_C@_0CM@JHFDLGGD@D?3?2drmemory_package?2dynamorio?2co@ 00000000710fa0b0     dynamo.c.obj
 0002:0000c0e0       ??_C@_0BK@JDAKEJF@DynamoRIO?5not?5initialized?$AA@ 00000000710fa0e0     dynamo.c.obj
 0002:0000c100       ??_C@_0P@BDLLDNGO@SYSLOG_WARNING?$AA@ 00000000710fa100     dynamo.c.obj
 0002:0000c110       ??_C@_0CL@HAOJEBH@Application?5?$CFs?5?$CI?$CFs?$CJ?4?5?5Internal?5W@ 00000000710fa110     dynamo.c.obj
 0002:0000c140       ??_C@_0DI@LLFKBKKK@Failed?5to?5take?5over?5all?5threads?5@ 00000000710fa140     dynamo.c.obj
 0002:0000c178       ??_C@_0BD@MDPJDNJM@SYSLOG_INFORMATION?$AA@ 00000000710fa178     dynamo.c.obj
 0002:0000c190       ??_C@_0BN@GPLIKFGF@Stopping?5application?5?$CFs?5?$CI?$CFs?$CJ?$AA@ 00000000710fa190     dynamo.c.obj
 0002:0000c1b0       ??_C@_0BN@PPJECPLM@Starting?5application?5?$CFs?5?$CI?$CFs?$CJ?$AA@ 00000000710fa1b0     dynamo.c.obj
 0002:0000c2a0       ??_C@_0IF@NPIIIFNI@Application?5?$CFs?5?$CI?$CFs?$CJ?4?5Basic?5block@ 00000000710fa2a0     fragment.c.obj
 0002:0000c328       ??_C@_0P@HOIIGDFH@END?5TRACE?5?$CFd?6?6?$AA@ 00000000710fa328     fragment.c.obj
 0002:0000c338       ??_C@_06OBDDEPAJ@Body?3?6?$AA@ 00000000710fa338     fragment.c.obj
 0002:0000c340       ??_C@_0L@DBBFOLIJ@Size?5?$DN?5?$CFd?6?$AA@ 00000000710fa340     fragment.c.obj
 0002:0000c350       ??_C@_0BE@OFEBINKM@END?5ORIGINAL?5CODE?6?6?$AA@ 00000000710fa350     fragment.c.obj
 0002:0000c368       ??_C@_0BD@BKMKNJMN@basic?5block?5?$CD?5?$CFd?3?5?$AA@ 00000000710fa368     fragment.c.obj
 0002:0000c380       ??_C@_0BB@GNLNMCHO@?6ORIGINAL?5CODE?3?6?$AA@ 00000000710fa380     fragment.c.obj
 0002:0000c398       ??_C@_0CF@FEKNOEMB@Module?5of?5basic?5block?50?5?$DN?5?$DMunkno@ 00000000710fa398     fragment.c.obj
 0002:0000c3c0       ??_C@_0BO@IMHOGEEO@Module?5of?5basic?5block?50?5?$DN?5?$CFs?6?$AA@ 00000000710fa3c0     fragment.c.obj
 0002:0000c3e0       ??_C@_0DE@IBFJNPLH@?$CK?$CK?$CK?5Flushed?5from?5cache?5when?5top?5@ 00000000710fa3e0     fragment.c.obj
 0002:0000c418       ??_C@_0N@NJKDHFN@Thread?5?$DN?5?$CFd?6?$AA@ 00000000710fa418     fragment.c.obj
 0002:0000c428       ??_C@_0BC@JMCFIFJO@Tag?5?$DN?50x?$CF016I64x?6?$AA@ 00000000710fa428     fragment.c.obj
 0002:0000c440       ??_C@_0M@MBAGBGKJ@TRACE?5?$CD?5?$CFd?6?$AA@ 00000000710fa440     fragment.c.obj
 0002:0000c450       ??_C@_0EO@CJKDBJCB@?$DN?$DN?$DN?$DN?$DN?$DN?$DN?$DN?$DN?$DN?$DN?$DN?$DN?$DN?$DN?$DN?$DN?$DN?$DN?$DN?$DN?$DN?$DN?$DN?$DN?$DN?$DN?$DN?$DN?$DN?$DN?$DN@ 00000000710fa450     fragment.c.obj
 0002:0000c4a0       ??_C@_01EEMJAFIK@?6?$AA@   00000000710fa4a0     fragment.c.obj
 0002:0000c4a8       ??_C@_0BF@DPKGKKGL@?7bb?5?$CFd?5?$DN?50x?$CF016I64x?6?$AA@ 00000000710fa4a8     fragment.c.obj
 0002:0000c4c0       ??_C@_09GPOFMJCC@Trace?5?$CFd?6?$AA@ 00000000710fa4c0     fragment.c.obj
 0002:0000c4d0       ??_C@_0O@PCLDDCFH@traces?9shared?$AA@ 00000000710fa4d0     fragment.c.obj
 0002:0000c4e0       ??_C@_06PLJBFNJN@traces?$AA@ 00000000710fa4e0     fragment.c.obj
 0002:0000c510       ??_C@_0EG@KKIHHJHC@cache_shared_trace_unit_init?5sho@ 00000000710fa510     fcache.c.obj
 0002:0000c558       ??_C@_0CE@GFKHMHNH@Shared?5trace?5cache_commit_increm@ 00000000710fa558     fcache.c.obj
 0002:0000c580       ??_C@_0CC@JKBEPFLK@Shared?5trace?5cache?5unit?5init?5siz@ 00000000710fa580     fcache.c.obj
 0002:0000c5a8       ??_C@_0CK@LFGDHEML@Shared?5trace?5cache?5unit?5free?5upg@ 00000000710fa5a8     fcache.c.obj
 0002:0000c5d8       ??_C@_0CK@PHONEFAA@Shared?5trace?5cache?5unit?5quadrupl@ 00000000710fa5d8     fcache.c.obj
 0002:0000c608       ??_C@_0CB@NHMJBGDK@Shared?5trace?5cache?5unit?5max?5size@ 00000000710fa608     fcache.c.obj
 0002:0000c630       ??_C@_0BM@HIKNALPM@Shared?5trace?5cache?5max?5size?$AA@ 00000000710fa630     fcache.c.obj
 0002:0000c650       ??_C@_0EA@BJKLCICF@cache_shared_bb_unit_init?5should@ 00000000710fa650     fcache.c.obj
 0002:0000c690       ??_C@_0CB@INLPHFMF@Shared?5bb?5cache_commit_increment@ 00000000710fa690     fcache.c.obj
 0002:0000c6b8       ??_C@_0BP@PGNHMKFK@Shared?5bb?5cache?5unit?5init?5size?$AA@ 00000000710fa6b8     fcache.c.obj
 0002:0000c6d8       ??_C@_0CH@KDCGHCEH@Shared?5bb?5cache?5unit?5free?5upgrad@ 00000000710fa6d8     fcache.c.obj
 0002:0000c700       ??_C@_0CH@OBKIEDIM@Shared?5bb?5cache?5unit?5quadruple?9t@ 00000000710fa700     fcache.c.obj
 0002:0000c728       ??_C@_0BO@BCGDBLGO@Shared?5bb?5cache?5unit?5max?5size?$AA@ 00000000710fa728     fcache.c.obj
 0002:0000c748       ??_C@_0BJ@JIKEKBA@Shared?5bb?5cache?5max?5size?$AA@ 00000000710fa748     fcache.c.obj
 0002:0000c768       ??_C@_0BN@DMKPKNBD@Trace?5cache_commit_increment?$AA@ 00000000710fa768     fcache.c.obj
 0002:0000c788       ??_C@_0BL@MGIAIKAP@Trace?5cache?5unit?5init?5size?$AA@ 00000000710fa788     fcache.c.obj
 0002:0000c7a8       ??_C@_0CD@EKEBHKFF@Trace?5cache?5unit?5free?5upgrade?5si@ 00000000710fa7a8     fcache.c.obj
 0002:0000c7d0       ??_C@_0CD@IMPELJO@Trace?5cache?5unit?5quadruple?9to?5si@ 00000000710fa7d0     fcache.c.obj
 0002:0000c7f8       ??_C@_0BK@PANMKHIB@Trace?5cache?5unit?5max?5size?$AA@ 00000000710fa7f8     fcache.c.obj
 0002:0000c818       ??_C@_0BF@FGICFKJI@Trace?5cache?5max?5size?$AA@ 00000000710fa818     fcache.c.obj
 0002:0000c830       ??_C@_0CD@BAGGIECL@Basic?5block?5cache_commit_increme@ 00000000710fa830     fcache.c.obj
 0002:0000c858       ??_C@_0CB@KLEJGOJF@Basic?5block?5cache?5unit?5init?5size@ 00000000710fa858     fcache.c.obj
 0002:0000c880       ??_C@_0CJ@FEKLKMOI@Basic?5block?5cache?5unit?5free?5upgr@ 00000000710fa880     fcache.c.obj
 0002:0000c8b0       ??_C@_0CJ@BGCFJNCD@Basic?5block?5cache?5unit?5quadruple@ 00000000710fa8b0     fcache.c.obj
 0002:0000c8e0       ??_C@_0CA@OENMNGJE@Basic?5block?5cache?5unit?5max?5size?$AA@ 00000000710fa8e0     fcache.c.obj
 0002:0000c900       ??_C@_0BL@MMKNLKJK@Basic?5block?5cache?5max?5size?$AA@ 00000000710fa900     fcache.c.obj
 0002:0000c920       ??_C@_0DF@CIHDNIIA@?6Dumping?5fcache?5?$CFs?5unit?5profile?5@ 00000000710fa920     fcache.c.obj
 0002:0000c958       ??_C@_0DC@EFMIIOME@?6Dumping?5fcache?5?$CFs?5unit?5profile?5@ 00000000710fa958     fcache.c.obj
 0002:0000c98c       ??_C@_02BMCGDAIG@bb?$AA@   00000000710fa98c     fcache.c.obj
 0002:0000c990       ??_C@_05IMBNNINJ@trace?$AA@ 00000000710fa990     fcache.c.obj
 0002:0000cb80       ??_C@_06PJIGMIJB@Client?$AA@ 00000000710fab80     utils.c.obj
 0002:0000cb88       ??_C@_0BN@GNGNDJLF@http?3?1?1dynamorio?4org?1issues?1?$AA@ 00000000710fab88     utils.c.obj
 0002:0000cba8       ??_C@_09PJCCGOLB@DynamoRIO?$AA@ 00000000710faba8     utils.c.obj
 0002:0000cc20       crctab                     00000000710fac20     utils.c.obj
 0002:0000d020       ??_C@_01JOAMLHOP@?9?$AA@   00000000710fb020     utils.c.obj
 0002:0000d030       __mask@@NegDouble@         00000000710fb030     utils.c.obj
 0002:0000d040       ??_C@_0BH@LGEIDDAP@?$CFs?5?$CFs?5at?5PC?50x?$CF016I64x?$AA@ 00000000710fb040     utils.c.obj
 0002:0000d058       ??_C@_0P@IOGANGNC@internal?5crash?$AA@ 00000000710fb058     utils.c.obj
 0002:0000d068       ??_C@_0BC@MIKOJOPJ@application?5fault?$AA@ 00000000710fb068     utils.c.obj
 0002:0000d080       ??_C@_0DK@CODIBCMO@Application?5?$CFs?5?$CI?$CFs?$CJ?4?5?5Applicatio@ 00000000710fb080     utils.c.obj
 0002:0000d0c0       ??_C@_0M@DLPHMIMB@Callstack?3?6?$AA@ 00000000710fb0c0     utils.c.obj
 0002:0000d0d0       ??_C@_0L@IMDHDNFD@0x?$CF016I64x?$AA@ 00000000710fb0d0     utils.c.obj
 0002:0000d0dc       ??_C@_02HAOIJKIC@?$CFc?$AA@ 00000000710fb0dc     utils.c.obj
 0002:0000d0e0       ??_C@_03GFBKFKN@?$CC?$DL?6?$AA@ 00000000710fb0e0     utils.c.obj
 0002:0000d0e4       ??_C@_04LFMLMJGH@?$CF2c?5?$AA@ 00000000710fb0e4     utils.c.obj
 0002:0000d0ec       ??_C@_04NKHGCJAD@?$CF8c?5?$AA@ 00000000710fb0ec     utils.c.obj
 0002:0000d0f4       ??_C@_04NHHKOAC@?$CF3c?5?$AA@ 00000000710fb0f4     utils.c.obj
 0002:0000d0fc       ??_C@_04EJPHMJG@?$CF03o?$AA@ 00000000710fb0fc     utils.c.obj
 0002:0000d104       ??_C@_04NOJCDH@?$CF02x?$AA@ 00000000710fb104     utils.c.obj
 0002:0000d10c       ??_C@_04NEJBHOB@?$CF08x?$AA@ 00000000710fb10c     utils.c.obj
 0002:0000d114       ??_C@_02ICPOACMH@?2x?$AA@  00000000710fb114     utils.c.obj
 0002:0000d118       ??_C@_01KICIPPFI@?2?$AA@   00000000710fb118     utils.c.obj
 0002:0000d11c       ??_C@_02MCKKLHBJ@?2?$CC?$AA@ 00000000710fb11c     utils.c.obj
 0002:0000d120       ??_C@_02JMMFPCED@?$CC?$CC?$AA@ 00000000710fb120     utils.c.obj
 0002:0000d128       ??_C@_0M@GHGKBDNB@0x?$CF016I64x?5?$AA@ 00000000710fb128     utils.c.obj
 0002:0000d134       ??_C@_03HOKFIEKA@?$CC?6?$CC?$AA@ 00000000710fb134     utils.c.obj
 0002:0000d138       ??_C@_01CLKCMJKC@?5?$AA@   00000000710fb138     utils.c.obj
 0002:0000d13c       ??_C@_01BJJEKLCA@?$CC?$AA@ 00000000710fb13c     utils.c.obj
 0002:0000d140       ??_C@_03MCHNFBAC@?$FN?$FN?$DO?$AA@ 00000000710fb140     utils.c.obj
 0002:0000d144       ??_C@_05OLMHDLGP@?2?$CF03d?$AA@ 00000000710fb144     utils.c.obj
 0002:0000d150       ??_C@_0BH@PKGCHAIM@DYNAMORIO_OPTIONS?3?5?$CFs?6?$AA@ 00000000710fb150     utils.c.obj
 0002:0000d168       ??_C@_0BI@BKCGCAAF@DynamoRIO?5built?5on?3?5?$CFs?6?$AA@ 00000000710fb168     utils.c.obj
 0002:0000d180       ??_C@_0BK@IEMIANAB@DynamoRIO?5built?5with?3?5?$CFs?6?$AA@ 00000000710fb180     utils.c.obj
 0002:0000d1a0       ??_C@_0PN@MDOCBIBP@?9DDRSTATS_DEMO?5?9DX86?5?9DX64?5?9DWIN@ 00000000710fb1a0     utils.c.obj
 0002:0000d2a0       ??_C@_0BB@FNEKKBDO@App?5cmdline?3?5?$CFS?6?$AA@ 00000000710fb2a0     utils.c.obj
 0002:0000d2b8       ??_C@_0N@MMBMNJAD@Running?3?5?$CFs?6?$AA@ 00000000710fb2b8     utils.c.obj
 0002:0000d2c8       ??_C@_03OFAPEBGM@?$CFs?6?$AA@ 00000000710fb2c8     utils.c.obj
 0002:0000d2cc       ??_C@_02KPKOKMHB@?$CFS?$AA@ 00000000710fb2cc     utils.c.obj
 0002:0000d2d0       ??_C@_0FF@EALLKJNH@Application?5?$CFs?5?$CI?$CFs?$CJ?4?5?5?$CFs?5?$CFs?5at?5P@ 00000000710fb2d0     utils.c.obj
 0002:0000d328       ??_C@_0CJ@CJKKDMPB@Application?5?$CFs?5?$CI?$CFs?$CJ?4?5?5Internal?5E@ 00000000710fb328     utils.c.obj
 0002:0000d358       ??_C@_0BH@JNAAEJGB@0x?$CF016I64x?50x?$CF016I64x?6?$AA@ 00000000710fb358     utils.c.obj
 0002:0000d370       ??_C@_08GKNFEMIN@?6?$CFs?0?5?$CFs?6?$AA@ 00000000710fb370     utils.c.obj
 0002:0000d380       ??_C@_0BC@MAIOCBPP@version?56?41?417042?$AA@ 00000000710fb380     utils.c.obj
 0002:0000d398       ??_C@_0N@BCMMMPBK@custom?5build?$AA@ 00000000710fb398     utils.c.obj
 0002:0000d3a8       ??_C@_04EINJHBMM@?6?$CFs?6?$AA@ 00000000710fb3a8     utils.c.obj
 0002:0000d3b0       ??_C@_0EF@BDPEINPM@Application?5?$CFs?5?$CI?$CFs?$CJ?5unable?5to?5cr@ 00000000710fb3b0     utils.c.obj
 0002:0000d400       ??_C@_0ED@IGDEALGM@Application?5?$CFs?5?$CI?$CFs?$CJ?5has?5no?5direc@ 00000000710fb400     utils.c.obj
 0002:0000d448       ??_C@_0BB@PFICCGDF@DYNAMORIO_LOGDIR?$AA@ 00000000710fb448     utils.c.obj
 0002:0000d460       ??_C@_0BD@IBEKIOJE@?$CFc?$CFs?4?$CFd?4?$CFI64u?4html?$AA@ 00000000710fb460     utils.c.obj
 0002:0000d478       ??_C@_0BO@JHCENKCI@Usage?5error?3?5?$CFs?5?$CI?$CFs?0?5line?5?$CFd?$CJ?$AA@ 00000000710fb478     utils.c.obj
 0002:0000d498       ??_C@_0CI@PDGJNHMI@Application?5?$CFs?5?$CI?$CFs?$CJ?5?$CFs?5usage?5err@ 00000000710fb498     utils.c.obj
 0002:0000d4c0       ??_C@_0N@OKOALOPO@?$CFs?4?$CFs?4?$CF?48d?$CFs?$AA@ 00000000710fb4c0     utils.c.obj
 0002:0000d4d0       ??_C@_1CO@MKIJEMNE@?$AAD?$AAY?$AAN?$AAA?$AAM?$AAO?$AAR?$AAI?$AAO?$AA_?$AAC?$AAA?$AAC?$AAH?$AAE?$AA_?$AAS?$AAH?$AAA?$AAR?$AAE?$AAD?$AA?$AA@ 00000000710fb4d0     config.c.obj
 0002:0000d500       ??_C@_1CK@GKCELPKK@?$AAD?$AAY?$AAN?$AAA?$AAM?$AAO?$AAR?$AAI?$AAO?$AA_?$AAC?$AAA?$AAC?$AAH?$AAE?$AA_?$AAR?$AAO?$AAO?$AAT?$AA?$AA@ 00000000710fb500     config.c.obj
 0002:0000d530       ??_C@_1CK@PIKJIEMB@?$AAD?$AAY?$AAN?$AAA?$AAM?$AAO?$AAR?$AAI?$AAO?$AA_?$AAS?$AAA?$AAF?$AAE?$AAM?$AAA?$AAR?$AAK?$AAE?$AAR?$AA?$AA@ 00000000710fb530     config.c.obj
 0002:0000d560       ??_C@_1CE@NNEJDMK@?$AAD?$AAY?$AAN?$AAA?$AAM?$AAO?$AAR?$AAI?$AAO?$AA_?$AAO?$AAN?$AAC?$AAR?$AAA?$AAS?$AAH?$AA?$AA@ 00000000710fb560     config.c.obj
 0002:0000d588       ??_C@_1CE@FKPOPCA@?$AAD?$AAY?$AAN?$AAA?$AAM?$AAO?$AAR?$AAI?$AAO?$AA_?$AAC?$AAM?$AAD?$AAL?$AAI?$AAN?$AAE?$AA?$AA@ 00000000710fb588     config.c.obj
 0002:0000d5b0       ??_C@_1CG@KAGKFIKC@?$AAD?$AAY?$AAN?$AAA?$AAM?$AAO?$AAR?$AAI?$AAO?$AA_?$AAR?$AAU?$AAN?$AAU?$AAN?$AAD?$AAE?$AAR?$AA?$AA@ 00000000710fb5b0     config.c.obj
 0002:0000d5d8       ??_C@_1CM@FGBEBPLM@?$AAD?$AAY?$AAN?$AAA?$AAM?$AAO?$AAR?$AAI?$AAO?$AA_?$AAU?$AAN?$AAS?$AAU?$AAP?$AAP?$AAO?$AAR?$AAT?$AAE?$AAD?$AA?$AA@ 00000000710fb5d8     config.c.obj
 0002:0000d608       ??_C@_1CK@LHBILFEO@?$AAD?$AAY?$AAN?$AAA?$AAM?$AAO?$AAR?$AAI?$AAO?$AA_?$AAA?$AAU?$AAT?$AAO?$AAI?$AAN?$AAJ?$AAE?$AAC?$AAT?$AA?$AA@ 00000000710fb608     config.c.obj
 0002:0000d638       ??_C@_1CE@CKOJFHKD@?$AAD?$AAY?$AAN?$AAA?$AAM?$AAO?$AAR?$AAI?$AAO?$AA_?$AAO?$AAP?$AAT?$AAI?$AAO?$AAN?$AAS?$AA?$AA@ 00000000710fb638     config.c.obj
 0002:0000d660       ??_C@_1CC@KHJEFCBB@?$AAD?$AAY?$AAN?$AAA?$AAM?$AAO?$AAR?$AAI?$AAO?$AA_?$AAL?$AAO?$AAG?$AAD?$AAI?$AAR?$AA?$AA@ 00000000710fb660     config.c.obj
 0002:0000d688       ??_C@_1BO@ENFFANMH@?$AAD?$AAY?$AAN?$AAA?$AAM?$AAO?$AAR?$AAI?$AAO?$AA_?$AAH?$AAO?$AAM?$AAE?$AA?$AA@ 00000000710fb688     config.c.obj
 0002:0000d6a8       ??_C@_0BH@OABJPIAC@DYNAMORIO_CACHE_SHARED?$AA@ 00000000710fb6a8     config.c.obj
 0002:0000d6c0       ??_C@_0BF@OHKOLBGK@DYNAMORIO_CACHE_ROOT?$AA@ 00000000710fb6c0     config.c.obj
 0002:0000d6d8       ??_C@_0BF@EGFGLNLE@DYNAMORIO_SAFEMARKER?$AA@ 00000000710fb6d8     config.c.obj
 0002:0000d6f0       ??_C@_0BC@PGFJONLD@DYNAMORIO_ONCRASH?$AA@ 00000000710fb6f0     config.c.obj
 0002:0000d708       ??_C@_0BC@DGCPJNLL@DYNAMORIO_CMDLINE?$AA@ 00000000710fb708     config.c.obj
 0002:0000d720       ??_C@_0BD@JNNJDGIK@DYNAMORIO_RUNUNDER?$AA@ 00000000710fb720     config.c.obj
 0002:0000d738       ??_C@_0BG@EMLOCAOL@DYNAMORIO_UNSUPPORTED?$AA@ 00000000710fb738     config.c.obj
 0002:0000d750       ??_C@_0BF@GKPOHBJB@DYNAMORIO_AUTOINJECT?$AA@ 00000000710fb750     config.c.obj
 0002:0000d768       ??_C@_0P@EGDEJCO@DYNAMORIO_HOME?$AA@ 00000000710fb768     config.c.obj
 0002:0000d838       ??_C@_03MIIGHJO@?$CFls?$AA@ 00000000710fb838     config.c.obj
 0002:0000d840       ??_C@_0EC@KEDFLBLM@Application?5?$CFs?5?$CI?$CFs?$CJ?4?5Config?5file@ 00000000710fb840     config.c.obj
 0002:0000d888       ??_C@_0BB@LCJMOCAB@?$CFs?$CFs?1default?40?$CFs?$AA@ 00000000710fb888     config.c.obj
 0002:0000d8a0       ??_C@_0L@DOOLDDFO@?$CFs?$CFs?1?$CFs?4?$CFs?$AA@ 00000000710fb8a0     config.c.obj
 0002:0000d8b0       ??_C@_07KMICNHKH@?1config?$AA@ 00000000710fb8b0     config.c.obj
 0002:0000d8b8       ??_C@_0BC@CHIMFFAL@?$CFs?1?$CFs?1default?40?$CFs?$AA@ 00000000710fb8b8     config.c.obj
 0002:0000d8d0       ??_C@_0M@JNAIJJJE@?$CFs?1?$CFs?1?$CFs?4?$CFs?$AA@ 00000000710fb8d0     config.c.obj
 0002:0000d8e0       ??_C@_0BA@JEKGACMB@?$CFs?1?$CFs?1?$CFs?4?$CFd?41?$CFs?$AA@ 00000000710fb8e0     config.c.obj
 0002:0000d8f0       ??_C@_09LLIEKABN@dynamorio?$AA@ 00000000710fb8f0     config.c.obj
 0002:0000d900       ??_C@_1BI@FAOJLPH@?$AAU?$AAS?$AAE?$AAR?$AAP?$AAR?$AAO?$AAF?$AAI?$AAL?$AAE?$AA?$AA@ 00000000710fb900     config.c.obj
 0002:0000d918       ??_C@_1CI@BMFNAOH@?$AAD?$AAY?$AAN?$AAA?$AAM?$AAO?$AAR?$AAI?$AAO?$AA_?$AAC?$AAO?$AAN?$AAF?$AAI?$AAG?$AAD?$AAI?$AAR?$AA?$AA@ 00000000710fb918     config.c.obj
 0002:0000d940       ??_C@_08NJOIIPIL@config64?$AA@ 00000000710fb940     config.c.obj
 0002:0000d950       ??_C@_08IJHJOKOG@config32?$AA@ 00000000710fb950     config.c.obj
 0002:0000d960       ??_C@_0IL@IKDBGLEJ@?$CF20s?3?$CF10I64u?5totc?0?$CF8u?5num?0?$CF10I64@ 00000000710fb960     stats.c.obj
 0002:0000d9f0       ??_C@_0P@BILLDHBJ@process?9kstats?$AA@ 00000000710fb9f0     stats.c.obj
 0002:0000da00       ??_C@_0N@NHOEOCPK@aslr_compare?$AA@ 00000000710fba00     stats.c.obj
 0002:0000da10       ??_C@_0DE@POGNHGJI@in?5module_contents_compare?5or?5as@ 00000000710fba10     stats.c.obj
 0002:0000da48       ??_C@_0BH@PLIKIBOH@aslr_validate_relocate?$AA@ 00000000710fba48     stats.c.obj
 0002:0000da60       ??_C@_0DC@HFAPLCHD@in?5aslr_generate_relocated_secti@ 00000000710fba60     stats.c.obj
 0002:0000da98       ??_C@_0BD@FNBANBBK@rct_reloc_per_page?$AA@ 00000000710fba98     stats.c.obj
 0002:0000dab0       ??_C@_0DC@MOKNGNCE@in?5rct?5analysis?5using?5relocation@ 00000000710fbab0     stats.c.obj
 0002:0000dae8       ??_C@_09BNDDNBEM@rct_reloc?$AA@ 00000000710fbae8     stats.c.obj
 0002:0000daf8       ??_C@_0CP@IGKLBKHO@in?5rct?5analysis?5using?5relocation@ 00000000710fbaf8     stats.c.obj
 0002:0000db28       ??_C@_0N@FAGPOLLE@rct_no_reloc?$AA@ 00000000710fbb28     stats.c.obj
 0002:0000db38       ??_C@_0BP@LIIODNMK@in?5rct?5analysis?5no?5relocations?$AA@ 00000000710fbb38     stats.c.obj
 0002:0000db58       ??_C@_0L@FLEKIBIJ@wait_event?$AA@ 00000000710fbb58     stats.c.obj
 0002:0000db68       ??_C@_0CO@CEPGJOOI@wait?5event?5?$CI?$CLcontext?5switch?$CJ?5?$FLno@ 00000000710fbb68     stats.c.obj
 0002:0000db98       ??_C@_0BA@DIBIELOK@fcache_bb_trace?$AA@ 00000000710fbb98     stats.c.obj
 0002:0000dba8       ??_C@_0DD@FOGHGOPM@in?5bb?5cache?5out?5from?5trace?5cache@ 00000000710fbba8     stats.c.obj
 0002:0000dbe0       ??_C@_0BD@MEGMKPED@fcache_trace_trace?$AA@ 00000000710fbbe0     stats.c.obj
 0002:0000dbf8       ??_C@_0CB@FAGGIHFM@in?5trace?5cache?0?5?$FLnot?5propagated?$FN@ 00000000710fbbf8     stats.c.obj
 0002:0000dc20       ??_C@_0N@CJMOGDFD@fcache_bb_bb?$AA@ 00000000710fbc20     stats.c.obj
 0002:0000dc30       ??_C@_0BO@LKGHFDK@in?5bb?5cache?0?5?$FLnot?5propagated?$FN?$AA@ 00000000710fbc30     stats.c.obj
 0002:0000dc50       ??_C@_0P@OFGAONJH@fcache_default?$AA@ 00000000710fbc50     stats.c.obj
 0002:0000dc60       ??_C@_0BD@KCOHCKLE@in?5fcache?0?5default?$AA@ 00000000710fbc60     stats.c.obj
 0002:0000dc78       ??_C@_0BD@LMIEJPOA@native_exec_fcache?$AA@ 00000000710fbc78     stats.c.obj
 0002:0000dc90       ??_C@_0BN@DFNKHKAF@native_exec?5?$FLnot?5propagated?$FN?$AA@ 00000000710fbc90     stats.c.obj
 0002:0000dcb0       ??_C@_0BB@LLHIBOHL@post_syscall_map?$AA@ 00000000710fbcb0     stats.c.obj
 0002:0000dcc8       ??_C@_0BK@PAOMLOFK@post?9syscall?5Map?5handling?$AA@ 00000000710fbcc8     stats.c.obj
 0002:0000dce8       ??_C@_0BD@KOACHOLC@post_syscall_alloc?$AA@ 00000000710fbce8     stats.c.obj
 0002:0000dd00       ??_C@_0BO@NLDNACDI@post?9syscall?5AllocVM?5handling?$AA@ 00000000710fbd00     stats.c.obj
 0002:0000dd20       ??_C@_0BC@ENKAFNIK@pre_syscall_unmap?$AA@ 00000000710fbd20     stats.c.obj
 0002:0000dd38       ??_C@_0BL@OAHEDIGI@pre?9syscall?5Unmap?5handling?$AA@ 00000000710fbd38     stats.c.obj
 0002:0000dd58       ??_C@_0BE@LPOFDPCJ@pre_syscall_protect?$AA@ 00000000710fbd58     stats.c.obj
 0002:0000dd70       ??_C@_0BP@INLLJCHJ@pre?9syscall?5ProtectVM?5handling?$AA@ 00000000710fbd70     stats.c.obj
 0002:0000dd90       ??_C@_0BB@BFMJDCJF@pre_syscall_free?$AA@ 00000000710fbd90     stats.c.obj
 0002:0000dda8       ??_C@_0BM@NCMKLPLE@pre?9syscall?5FreeVM?5handling?$AA@ 00000000710fbda8     stats.c.obj
 0002:0000ddc8       ??_C@_0N@CGCEFOMH@post_syscall?$AA@ 00000000710fbdc8     stats.c.obj
 0002:0000ddd8       ??_C@_0BG@DEODEICI@post?9syscall?5handling?$AA@ 00000000710fbdd8     stats.c.obj
 0002:0000ddf0       ??_C@_0M@JPBPOFDF@pre_syscall?$AA@ 00000000710fbdf0     stats.c.obj
 0002:0000de00       ??_C@_0BF@JANONKNA@pre?9syscall?5handling?$AA@ 00000000710fbe00     stats.c.obj
 0002:0000de18       ??_C@_0P@PKJPJHOH@syscall_fcache?$AA@ 00000000710fbe18     stats.c.obj
 0002:0000de28       ??_C@_0BN@HJIAEHBH@in?5syscalls?5?$FLnot?5propagated?$FN?$AA@ 00000000710fbe28     stats.c.obj
 0002:0000de48       ??_C@_0BA@HIPMKFCP@overhead_nested?$AA@ 00000000710fbe48     stats.c.obj
 0002:0000de58       ??_C@_0BG@EIFJBABA@nested?5block?5overhead?$AA@ 00000000710fbe58     stats.c.obj
 0002:0000de70       ??_C@_0P@BPMGGBLI@overhead_empty?$AA@ 00000000710fbe70     stats.c.obj
 0002:0000de80       ??_C@_0BF@PMFPJEMJ@empty?5block?5overhead?$AA@ 00000000710fbe80     stats.c.obj
 0002:0000de98       ??_C@_07HAFPJOBC@logging?$AA@ 00000000710fbe98     stats.c.obj
 0002:0000dea0       ??_C@_06JKLOJMCD@in?5LOG?$AA@ 00000000710fbea0     stats.c.obj
 0002:0000dea8       ??_C@_0BE@MIDBHJPF@num_exits_dir_cbret?$AA@ 00000000710fbea8     stats.c.obj
 0002:0000dec0       ??_C@_0CC@CBOOMJO@in?5dispatch?5exit?0?5callback?5retur@ 00000000710fbec0     stats.c.obj
 0002:0000dee8       ??_C@_0BG@PCCOHKAJ@num_exits_dir_syscall?$AA@ 00000000710fbee8     stats.c.obj
 0002:0000df00       ??_C@_0CD@FDJCAMCN@in?5dispatch?5exit?0?5syscall?5handli@ 00000000710fbf00     stats.c.obj
 0002:0000df28       ??_C@_0BH@CILLNLNG@num_exits_ind_bad_miss?$AA@ 00000000710fbf28     stats.c.obj
 0002:0000df40       ??_C@_0DE@DAGFMPNG@in?5dispatch?5exit?0?5ind?5target?5in?5@ 00000000710fbf40     stats.c.obj
 0002:0000df78       ??_C@_0BN@NBNCHAGC@num_exits_ind_bad_miss_trace?$AA@ 00000000710fbf78     stats.c.obj
 0002:0000df98       ??_C@_0BN@OOBKDCAN@in?5dispatch?5exit?0?5from?5trace?$AA@ 00000000710fbf98     stats.c.obj
 0002:0000dfb8       ??_C@_0CA@EKALPDNA@num_exits_ind_bad_miss_trace2bb?$AA@ 00000000710fbfb8     stats.c.obj
 0002:0000dfd8       ??_C@_0CI@DGCNHMPD@in?5dispatch?5exit?0?5trace2BB?0?5ind?5@ 00000000710fbfd8     stats.c.obj
 0002:0000e000       ??_C@_0CD@EIHIGAFL@num_exits_ind_bad_miss_trace2bb_@ 00000000710fc000     stats.c.obj
 0002:0000e028       ??_C@_0DC@OCCDFCCP@in?5dispatch?5exit?0?5trace2BB?5trace@ 00000000710fc028     stats.c.obj
 0002:0000e060       ??_C@_0CE@HLENPMFM@num_exits_ind_bad_miss_trace2bb_@ 00000000710fc060     stats.c.obj
 0002:0000e088       ??_C@_0DG@IHDJLBEP@in?5dispatch?5exit?0?5trace2BB?5not?5t@ 00000000710fc088     stats.c.obj
 0002:0000e0c0       ??_C@_0CD@EBCEFCHF@num_exits_ind_bad_miss_trace2tra@ 00000000710fc0c0     stats.c.obj
 0002:0000e0e8       ??_C@_0CO@KAPDDAB@in?5dispatch?5exit?0?5trace2trace?0?5i@ 00000000710fc0e8     stats.c.obj
 0002:0000e118       ??_C@_0BK@DIINDGOF@num_exits_ind_bad_miss_bb?$AA@ 00000000710fc118     stats.c.obj
 0002:0000e138       ??_C@_0BK@NALKLBMP@in?5dispatch?5exit?0?5from?5BB?$AA@ 00000000710fc138     stats.c.obj
 0002:0000e158       ??_C@_0CA@KAHPCPCH@num_exits_ind_bad_miss_bb2trace?$AA@ 00000000710fc158     stats.c.obj
 0002:0000e178       ??_C@_0CL@KBFINNLN@in?5dispatch?5exit?0?5BB2trace?0?5ind?5@ 00000000710fc178     stats.c.obj
 0002:0000e1a8       ??_C@_0BN@PDIGFKNK@num_exits_ind_bad_miss_bb2bb?$AA@ 00000000710fc1a8     stats.c.obj
 0002:0000e1c8       ??_C@_0CI@DPBFMNPL@in?5dispatch?5exit?0?5BB2BB?0?5ind?5tar@ 00000000710fc1c8     stats.c.obj
 0002:0000e1f0       ??_C@_0BH@EEJEBLAG@num_exits_not_in_cache?$AA@ 00000000710fc1f0     stats.c.obj
 0002:0000e208       ??_C@_0CK@BINIPGOG@in?5dispatch?5exit?0?5all?5target?5not@ 00000000710fc208     stats.c.obj
 0002:0000e238       ??_C@_0BD@MECLCGJH@num_exits_dir_miss?$AA@ 00000000710fc238     stats.c.obj
 0002:0000e250       ??_C@_0CK@JJBHABI@in?5dispatch?5exit?0?5dir?5target?5not@ 00000000710fc250     stats.c.obj
 0002:0000e280       ??_C@_0BI@DBPJKMLK@num_exits_ind_good_miss?$AA@ 00000000710fc280     stats.c.obj
 0002:0000e298       ??_C@_0CK@JOAADPLB@in?5dispatch?5exit?0?5ind?5target?5not@ 00000000710fc298     stats.c.obj
 0002:0000e2c8       ??_C@_0BD@EFICIJHG@dispatch_num_exits?$AA@ 00000000710fc2c8     stats.c.obj
 0002:0000e2e0       ??_C@_0BK@JFAFKNDE@in?5dispatch?5exit?0?5default?$AA@ 00000000710fc2e0     stats.c.obj
 0002:0000e300       ??_C@_0P@FJPDFHGC@persisted_load?$AA@ 00000000710fc300     stats.c.obj
 0002:0000e310       ??_C@_0BF@DDCGOCBM@persisted?5cache?5load?$AA@ 00000000710fc310     stats.c.obj
 0002:0000e328       ??_C@_0BF@FFHHOAHB@persisted_generation?$AA@ 00000000710fc328     stats.c.obj
 0002:0000e340       ??_C@_0BL@OILCAMPJ@persisted?5cache?5generation?$AA@ 00000000710fc340     stats.c.obj
 0002:0000e360       ??_C@_0BC@LHFPKACL@coarse_freeze_all?$AA@ 00000000710fc360     stats.c.obj
 0002:0000e378       ??_C@_0BC@JKADMJLA@coarse?5freeze?5all?$AA@ 00000000710fc378     stats.c.obj
 0002:0000e390       ??_C@_0BA@HFHKKEMK@coarse_pclookup?$AA@ 00000000710fc390     stats.c.obj
 0002:0000e3a0       ??_C@_0BA@HCDIHKNP@coarse?5pclookup?$AA@ 00000000710fc3a0     stats.c.obj
 0002:0000e3b0       ??_C@_0P@MJEMDPPE@synchall_flush?$AA@ 00000000710fc3b0     stats.c.obj
 0002:0000e3c0       ??_C@_0BA@FKONNNKE@synchall?5flush?5?$AA@ 00000000710fc3c0     stats.c.obj
 0002:0000e3d0       ??_C@_0N@HMHEBJIA@flush_region?$AA@ 00000000710fc3d0     stats.c.obj
 0002:0000e3e0       ??_C@_0BG@NNGPNOIK@cache_flush_unit_walk?$AA@ 00000000710fc3e0     stats.c.obj
 0002:0000e3f8       ??_C@_0BH@OLNNKPCF@cache?5flush?5unit?5walk?5?$AA@ 00000000710fc3f8     stats.c.obj
 0002:0000e410       ??_C@_0BD@CNJJIBCD@monitor_enter_thci?$AA@ 00000000710fc410     stats.c.obj
 0002:0000e428       ??_C@_0BI@JNOBOKHL@in?5trace?5monitor?0?5thci?5?$AA@ 00000000710fc428     stats.c.obj
 0002:0000e440       ??_C@_0O@FIPJHHBP@monitor_enter?$AA@ 00000000710fc440     stats.c.obj
 0002:0000e450       ??_C@_0BC@DKPHPMEM@in?5trace?5monitor?5?$AA@ 00000000710fc450     stats.c.obj
 0002:0000e468       ??_C@_0BA@FDKBKHEN@temp_private_bb?$AA@ 00000000710fc468     stats.c.obj
 0002:0000e478       ??_C@_0CK@JGDAIMBA@making?5temp?5private?5bb?5for?5trace@ 00000000710fc478     stats.c.obj
 0002:0000e4a8       ??_C@_0P@PPGMOMCM@trace_building?$AA@ 00000000710fc4a8     stats.c.obj
 0002:0000e4b8       ??_C@_0BC@HCNAPKML@in?5trace?5building?$AA@ 00000000710fc4b8     stats.c.obj
 0002:0000e4d0       ??_C@_0M@NFKLJOAI@hotp_lookup?$AA@ 00000000710fc4d0     stats.c.obj
 0002:0000e4e0       ??_C@_0BD@LDELCKHM@in?5hotpatch?5lookup?$AA@ 00000000710fc4e0     stats.c.obj
 0002:0000e4f4       ??_C@_04KNBGJDFM@emit?$AA@ 00000000710fc4f4     stats.c.obj
 0002:0000e500       ??_C@_07BNJHDCDG@in?5emit?$AA@ 00000000710fc500     stats.c.obj
 0002:0000e508       ??_C@_08BEPKBMFC@mangling?$AA@ 00000000710fc508     stats.c.obj
 0002:0000e518       ??_C@_0M@HBCCCGOE@in?5mangling?$AA@ 00000000710fc518     stats.c.obj
 0002:0000e528       ??_C@_07HNCJPLAA@bb_emit?$AA@ 00000000710fc528     stats.c.obj
 0002:0000e530       ??_C@_0P@HNOPMKLA@in?5emitting?5BB?$AA@ 00000000710fc530     stats.c.obj
 0002:0000e540       ??_C@_0M@JIPFNOPF@bb_decoding?$AA@ 00000000710fc540     stats.c.obj
 0002:0000e550       ??_C@_0P@PDMFAGLI@in?5bb?5decoding?$AA@ 00000000710fc550     stats.c.obj
 0002:0000e560       ??_C@_0M@LFLALLLE@bb_building?$AA@ 00000000710fc560     stats.c.obj
 0002:0000e570       ??_C@_0P@NOIAGDPJ@in?5bb?5building?$AA@ 00000000710fc570     stats.c.obj
 0002:0000e580       ??_C@_0BA@LMEFJEDP@thread_measured?$AA@ 00000000710fc580     stats.c.obj
 0002:0000e590       ??_C@_0CI@MBPINKFL@total?5measured?5and?5propagated?5in@ 00000000710fc590     stats.c.obj
 0002:0000e5b8       ??_C@_0BB@PJJGHJEP@Process?5KSTATS?3?6?$AA@ 00000000710fc5b8     stats.c.obj
 0002:0000e5d0       ??_C@_09NJAPONBN@?$HN?5KSTATS?6?$AA@ 00000000710fc5d0     stats.c.obj
 0002:0000e5e0       ??_C@_0BE@CHPFBOAK@Thread?5?$CFd?5KSTATS?5?$HL?6?$AA@ 00000000710fc5e0     stats.c.obj
 0002:0000e630       ??_C@_0MN@PFIKINH@Application?5?$CFs?5?$CI?$CFs?$CJ?4?5Unable?5to?5p@ 00000000710fc630     heap.c.obj
 0002:0000e700       ??_C@_0DO@DKMAKMKA@VM?5heap?3?5addr?5range?50x?$CF016I64x?9?9@ 00000000710fc700     heap.c.obj
 0002:0000e740       ??_C@_0DH@HLCPFJCH@Potentially?5thrashing?5on?5low?5vir@ 00000000710fc740     heap.c.obj
 0002:0000e778       ??_C@_0DL@LAFGNGIA@Potentially?5thrashing?5on?5low?5com@ 00000000710fc778     heap.c.obj
 0002:0000e7b4       ??_C@_01JPJNBJEM@I?$AA@    00000000710fc7b4     heap.c.obj
 0002:0000e7b8       ??_C@_01GFHCPBMG@C?$AA@    00000000710fc7b8     heap.c.obj
 0002:0000e7bc       ??_C@_01OGPIMHDM@?$DP?$AA@ 00000000710fc7bc     heap.c.obj
 0002:0000e7c0       ??_C@_01DDCIFGEA@E?$AA@    00000000710fc7c0     heap.c.obj
 0002:0000e7c8       ??_C@_0CK@IMGOBPGI@Out?5of?5memory?0?5silently?5aborting@ 00000000710fc7c8     heap.c.obj
 0002:0000e7f8       ??_C@_0O@NALGGDJF@Out?5of?5memory?$AA@ 00000000710fc7f8     heap.c.obj
 0002:0000e808       ??_C@_0CB@ODCIFNPM@Out?5of?5memory?0?5aborting?5program?4@ 00000000710fc808     heap.c.obj
 0002:0000e830       ??_C@_0CB@IEDICNEH@Out?5of?5memory?4?5?5Program?5aborted?4@ 00000000710fc830     heap.c.obj
 0002:0000e858       ??_C@_0CM@DECFIJNG@?6Dumping?5special?5heap?5unit?5profi@ 00000000710fc858     heap.c.obj
 0002:0000e888       ??_C@_09ODJNKNKK@?5?$CFs?$CFs?$CFs?$CFs?$AA@ 00000000710fc888     vmareas.c.obj
 0002:0000e894       ??_C@_01ELNMCGJD@W?$AA@    00000000710fc894     vmareas.c.obj
 0002:0000e898       ??_C@_01BIAFAFID@F?$AA@    00000000710fc898     vmareas.c.obj
 0002:0000e89c       ??_C@_01CPLAODJH@S?$AA@    00000000710fc89c     vmareas.c.obj
 0002:0000e8a0       ??_C@_0BH@PJHBCJG@?5written?5?$CF3d?0?5exec?5?$CF5d?$AA@ 00000000710fc8a0     vmareas.c.obj
 0002:0000e8b8       ??_C@_01POHCFINO@Z?$AA@    00000000710fc8b8     vmareas.c.obj
 0002:0000e8c0       ??_C@_0BI@MBOBPCGO@?$CFs0x?$CF016I64x?90x?$CF016I64x?$AA@ 00000000710fc8c0     vmareas.c.obj
 0002:0000e8d8       ??_C@_02KNHHEEKP@?5?5?$AA@ 00000000710fc8d8     vmareas.c.obj
 0002:0000e8e0       ??_C@_0CG@LGCLGPJL@last?5unload?3?50x?$CF016I64x?90x?$CF016I6@ 00000000710fc8e0     vmareas.c.obj
 0002:0000e908       ??_C@_0BA@NHAADOG@?5being?5unloaded?$AA@ 00000000710fc908     vmareas.c.obj
 0002:0000e918       ??_C@_0BA@FMAKCJML@never?5unloaded?6?$AA@ 00000000710fc918     vmareas.c.obj
 0002:0000e930       ??_C@_0EF@GKHFEKEA@Application?5changing?5protections@ 00000000710fc930     vmareas.c.obj
 0002:0000e978       ??_C@_06FHFOAHML@system?$AA@ 00000000710fc978     vmareas.c.obj
 0002:0000e980       ??_C@_0DG@HPGGDEND@Warning?3?5App?5trying?5to?5execute?5f@ 00000000710fc980     vmareas.c.obj
 0002:0000e9b8       ??_C@_09IHACOKP@dll2stack?$AA@ 00000000710fc9b8     moduledb.c.obj
 0002:0000e9c8       ??_C@_08FJAJONGG@dll2heap?$AA@ 00000000710fc9c8     moduledb.c.obj
 0002:0000e9d4       ??_C@_05NGOMGBBD@image?$AA@ 00000000710fc9d4     moduledb.c.obj
 0002:0000e9dc       ??_C@_03BOEPIBHP@rct?$AA@  00000000710fc9dc     moduledb.c.obj
 0002:0000ea00       ??_C@_0CC@MNDPBCBH@moduledb?5?$CFs?5exemption?5list?5?$DN?$CC?$CFs?$CC@ 00000000710fca00     moduledb.c.obj
 0002:0000ea28       ??_C@_0BD@CINNGOMG@?$CFs?$CFc?$CFs?$CFs?90x?$CF08x?4?$CFs?$AA@ 00000000710fca28     perscache.c.obj
 0002:0000ea3c       ??_C@_03HANOBAID@dpc?$AA@  00000000710fca3c     perscache.c.obj
 0002:0000ea40       ??_C@_06DLEJEKHG@?$CFc?$CFs?$CFs?$AA@ 00000000710fca40     perscache.c.obj
 0002:0000ea48       ??_C@_0BF@BENIDKOP@?$CFs?9?$CFI64u?9?$CF010I64u?9?$CFs?$AA@ 00000000710fca48     perscache.c.obj
 0002:0000ea60       ??_C@_05PGPMLMCD@todel?$AA@ 00000000710fca60     perscache.c.obj
 0002:0000ea68       ??_C@_03FFNGDGKN@tmp?$AA@  00000000710fca68     perscache.c.obj
 0002:0000ea70       ??_C@_0BG@ONKIKMGK@Nudge?5triggered?5ldmp?4?$AA@ 00000000710fca70     nudge.c.obj
 0002:0000ea90       dynamorio_buildmark        00000000710fca90     buildmark.c.obj
 0002:0000eab0       dynamorio_version_string   00000000710fcab0     buildmark.c.obj
 0002:0000eaf4       ??_C@_04EBNJJJJI@?$CF?4?$CKs?$AA@ 00000000710fcaf4     loader_shared.c.obj
 0002:0000eb00       ??_C@_07NGPFMEBJ@?$CF?4?$CKs?4?$CFs?$AA@ 00000000710fcb00     loader_shared.c.obj
 0002:0000eb08       ??_C@_06NPBELFDH@drpath?$AA@ 00000000710fcb08     loader_shared.c.obj
 0002:0000eb10       ??_C@_04DJCABLIL@?$CFs?$CFc?$AA@ 00000000710fcb10     loader_shared.c.obj
 0002:0000eb18       ??_C@_05KPMKNBBM@lib64?$AA@ 00000000710fcb18     loader_shared.c.obj
 0002:0000eb20       ??_C@_0O@OOHDEANC@drmemory?1drmf?$AA@ 00000000710fcb20     loader_shared.c.obj
 0002:0000eb30       ??_C@_03MDPCKCMI@ext?$AA@  00000000710fcb30     loader_shared.c.obj
 0002:0000eb38       ??_C@_0P@MJBOIBKL@?$CFs?$DN0x?$CF016I64x?6?$AA@ 00000000710fcb38     loader_shared.c.obj
 0002:0000eb48       ??_C@_0DK@ONLLFBAC@Application?5?$CFs?5?$CI?$CFs?$CJ?4?5Unable?5to?5l@ 00000000710fcb48     loader_shared.c.obj
 0002:0000eb88       ??_C@_0CN@DGMMMKLD@?6?7Unable?5to?5locate?5imports?5of?5cl@ 00000000710fcb88     loader_shared.c.obj
 0002:0000ec00       __real@3fe0000000000000    00000000710fcc00     io.c.obj
 0002:0000ec08       ??_C@_03LHCJEHON@nan?$AA@  00000000710fcc08     io.c.obj
 0002:0000ec0c       ??_C@_03LKNCIKJB@NAN?$AA@  00000000710fcc0c     io.c.obj
 0002:0000ec10       __real@c024000000000000    00000000710fcc10     io.c.obj
 0002:0000ec18       __real@4024000000000000    00000000710fcc18     io.c.obj
 0002:0000ec20       ??_C@_03OJHLLCGB@inf?$AA@  00000000710fcc20     io.c.obj
 0002:0000ec24       ??_C@_03OEIAHPBN@INF?$AA@  00000000710fcc24     io.c.obj
 0002:0000ec28       __real@bff0000000000000    00000000710fcc28     io.c.obj
 0002:0000ec30       __real@3ff0000000000000    00000000710fcc30     io.c.obj
 0002:0000ec38       ??_C@_06CBHGEMFM@?$DMNULL?$DO?$AA@ 00000000710fcc38     io.c.obj
 0002:0000ec40       ??_C@_17EHONMONA@?$AAn?$AAa?$AAn?$AA?$AA@ 00000000710fcc40     io.c.obj
 0002:0000ec48       ??_C@_17BJAFAGIO@?$AAN?$AAA?$AAN?$AA?$AA@ 00000000710fcc48     io.c.obj
 0002:0000ec50       ??_C@_17HJMKFNPD@?$AAi?$AAn?$AAf?$AA?$AA@ 00000000710fcc50     io.c.obj
 0002:0000ec58       ??_C@_17CHCCJFKN@?$AAI?$AAN?$AAF?$AA?$AA@ 00000000710fcc58     io.c.obj
 0002:0000ec60       ??_C@_1O@DPFEOIGE@?$AA?$DM?$AAN?$AAU?$AAL?$AAL?$AA?$DO?$AA?$AA@ 00000000710fcc60     io.c.obj
 0002:0000ec70       ??_C@_02JLHCEMDI@64?$AA@   00000000710fcc70     io.c.obj
 0002:0000ec74       ??_C@_02MLODCJFF@32?$AA@   00000000710fcc74     io.c.obj
 0002:0000ec80       ??_C@_01FDFGLJHB@2?$AA@    00000000710fcc80     instrument.c.obj
 0002:0000ecb0       ??_C@_0GD@MGGBLEOH@Application?5?$CFs?5?$CI?$CFs?$CJ?4?5Client?5libr@ 00000000710fccb0     instrument.c.obj
 0002:0000ed18       ??_C@_0BC@PNAPMNNK@_USES_DR_VERSION_?$AA@ 00000000710fcd18     instrument.c.obj
 0002:0000ed30       ??_C@_0DB@OFOBBOGJ@?4?6?7Error?5opening?5instrumentation@ 00000000710fcd30     instrument.c.obj
 0002:0000ed68       ??_C@_08HMKICLAB@dr_abort?$AA@ 00000000710fcd68     instrument.c.obj
 0002:0000ed74       ??_C@_04HDOCAJNK@?$CFs?$CFs?$AA@ 00000000710fcd74     instrument.c.obj
 0002:0000ed7c       ??_C@_15MAOEGKJF@?$AA?$CF?$AAS?$AA?$AA@ 00000000710fcd7c     instrument.c.obj
 0002:0000ed88       ??_C@_0N@MDJJJHMB@kernel32?4dll?$AA@ 00000000710fcd88     instrument.c.obj
 0002:0000ed98       ??_C@_09NOIIIIGM@WriteFile?$AA@ 00000000710fcd98     instrument.c.obj
 0002:0000eda8       ??_C@_0P@FFFOILCH@?$CFs?50x?$CF016I64x?5?$AA@ 00000000710fcda8     instrument.c.obj
 0002:0000edb8       ??_C@_03IKGEINEE@?$CFs?5?$AA@ 00000000710fcdb8     instrument.c.obj
 0002:0000edc0       ??_C@_07LNNCMKG@dr_init?$AA@ 00000000710fcdc0     instrument.c.obj
 0002:0000edc8       ??_C@_0P@IFEPHBON@dr_client_main?$AA@ 00000000710fcdc8     instrument.c.obj
 0002:0000edd8       ??_C@_04BNMICOAK@Tool?$AA@ 00000000710fcdd8     instrument.c.obj
 0002:0000ede0       ??_C@_0BK@LBCOPHOK@your?5tool?8s?5issue?5tracker?$AA@ 00000000710fcde0     instrument.c.obj
 0002:0000ee00       ??_C@_0BF@BAJJELNG@dynamorio?9annotation?$AA@ 00000000710fce00     annotations.c.obj
 0002:0000ee18       ??_C@_05KEHNFFBA@void?3?$AA@ 00000000710fce18     annotations.c.obj
 0002:0000ee20       ??_C@_09JEFLBPCK@statement?$AA@ 00000000710fce20     annotations.c.obj
 0002:0000ee30       ??_C@_0CI@HAOOFMIM@dynamorio_annotate_running_on_dy@ 00000000710fce30     annotations.c.obj
 0002:0000ee58       ??_C@_0CG@KNGCFOML@dynamorio_annotate_unmanage_code@ 00000000710fce58     jit_opt.c.obj
 0002:0000ee80       ??_C@_0CE@LBPHIFNO@dynamorio_annotate_manage_code_a@ 00000000710fce80     jit_opt.c.obj
 0002:0000eea8       ??_C@_0CG@PEJKBLE@x86_to_x64_shared_coarse_ibl_tem@ 00000000710fcea8     arch.c.obj
 0002:0000eed0       ??_C@_0BN@GBDENMGK@x86_to_x64_shared_coarse_ibl?$AA@ 00000000710fced0     arch.c.obj
 0002:0000eef0       ??_C@_0CM@PNLJMFCG@x86_to_x64_shared_coarse_trace_c@ 00000000710fcef0     arch.c.obj
 0002:0000ef20       ??_C@_0CD@CICEMEJO@x86_to_x64_shared_coarse_trace_c@ 00000000710fcf20     arch.c.obj
 0002:0000ef48       ??_C@_0CM@LNPAICHF@x86_to_x64_shared_coarse_trace_f@ 00000000710fcf48     arch.c.obj
 0002:0000ef78       ??_C@_0CD@CENGKPEK@x86_to_x64_shared_coarse_trace_f@ 00000000710fcf78     arch.c.obj
 0002:0000efa0       ??_C@_0CE@OEDMBIJ@x86_to_x64_shared_delete_coarse_@ 00000000710fcfa0     arch.c.obj
 0002:0000efc8       ??_C@_0CG@LOOPELOC@x86_to_x64_shared_unlinked_coars@ 00000000710fcfc8     arch.c.obj
 0002:0000eff0       ??_C@_0CG@FBCAHDCH@x86_to_x64_private_trace_ibl_tem@ 00000000710fcff0     arch.c.obj
 0002:0000f018       ??_C@_0BN@PJIMDNNC@x86_to_x64_private_trace_ibl?$AA@ 00000000710fd018     arch.c.obj
 0002:0000f038       ??_C@_0CG@GEDKMHIM@x86_to_x64_private_trace_cmp_unl@ 00000000710fd038     arch.c.obj
 0002:0000f060       ??_C@_0BN@HLBKMHNG@x86_to_x64_private_trace_cmp?$AA@ 00000000710fd060     arch.c.obj
 0002:0000f080       ??_C@_0CG@CEHDIANP@x86_to_x64_private_trace_far_unl@ 00000000710fd080     arch.c.obj
 0002:0000f0a8       ??_C@_0BN@HHOIKMAC@x86_to_x64_private_trace_far?$AA@ 00000000710fd0a8     arch.c.obj
 0002:0000f0c8       ??_C@_0CE@JKDBJPGG@x86_to_x64_private_delete_trace_@ 00000000710fd0c8     arch.c.obj
 0002:0000f0f0       ??_C@_0CG@FDIBHKBE@x86_to_x64_private_unlinked_trac@ 00000000710fd0f0     arch.c.obj
 0002:0000f118       ??_C@_0CD@KFBKFMHF@x86_to_x64_private_bb_ibl_templa@ 00000000710fd118     arch.c.obj
 0002:0000f140       ??_C@_0BK@MOONIGLD@x86_to_x64_private_bb_ibl?$AA@ 00000000710fd140     arch.c.obj
 0002:0000f160       ??_C@_0CD@JAAAOINO@x86_to_x64_private_bb_cmp_unlink@ 00000000710fd160     arch.c.obj
 0002:0000f188       ??_C@_0BK@EMHLHMLH@x86_to_x64_private_bb_cmp?$AA@ 00000000710fd188     arch.c.obj
 0002:0000f1a8       ??_C@_0CD@NAEJKPIN@x86_to_x64_private_bb_far_unlink@ 00000000710fd1a8     arch.c.obj
 0002:0000f1d0       ??_C@_0BK@EAIJBHGD@x86_to_x64_private_bb_far?$AA@ 00000000710fd1d0     arch.c.obj
 0002:0000f1f0       ??_C@_0CB@FOMIINAL@x86_to_x64_private_delete_bb_ibl@ 00000000710fd1f0     arch.c.obj
 0002:0000f218       ??_C@_0CD@JFKBEIGJ@x86_to_x64_private_unlinked_bb_i@ 00000000710fd218     arch.c.obj
 0002:0000f240       ??_C@_0CF@ICCCFKEM@x86_to_x64_shared_trace_ibl_temp@ 00000000710fd240     arch.c.obj
 0002:0000f268       ??_C@_0BM@DLPLBIND@x86_to_x64_shared_trace_ibl?$AA@ 00000000710fd268     arch.c.obj
 0002:0000f288       ??_C@_0CF@LHDIOOOH@x86_to_x64_shared_trace_cmp_unli@ 00000000710fd288     arch.c.obj
 0002:0000f2b0       ??_C@_0BM@LJGNOCNH@x86_to_x64_shared_trace_cmp?$AA@ 00000000710fd2b0     arch.c.obj
 0002:0000f2d0       ??_C@_0CF@PHHBKJLE@x86_to_x64_shared_trace_far_unli@ 00000000710fd2d0     arch.c.obj
 0002:0000f2f8       ??_C@_0BM@LFJPIJAD@x86_to_x64_shared_trace_far?$AA@ 00000000710fd2f8     arch.c.obj
 0002:0000f318       ??_C@_0CD@PMJBBKAF@x86_to_x64_shared_delete_trace_i@ 00000000710fd318     arch.c.obj
 0002:0000f340       ??_C@_0CF@IAIDFDHP@x86_to_x64_shared_unlinked_trace@ 00000000710fd340     arch.c.obj
 0002:0000f368       ??_C@_0CC@DKEPFKP@x86_to_x64_shared_bb_ibl_templat@ 00000000710fd368     arch.c.obj
 0002:0000f390       ??_C@_0BJ@OKDPJBFG@x86_to_x64_shared_bb_ibl?$AA@ 00000000710fd390     arch.c.obj
 0002:0000f3b0       ??_C@_0CC@DGLOEBAE@x86_to_x64_shared_bb_cmp_unlinke@ 00000000710fd3b0     arch.c.obj
 0002:0000f3d8       ??_C@_0BJ@GIKJGLFC@x86_to_x64_shared_bb_cmp?$AA@ 00000000710fd3d8     arch.c.obj
 0002:0000f3f8       ??_C@_0CC@HGPHAGFH@x86_to_x64_shared_bb_far_unlinke@ 00000000710fd3f8     arch.c.obj
 0002:0000f420       ??_C@_0BJ@GEFLAAIG@x86_to_x64_shared_bb_far?$AA@ 00000000710fd420     arch.c.obj
 0002:0000f440       ??_C@_0CA@MNOGCCMI@x86_to_x64_shared_delete_bb_ibl?$AA@ 00000000710fd440     arch.c.obj
 0002:0000f460       ??_C@_0CC@DDBPOBLD@x86_to_x64_shared_unlinked_bb_ib@ 00000000710fd460     arch.c.obj
 0002:0000f488       ??_C@_0BP@KFEEFFPD@x86_shared_coarse_ibl_template?$AA@ 00000000710fd488     arch.c.obj
 0002:0000f4a8       ??_C@_0BG@CPOKBLII@x86_shared_coarse_ibl?$AA@ 00000000710fd4a8     arch.c.obj
 0002:0000f4c0       ??_C@_0CF@HENFAJAE@x86_shared_coarse_trace_cmp_unli@ 00000000710fd4c0     arch.c.obj
 0002:0000f4e8       ??_C@_0BM@JEBCCELM@x86_shared_coarse_trace_cmp?$AA@ 00000000710fd4e8     arch.c.obj
 0002:0000f508       ??_C@_0CF@DEJMEOFH@x86_shared_coarse_trace_far_unli@ 00000000710fd508     arch.c.obj
 0002:0000f530       ??_C@_0BM@JIOAEPGI@x86_shared_coarse_trace_far?$AA@ 00000000710fd530     arch.c.obj
 0002:0000f550       ??_C@_0BN@NLJPLGIN@x86_shared_delete_coarse_ibl?$AA@ 00000000710fd550     arch.c.obj
 0002:0000f570       ??_C@_0BP@BEOCLPKF@x86_shared_unlinked_coarse_ibl?$AA@ 00000000710fd570     arch.c.obj
 0002:0000f590       ??_C@_0BP@PLCNIHGA@x86_private_trace_ibl_template?$AA@ 00000000710fd590     arch.c.obj
 0002:0000f5b0       ??_C@_0BG@LHFCPKDA@x86_private_trace_ibl?$AA@ 00000000710fd5b0     arch.c.obj
 0002:0000f5c8       ??_C@_0BP@MODHDDML@x86_private_trace_cmp_unlinked?$AA@ 00000000710fd5c8     arch.c.obj
 0002:0000f5e8       ??_C@_0BG@DFMEAADE@x86_private_trace_cmp?$AA@ 00000000710fd5e8     arch.c.obj
 0002:0000f600       ??_C@_0BP@IOHOHEJI@x86_private_trace_far_unlinked?$AA@ 00000000710fd600     arch.c.obj
 0002:0000f620       ??_C@_0BG@DJDGGLOA@x86_private_trace_far?$AA@ 00000000710fd620     arch.c.obj
 0002:0000f638       ??_C@_0BN@EPONOIGC@x86_private_delete_trace_ibl?$AA@ 00000000710fd638     arch.c.obj
 0002:0000f658       ??_C@_0BP@PJIMIOFD@x86_private_unlinked_trace_ibl?$AA@ 00000000710fd658     arch.c.obj
 0002:0000f678       ??_C@_0BM@BJCMLMFH@x86_private_bb_ibl_template?$AA@ 00000000710fd678     arch.c.obj
 0002:0000f698       ??_C@_0BD@HEHMELEA@x86_private_bb_ibl?$AA@ 00000000710fd698     arch.c.obj
 0002:0000f6b0       ??_C@_0BM@CMDGAIPM@x86_private_bb_cmp_unlinked?$AA@ 00000000710fd6b0     arch.c.obj
 0002:0000f6d0       ??_C@_0BD@PGOKLBEE@x86_private_bb_cmp?$AA@ 00000000710fd6d0     arch.c.obj
 0002:0000f6e8       ??_C@_0BM@GMHPEPKP@x86_private_bb_far_unlinked?$AA@ 00000000710fd6e8     arch.c.obj
 0002:0000f708       ??_C@_0BD@PKBINKJA@x86_private_bb_far?$AA@ 00000000710fd708     arch.c.obj
 0002:0000f720       ??_C@_0BK@DIIBAAHL@x86_private_delete_bb_ibl?$AA@ 00000000710fd720     arch.c.obj
 0002:0000f740       ??_C@_0BM@CJJHKIEL@x86_private_unlinked_bb_ibl?$AA@ 00000000710fd740     arch.c.obj
 0002:0000f760       ??_C@_0BO@IFJKECCC@x86_shared_trace_ibl_template?$AA@ 00000000710fd760     arch.c.obj
 0002:0000f780       ??_C@_0BF@OBLPKODB@x86_shared_trace_ibl?$AA@ 00000000710fd780     arch.c.obj
 0002:0000f798       ??_C@_0BO@LAIAPGIJ@x86_shared_trace_cmp_unlinked?$AA@ 00000000710fd798     arch.c.obj
 0002:0000f7b8       ??_C@_0BF@GDCJFEDF@x86_shared_trace_cmp?$AA@ 00000000710fd7b8     arch.c.obj
 0002:0000f7d0       ??_C@_0BO@PAMJLBNK@x86_shared_trace_far_unlinked?$AA@ 00000000710fd7d0     arch.c.obj
 0002:0000f7f0       ??_C@_0BF@GPNLDPOB@x86_shared_trace_far?$AA@ 00000000710fd7f0     arch.c.obj
 0002:0000f808       ??_C@_0BM@EAKHPKCH@x86_shared_delete_trace_ibl?$AA@ 00000000710fd808     arch.c.obj
 0002:0000f828       ??_C@_0BO@IHDLELBB@x86_shared_unlinked_trace_ibl?$AA@ 00000000710fd828     arch.c.obj
 0002:0000f848       ??_C@_0BL@FDMHMNBO@x86_shared_bb_ibl_template?$AA@ 00000000710fd848     arch.c.obj
 0002:0000f868       ??_C@_0BC@KLMEGHKC@x86_shared_bb_ibl?$AA@ 00000000710fd868     arch.c.obj
 0002:0000f880       ??_C@_0BL@GGNNHJLF@x86_shared_bb_cmp_unlinked?$AA@ 00000000710fd880     arch.c.obj
 0002:0000f8a0       ??_C@_0BC@CJFCJNKG@x86_shared_bb_cmp?$AA@ 00000000710fd8a0     arch.c.obj
 0002:0000f8b8       ??_C@_0BL@CGJEDOOG@x86_shared_bb_far_unlinked?$AA@ 00000000710fd8b8     arch.c.obj
 0002:0000f8d8       ??_C@_0BC@CFKAPGHC@x86_shared_bb_far?$AA@ 00000000710fd8d8     arch.c.obj
 0002:0000f8f0       ??_C@_0BJ@ICFAJIBC@x86_shared_delete_bb_ibl?$AA@ 00000000710fd8f0     arch.c.obj
 0002:0000f910       ??_C@_0BL@GDHMNJAC@x86_shared_unlinked_bb_ibl?$AA@ 00000000710fd910     arch.c.obj
 0002:0000f930       ??_C@_0BL@FAGPNCDA@shared_coarse_ibl_template?$AA@ 00000000710fd930     arch.c.obj
 0002:0000f950       ??_C@_0BC@CIKPKBDF@shared_coarse_ibl?$AA@ 00000000710fd950     arch.c.obj
 0002:0000f968       ??_C@_0CB@CEFDJAJI@shared_coarse_trace_cmp_unlinked@ 00000000710fd968     arch.c.obj
 0002:0000f990       ??_C@_0BI@MBLEIKCI@shared_coarse_trace_cmp?$AA@ 00000000710fd990     arch.c.obj
 0002:0000f9a8       ??_C@_0CB@GEBKNHML@shared_coarse_trace_far_unlinked@ 00000000710fd9a8     arch.c.obj
 0002:0000f9d0       ??_C@_0BI@MNEGOBPM@shared_coarse_trace_far?$AA@ 00000000710fd9d0     arch.c.obj
 0002:0000f9e8       ??_C@_0BJ@CMKIEHHO@shared_delete_coarse_ibl?$AA@ 00000000710fd9e8     arch.c.obj
 0002:0000fa08       ??_C@_0BL@OBMJDIGG@shared_unlinked_coarse_ibl?$AA@ 00000000710fda08     arch.c.obj
 0002:0000fa28       ??_C@_0BL@OAGAAKD@private_trace_ibl_template?$AA@ 00000000710fda28     arch.c.obj
 0002:0000fa48       ??_C@_0BC@LABHEAIN@private_trace_ibl?$AA@ 00000000710fda48     arch.c.obj
 0002:0000fa60       ??_C@_0BL@DLBMLEAI@private_trace_cmp_unlinked?$AA@ 00000000710fda60     arch.c.obj
 0002:0000fa80       ??_C@_0BC@DCIBLKIJ@private_trace_cmp?$AA@ 00000000710fda80     arch.c.obj
 0002:0000fa98       ??_C@_0BL@HLFFPDFL@private_trace_far_unlinked?$AA@ 00000000710fda98     arch.c.obj
 0002:0000fab8       ??_C@_0BC@DOHDNBFN@private_trace_far?$AA@ 00000000710fdab8     arch.c.obj
 0002:0000fad0       ??_C@_0BJ@LINKBJJB@private_delete_trace_ibl?$AA@ 00000000710fdad0     arch.c.obj
 0002:0000faf0       ??_C@_0BL@MKHAJJA@private_unlinked_trace_ibl?$AA@ 00000000710fdaf0     arch.c.obj
 0002:0000fb10       ??_C@_0BI@EMIKBCMD@private_bb_ibl_template?$AA@ 00000000710fdb10     arch.c.obj
 0002:0000fb28       ??_C@_0P@LEAJMEIO@private_bb_ibl?$AA@ 00000000710fdb28     arch.c.obj
 0002:0000fb38       ??_C@_0BI@HJJAKGGI@private_bb_cmp_unlinked?$AA@ 00000000710fdb38     arch.c.obj
 0002:0000fb50       ??_C@_0P@DGJPDOIK@private_bb_cmp?$AA@ 00000000710fdb50     arch.c.obj
 0002:0000fb60       ??_C@_0BI@DJNJOBDL@private_bb_far_unlinked?$AA@ 00000000710fdb60     arch.c.obj
 0002:0000fb78       ??_C@_0P@DKGNFFFO@private_bb_far?$AA@ 00000000710fdb78     arch.c.obj
 0002:0000fb88       ??_C@_0BG@MDKMDBJ@private_delete_bb_ibl?$AA@ 00000000710fdb88     arch.c.obj
 0002:0000fba0       ??_C@_0BI@HMDBAGNP@private_unlinked_bb_ibl?$AA@ 00000000710fdba0     arch.c.obj
 0002:0000fbb8       ??_C@_0BK@KBNJNGHF@shared_trace_ibl_template?$AA@ 00000000710fdbb8     arch.c.obj
 0002:0000fbd8       ??_C@_0BB@MJMBAKDF@shared_trace_ibl?$AA@ 00000000710fdbd8     arch.c.obj
 0002:0000fbf0       ??_C@_0BK@JEMDGCNO@shared_trace_cmp_unlinked?$AA@ 00000000710fdbf0     arch.c.obj
 0002:0000fc10       ??_C@_0BB@ELFHPADB@shared_trace_cmp?$AA@ 00000000710fdc10     arch.c.obj
 0002:0000fc28       ??_C@_0BK@NEIKCFIN@shared_trace_far_unlinked?$AA@ 00000000710fdc28     arch.c.obj
 0002:0000fc48       ??_C@_0BB@EHKFJLOF@shared_trace_far?$AA@ 00000000710fdc48     arch.c.obj
 0002:0000fc60       ??_C@_0BI@BFABFELD@shared_delete_trace_ibl?$AA@ 00000000710fdc60     arch.c.obj
 0002:0000fc78       ??_C@_0BK@KDHINPEG@shared_unlinked_trace_ibl?$AA@ 00000000710fdc78     arch.c.obj
 0002:0000fc98       ??_C@_0BH@PAEPHGKJ@shared_bb_ibl_template?$AA@ 00000000710fdc98     arch.c.obj
 0002:0000fcb0       ??_C@_0O@GECHAENN@shared_bb_ibl?$AA@ 00000000710fdcb0     arch.c.obj
 0002:0000fcc0       ??_C@_0BH@MFFFMCAC@shared_bb_cmp_unlinked?$AA@ 00000000710fdcc0     arch.c.obj
 0002:0000fcd8       ??_C@_0O@OGLBPONJ@shared_bb_cmp?$AA@ 00000000710fdcd8     arch.c.obj
 0002:0000fce8       ??_C@_0BH@IFBMIFFB@shared_bb_far_unlinked?$AA@ 00000000710fdce8     arch.c.obj
 0002:0000fd00       ??_C@_0O@OKEDJFAN@shared_bb_far?$AA@ 00000000710fdd00     arch.c.obj
 0002:0000fd10       ??_C@_0BF@FHEKAGHL@shared_delete_bb_ibl?$AA@ 00000000710fdd10     arch.c.obj
 0002:0000fd28       ??_C@_0BH@MAPEGCLF@shared_unlinked_bb_ibl?$AA@ 00000000710fdd28     arch.c.obj
 0002:0000fd40       ??_C@_06BJFKKAPC@indjmp?$AA@ 00000000710fdd40     arch.c.obj
 0002:0000fd48       ??_C@_07MIBIGKOG@indcall?$AA@ 00000000710fdd48     arch.c.obj
 0002:0000fd50       ??_C@_03BKMCPNMN@ret?$AA@  00000000710fdd50     arch.c.obj
 0002:00010140       ??_C@_0CL@EAJGJHCE@?7eflags?5?$DN?50x?$CF016I64x?6?7pc?5?5?5?5?5?$DN?50@ 00000000710fe140     arch.c.obj
 0002:00010170       ??_C@_0CN@KJMHOIFH@?6?7?7eflags?$DN?$CC0x?$CF016I64x?$CC?6?7?7pc?$DN?$CC0x?$CF@ 00000000710fe170     arch.c.obj
 0002:000101a0       ??_C@_0L@NIIHPIHD@?7xmm?$CFd?$DN?50x?$AA@ 00000000710fe1a0     arch.c.obj
 0002:000101b0       ??_C@_0L@DHEFJDEN@?7ymm?$CFd?$DN?50x?$AA@ 00000000710fe1b0     arch.c.obj
 0002:000101c0       ??_C@_0N@JIBBECCJ@?7?7ymm?$CFd?$DN?5?$CC0x?$AA@ 00000000710fe1c0     arch.c.obj
 0002:000101d0       ??_C@_0N@FJJPJNOJ@?7?7xmm?$CFd?$DN?5?$CC0x?$AA@ 00000000710fe1d0     arch.c.obj
 0002:000101e0       ??_C@_02MBJIFMOJ@?$CC?6?$AA@ 00000000710fe1e0     arch.c.obj
 0002:000101f0       ??_C@_0BDN@BPACAEDE@priv_mcontext_t?5?$EA0x?$CF016I64x?6?7xax@ 00000000710fe1f0     arch.c.obj
 0002:00010330       ??_C@_0BFE@FGHAMJOL@?7?$DMpriv_mcontext_t?5value?$DN?$CC?$EA0x?$CF016@ 00000000710fe330     arch.c.obj
 0002:00010488       ??_C@_0DI@HOLKCLFP@?6Dumping?5generated?5code?5profile?5@ 00000000710fe488     arch.c.obj
 0002:000104c0       ??_C@_0DM@JNHBABMM@?6Dumping?5coarse?5IBL?5code?5?$CFs?5prof@ 00000000710fe4c0     arch.c.obj
 0002:00010500       ??_C@_0DI@CKBICEPO@?6Dumping?5BB?5IBL?5code?5?$CFs?5profile?5@ 00000000710fe500     arch.c.obj
 0002:00010538       ??_C@_0DL@JCPLICJL@?6Dumping?5trace?5IBL?5code?5?$CFs?5profi@ 00000000710fe538     arch.c.obj
 0002:00010578       ??_C@_0DP@BIJEOLH@?6Dumping?5cache?5enter?1exit?5code?5p@ 00000000710fe578     arch.c.obj
 0002:000105b8       ??_C@_0BK@POGAFJDK@Profile?5for?5thread?5?$CFI64u?6?$AA@ 00000000710fe5b8     arch.c.obj
 0002:000105d8       ??_C@_0L@KLLMJEBJ@?$DMmaxpatch?$DO?$AA@ 00000000710fe5d8     emit_utils_shared.c.obj
 0002:000105e8       ??_C@_0BP@EGLOOCCP@Maximum?5patch?5entries?5exceeded?$AA@ 00000000710fe5e8     emit_utils_shared.c.obj
 0002:00010608       regparms                   00000000710fe608     opnd_shared.c.obj
 0002:00010618       ??_C@_0BJ@JEFEMNGG@opnd_compute_address?5for?$AA@ 00000000710fe618     opnd_shared.c.obj
 0002:00010634       ??_C@_05MODCJBFL@?$CIbad?$CJ?$AA@ 00000000710fe634     decode_shared.c.obj
 0002:00010640       ??_C@_0O@LBJOBKMM@OPSZ_16_of_32?$AA@ 00000000710fe640     decode_shared.c.obj
 0002:00010650       ??_C@_0BD@BKPPNOPK@OPSZ_8_of_16_vex32?$AA@ 00000000710fe650     decode_shared.c.obj
 0002:00010668       ??_C@_0O@FIPJAMEF@OPSZ_15_of_16?$AA@ 00000000710fe668     decode_shared.c.obj
 0002:00010678       ??_C@_0O@JEFDAMNL@OPSZ_14_of_16?$AA@ 00000000710fe678     decode_shared.c.obj
 0002:00010688       ??_C@_0BD@NGGOAACG@OPSZ_12_rex8_of_16?$AA@ 00000000710fe688     decode_shared.c.obj
 0002:000106a0       ??_C@_0O@FCDMAFFM@OPSZ_12_of_16?$AA@ 00000000710fe6a0     decode_shared.c.obj
 0002:000106b0       ??_C@_0N@OHDCGLDO@OPSZ_8_of_16?$AA@ 00000000710fe6b0     decode_shared.c.obj
 0002:000106c0       ??_C@_0BC@OHPDGKDH@OPSZ_4_rex8_of_16?$AA@ 00000000710fe6c0     decode_shared.c.obj
 0002:000106d8       ??_C@_0N@LAJNHOHB@OPSZ_4_of_16?$AA@ 00000000710fe6d8     decode_shared.c.obj
 0002:000106e8       ??_C@_0N@HGPCHHPG@OPSZ_2_of_16?$AA@ 00000000710fe6e8     decode_shared.c.obj
 0002:000106f8       ??_C@_0N@PIHNHABF@OPSZ_1_of_16?$AA@ 00000000710fe6f8     decode_shared.c.obj
 0002:00010708       ??_C@_0M@FDJOHNKK@OPSZ_4_of_8?$AA@ 00000000710fe708     decode_shared.c.obj
 0002:00010718       ??_C@_0M@DAEOEIJA@OPSZ_2_of_8?$AA@ 00000000710fe718     decode_shared.c.obj
 0002:00010728       ??_C@_0M@BKGFCAN@OPSZ_1_of_8?$AA@ 00000000710fe728     decode_shared.c.obj
 0002:00010738       ??_C@_0M@JMPLAHJM@OPSZ_2_of_4?$AA@ 00000000710fe738     decode_shared.c.obj
 0002:00010748       ??_C@_0M@KNBDBNAB@OPSZ_1_of_4?$AA@ 00000000710fe748     decode_shared.c.obj
 0002:00010758       ??_C@_08DAHHEGCB@OPSZ_128?$AA@ 00000000710fe758     decode_shared.c.obj
 0002:00010768       ??_C@_08JMMCAJCN@OPSZ_124?$AA@ 00000000710fe768     decode_shared.c.obj
 0002:00010778       ??_C@_08PIKOMMCJ@OPSZ_120?$AA@ 00000000710fe778     decode_shared.c.obj
 0002:00010788       ??_C@_08KMLCNFPG@OPSZ_116?$AA@ 00000000710fe788     decode_shared.c.obj
 0002:00010798       ??_C@_08MINOBAPC@OPSZ_112?$AA@ 00000000710fe798     decode_shared.c.obj
 0002:000107a8       ??_C@_08JPEGNNED@OPSZ_104?$AA@ 00000000710fe7a8     decode_shared.c.obj
 0002:000107b8       ??_C@_08PLCKBIEH@OPSZ_100?$AA@ 00000000710fe7b8     decode_shared.c.obj
 0002:000107c8       ??_C@_07IAMEOEMN@OPSZ_96?$AA@ 00000000710fe7c8     decode_shared.c.obj
 0002:000107d0       ??_C@_07OEKICBMJ@OPSZ_92?$AA@ 00000000710fe7d0     decode_shared.c.obj
 0002:000107d8       ??_C@_07BPIFKDHE@OPSZ_88?$AA@ 00000000710fe7d8     decode_shared.c.obj
 0002:000107e0       ??_C@_07LDDAOMHI@OPSZ_84?$AA@ 00000000710fe7e0     decode_shared.c.obj
 0002:000107e8       ??_C@_07NHFMCJHM@OPSZ_80?$AA@ 00000000710fe7e8     decode_shared.c.obj
 0002:000107f0       ??_C@_07IKFKMJMH@OPSZ_76?$AA@ 00000000710fe7f0     decode_shared.c.obj
 0002:000107f8       ??_C@_07OODGAMMD@OPSZ_72?$AA@ 00000000710fe7f8     decode_shared.c.obj
 0002:00010800       ??_C@_07BFBLIOHO@OPSZ_68?$AA@ 00000000710fe800     decode_shared.c.obj
 0002:00010808       ??_C@_07LJKOMBHC@OPSZ_64?$AA@ 00000000710fe808     decode_shared.c.obj
 0002:00010810       ??_C@_07NNMCAEHG@OPSZ_60?$AA@ 00000000710fe810     decode_shared.c.obj
 0002:00010818       ??_C@_07IJNOBNKJ@OPSZ_56?$AA@ 00000000710fe818     decode_shared.c.obj
 0002:00010820       ??_C@_07ONLCNIKN@OPSZ_52?$AA@ 00000000710fe820     decode_shared.c.obj
 0002:00010828       ??_C@_07BGJPFKBA@OPSZ_48?$AA@ 00000000710fe828     decode_shared.c.obj
 0002:00010830       ??_C@_07LKCKBFBM@OPSZ_44?$AA@ 00000000710fe830     decode_shared.c.obj
 0002:00010838       ??_C@_07INFDGBBL@OPSZ_36?$AA@ 00000000710fe838     decode_shared.c.obj
 0002:00010840       ??_C@_07LOKHGJKO@OPSZ_24?$AA@ 00000000710fe840     decode_shared.c.obj
 0002:00010848       ??_C@_07NKMLKMKK@OPSZ_20?$AA@ 00000000710fe848     decode_shared.c.obj
 0002:00010850       ??_C@_0BB@CNHKDCOI@OPSZ_VAR_REGLIST?$AA@ 00000000710fe850     decode_shared.c.obj
 0002:00010868       ??_C@_08GHNJEKJE@OPSZ_25b?$AA@ 00000000710fe868     decode_shared.c.obj
 0002:00010878       ??_C@_08GBBCIIHP@OPSZ_20b?$AA@ 00000000710fe878     decode_shared.c.obj
 0002:00010888       ??_C@_08HACDPDPP@OPSZ_12b?$AA@ 00000000710fe888     decode_shared.c.obj
 0002:00010898       ??_C@_08HCGFENKG@OPSZ_11b?$AA@ 00000000710fe898     decode_shared.c.obj
 0002:000108a8       ??_C@_08HDKHCHJB@OPSZ_10b?$AA@ 00000000710fe8a8     decode_shared.c.obj
 0002:000108b8       ??_C@_07FOBDHMJN@OPSZ_9b?$AA@ 00000000710fe8b8     decode_shared.c.obj
 0002:000108c0       ??_C@_07FEINFBJH@OPSZ_7b?$AA@ 00000000710fe8c0     decode_shared.c.obj
 0002:000108c8       ??_C@_07FFEPDLKA@OPSZ_6b?$AA@ 00000000710fe8c8     decode_shared.c.obj
 0002:000108d0       ??_C@_07FHAJIFPJ@OPSZ_5b?$AA@ 00000000710fe8d0     decode_shared.c.obj
 0002:000108d8       ??_C@_07FGMLOPMO@OPSZ_4b?$AA@ 00000000710fe8d8     decode_shared.c.obj
 0002:000108e0       ??_C@_07FDIEPJEL@OPSZ_3b?$AA@ 00000000710fe8e0     decode_shared.c.obj
 0002:000108e8       ??_C@_07FCEGJDHM@OPSZ_2b?$AA@ 00000000710fe8e8     decode_shared.c.obj
 0002:000108f0       ??_C@_07FAAACNCF@OPSZ_1b?$AA@ 00000000710fe8f0     decode_shared.c.obj
 0002:000108f8       ??_C@_06JENGHLIG@OPSZ_3?$AA@ 00000000710fe8f8     decode_shared.c.obj
 0002:00010900       ??_C@_07KFPKOGLG@OPSZ_15?$AA@ 00000000710fe900     decode_shared.c.obj
 0002:00010908       ??_C@_0O@OPACKEMI@OPSZ_16_vex32?$AA@ 00000000710fe908     decode_shared.c.obj
 0002:00010918       ??_C@_0BF@LKNNMDIJ@OPSZ_12_rex40_short6?$AA@ 00000000710fe918     decode_shared.c.obj
 0002:00010930       ??_C@_0BE@KGJDCAOK@OPSZ_8_rex16_short4?$AA@ 00000000710fe930     decode_shared.c.obj
 0002:00010948       ??_C@_0N@CCDPJHCM@OPSZ_8_rex16?$AA@ 00000000710fe948     decode_shared.c.obj
 0002:00010958       ??_C@_0BA@MDKCPJED@OPSZ_32_short16?$AA@ 00000000710fe958     decode_shared.c.obj
 0002:00010968       ??_C@_07NOEGNABI@OPSZ_40?$AA@ 00000000710fe968     decode_shared.c.obj
 0002:00010970       ??_C@_07OJDPKEBP@OPSZ_32?$AA@ 00000000710fe970     decode_shared.c.obj
 0002:00010978       ??_C@_07OKLLHAHB@OPSZ_12?$AA@ 00000000710fe978     decode_shared.c.obj
 0002:00010980       ??_C@_0L@KABHCAEE@OPSZ_xsave?$AA@ 00000000710fe980     decode_shared.c.obj
 0002:00010990       ??_C@_0N@HNOKMFKK@OPSZ_4_reg16?$AA@ 00000000710fe990     decode_shared.c.obj
 0002:000109a0       ??_C@_0M@DMEGEPGJ@OPSZ_2_reg4?$AA@ 00000000710fe9a0     decode_shared.c.obj
 0002:000109b0       ??_C@_0M@NKOFFPE@OPSZ_1_reg4?$AA@ 00000000710fe9b0     decode_shared.c.obj
 0002:000109c0       ??_C@_0BB@EMMKIILP@OPSZ_4_short2xi4?$AA@ 00000000710fe9c0     decode_shared.c.obj
 0002:000109d8       ??_C@_0BD@NGGPJBJO@OPSZ_4x8_short2xi8?$AA@ 00000000710fe9d8     decode_shared.c.obj
 0002:000109f0       ??_C@_0BA@CCCAJOJB@OPSZ_4x8_short2?$AA@ 00000000710fe9f0     decode_shared.c.obj
 0002:00010a00       ??_C@_09NKEHAOCN@OPSZ_6x10?$AA@ 00000000710fea00     decode_shared.c.obj
 0002:00010a10       ??_C@_08HKKELOAF@OPSZ_4x8?$AA@ 00000000710fea10     decode_shared.c.obj
 0002:00010a20       ??_C@_0BB@MEHNBAOA@OPSZ_108_short94?$AA@ 00000000710fea20     decode_shared.c.obj
 0002:00010a38       ??_C@_0BA@CHDINEMI@OPSZ_28_short14?$AA@ 00000000710fea38     decode_shared.c.obj
 0002:00010a48       ??_C@_0O@LLEGFNAG@OPSZ_8_short4?$AA@ 00000000710fea48     decode_shared.c.obj
 0002:00010a58       ??_C@_0O@ONBMPKIA@OPSZ_8_short2?$AA@ 00000000710fea58     decode_shared.c.obj
 0002:00010a68       ??_C@_0BF@HOBPKKNH@OPSZ_6_irex10_short4?$AA@ 00000000710fea68     decode_shared.c.obj
 0002:00010a80       ??_C@_0M@OEFJNBBC@OPSZ_4_rex8?$AA@ 00000000710fea80     decode_shared.c.obj
 0002:00010a90       ??_C@_0BD@JEMAIDCF@OPSZ_4_rex8_short2?$AA@ 00000000710fea90     decode_shared.c.obj
 0002:00010aa8       ??_C@_0O@LCIAJJE@OPSZ_4_short2?$AA@ 00000000710feaa8     decode_shared.c.obj
 0002:00010ab8       ??_C@_0O@FDBPCDNN@OPSZ_2_short1?$AA@ 00000000710feab8     decode_shared.c.obj
 0002:00010ac8       ??_C@_08EHLMIHKF@OPSZ_512?$AA@ 00000000710feac8     decode_shared.c.obj
 0002:00010ad8       ??_C@_08DDPDJCEP@OPSZ_108?$AA@ 00000000710fead8     decode_shared.c.obj
 0002:00010ae8       ??_C@_07LCPCIGEP@OPSZ_94?$AA@ 00000000710feae8     decode_shared.c.obj
 0002:00010af0       ??_C@_07BCBCCGKC@OPSZ_28?$AA@ 00000000710feaf0     decode_shared.c.obj
 0002:00010af8       ??_C@_07LMOBNHPH@OPSZ_14?$AA@ 00000000710feaf8     decode_shared.c.obj
 0002:00010b00       ??_C@_07IONHLFHF@OPSZ_16?$AA@ 00000000710feb00     decode_shared.c.obj
 0002:00010b08       ??_C@_07NIINBCPD@OPSZ_10?$AA@ 00000000710feb08     decode_shared.c.obj
 0002:00010b10       ??_C@_06HHCCKCEN@OPSZ_8?$AA@ 00000000710feb10     decode_shared.c.obj
 0002:00010b18       ??_C@_06OJKBIPMD@OPSZ_6?$AA@ 00000000710feb18     decode_shared.c.obj
 0002:00010b20       ??_C@_06NLJHONEB@OPSZ_4?$AA@ 00000000710feb20     decode_shared.c.obj
 0002:00010b28       ??_C@_06INMNEKMH@OPSZ_2?$AA@ 00000000710feb28     decode_shared.c.obj
 0002:00010b30       ??_C@_06KGOABJAE@OPSZ_1?$AA@ 00000000710feb30     decode_shared.c.obj
 0002:00010b38       ??_C@_08LJKEPHG@OPSZ_lea?$AA@ 00000000710feb38     decode_shared.c.obj
 0002:00010b48       ??_C@_07LBAEHFCJ@OPSZ_NA?$AA@ 00000000710feb48     decode_shared.c.obj
 0002:00010b50       ??_C@_09DPMBDOD@?$DMinvalid?$DO?$AA@ 00000000710feb50     decode_shared.c.obj
 0002:00010b60       size_names                 00000000710feb60     decode_shared.c.obj
 0002:000112c0       invalid_instr              00000000710ff2c0     decode_shared.c.obj
 0002:000113d8       ??_C@_05ENGGNDGG@ymm15?$AA@ 00000000710ff3d8     encode.c.obj
 0002:000113e0       ??_C@_05FEHNOCCH@ymm14?$AA@ 00000000710ff3e0     encode.c.obj
 0002:000113e8       ??_C@_05BLDMHEOA@ymm13?$AA@ 00000000710ff3e8     encode.c.obj
 0002:000113f0       ??_C@_05CCHEFKB@ymm12?$AA@ 00000000710ff3f0     encode.c.obj
 0002:000113f8       ??_C@_05CJAKBGGC@ymm11?$AA@ 00000000710ff3f8     encode.c.obj
 0002:00011400       ??_C@_05DABBCHCD@ymm10?$AA@ 00000000710ff400     encode.c.obj
 0002:00011408       ??_C@_04EKNIHAEL@ymm9?$AA@ 00000000710ff408     encode.c.obj
 0002:00011410       ??_C@_04FDMDEBAK@ymm8?$AA@ 00000000710ff410     encode.c.obj
 0002:00011418       ??_C@_04NEFLFNMF@ymm7?$AA@ 00000000710ff418     encode.c.obj
 0002:00011420       ??_C@_04MNEAGMIE@ymm6?$AA@ 00000000710ff420     encode.c.obj
 0002:00011428       ??_C@_04OGGNDPEH@ymm5?$AA@ 00000000710ff428     encode.c.obj
 0002:00011430       ??_C@_04PPHGAOAG@ymm4?$AA@ 00000000710ff430     encode.c.obj
 0002:00011438       ??_C@_04LADHJIMB@ymm3?$AA@ 00000000710ff438     encode.c.obj
 0002:00011440       ??_C@_04KJCMKJIA@ymm2?$AA@ 00000000710ff440     encode.c.obj
 0002:00011448       ??_C@_04ICABPKED@ymm1?$AA@ 00000000710ff448     encode.c.obj
 0002:00011450       ??_C@_04JLBKMLAC@ymm0?$AA@ 00000000710ff450     encode.c.obj
 0002:00011458       ??_C@_04KBOBCAHJ@cr15?$AA@ 00000000710ff458     encode.c.obj
 0002:00011460       ??_C@_04LIPKBBDI@cr14?$AA@ 00000000710ff460     encode.c.obj
 0002:00011468       ??_C@_04PHLLIHPP@cr13?$AA@ 00000000710ff468     encode.c.obj
 0002:00011470       ??_C@_04OOKALGLO@cr12?$AA@ 00000000710ff470     encode.c.obj
 0002:00011478       ??_C@_04MFINOFHN@cr11?$AA@ 00000000710ff478     encode.c.obj
 0002:00011480       ??_C@_04NMJGNEDM@cr10?$AA@ 00000000710ff480     encode.c.obj
 0002:00011488       ??_C@_03KONJEJIK@cr9?$AA@  00000000710ff488     encode.c.obj
 0002:0001148c       ??_C@_03LHMCHIML@cr8?$AA@  00000000710ff48c     encode.c.obj
 0002:00011490       ??_C@_03DAFKGEAE@cr7?$AA@  00000000710ff490     encode.c.obj
 0002:00011494       ??_C@_03CJEBFFEF@cr6?$AA@  00000000710ff494     encode.c.obj
 0002:00011498       ??_C@_03CGMAGIG@cr5?$AA@   00000000710ff498     encode.c.obj
 0002:0001149c       ??_C@_03BLHHDHMH@cr4?$AA@  00000000710ff49c     encode.c.obj
 0002:000114a0       ??_C@_03FEDGKBAA@cr3?$AA@  00000000710ff4a0     encode.c.obj
 0002:000114a4       ??_C@_03ENCNJAEB@cr2?$AA@  00000000710ff4a4     encode.c.obj
 0002:000114a8       ??_C@_03GGAAMDIC@cr1?$AA@  00000000710ff4a8     encode.c.obj
 0002:000114ac       ??_C@_03HPBLPCMD@cr0?$AA@  00000000710ff4ac     encode.c.obj
 0002:000114b0       ??_C@_04BDMBPMGJ@dr15?$AA@ 00000000710ff4b0     encode.c.obj
 0002:000114b8       ??_C@_04KNKMNCI@dr14?$AA@  00000000710ff4b8     encode.c.obj
 0002:000114c0       ??_C@_04EFJLFLOP@dr13?$AA@ 00000000710ff4c0     encode.c.obj
 0002:000114c8       ??_C@_04FMIAGKKO@dr12?$AA@ 00000000710ff4c8     encode.c.obj
 0002:000114d0       ??_C@_04HHKNDJGN@dr11?$AA@ 00000000710ff4d0     encode.c.obj
 0002:000114d8       ??_C@_04GOLGAICM@dr10?$AA@ 00000000710ff4d8     encode.c.obj
 0002:000114e0       ??_C@_03DDAOHBDD@dr9?$AA@  00000000710ff4e0     encode.c.obj
 0002:000114e4       ??_C@_03CKBFEAHC@dr8?$AA@  00000000710ff4e4     encode.c.obj
 0002:000114e8       ??_C@_03KNINFMLN@dr7?$AA@  00000000710ff4e8     encode.c.obj
 0002:000114ec       ??_C@_03LEJGGNPM@dr6?$AA@  00000000710ff4ec     encode.c.obj
 0002:000114f0       ??_C@_03JPLLDODP@dr5?$AA@  00000000710ff4f0     encode.c.obj
 0002:000114f4       ??_C@_03IGKAAPHO@dr4?$AA@  00000000710ff4f4     encode.c.obj
 0002:000114f8       ??_C@_03MJOBJJLJ@dr3?$AA@  00000000710ff4f8     encode.c.obj
 0002:000114fc       ??_C@_03NAPKKIPI@dr2?$AA@  00000000710ff4fc     encode.c.obj
 0002:00011500       ??_C@_03PLNHPLDL@dr1?$AA@  00000000710ff500     encode.c.obj
 0002:00011504       ??_C@_03OCMMMKHK@dr0?$AA@  00000000710ff504     encode.c.obj
 0002:00011508       ??_C@_02EJDENBHN@gs?$AA@   00000000710ff508     encode.c.obj
 0002:0001150c       ??_C@_02EIPGLLEK@fs?$AA@   00000000710ff50c     encode.c.obj
 0002:00011510       ??_C@_02ELHCGPCE@ds?$AA@   00000000710ff510     encode.c.obj
 0002:00011514       ??_C@_02FCBLNKNB@ss?$AA@   00000000710ff514     encode.c.obj
 0002:00011518       ??_C@_02EODNHJKB@cs?$AA@   00000000710ff518     encode.c.obj
 0002:0001151c       ??_C@_02EKLAAFBD@es?$AA@   00000000710ff51c     encode.c.obj
 0002:00011520       ??_C@_03GEMOEPCJ@st7?$AA@  00000000710ff520     encode.c.obj
 0002:00011524       ??_C@_03HNNFHOGI@st6?$AA@  00000000710ff524     encode.c.obj
 0002:00011528       ??_C@_03FGPICNKL@st5?$AA@  00000000710ff528     encode.c.obj
 0002:0001152c       ??_C@_03EPODBMOK@st4?$AA@  00000000710ff52c     encode.c.obj
 0002:00011530       ??_C@_03KCIKCN@st3?$AA@    00000000710ff530     encode.c.obj
 0002:00011534       ??_C@_03BJLJLLGM@st2?$AA@  00000000710ff534     encode.c.obj
 0002:00011538       ??_C@_03DCJEOIKP@st1?$AA@  00000000710ff538     encode.c.obj
 0002:0001153c       ??_C@_03CLIPNJOO@st0?$AA@  00000000710ff53c     encode.c.obj
 0002:00011540       ??_C@_05IGDKAAMD@xmm15?$AA@ 00000000710ff540     encode.c.obj
 0002:00011548       ??_C@_05JPCBDBIC@xmm14?$AA@ 00000000710ff548     encode.c.obj
 0002:00011550       ??_C@_05NAGAKHEF@xmm13?$AA@ 00000000710ff550     encode.c.obj
 0002:00011558       ??_C@_05MJHLJGAE@xmm12?$AA@ 00000000710ff558     encode.c.obj
 0002:00011560       ??_C@_05OCFGMFMH@xmm11?$AA@ 00000000710ff560     encode.c.obj
 0002:00011568       ??_C@_05PLENPEIG@xmm10?$AA@ 00000000710ff568     encode.c.obj
 0002:00011570       ??_C@_04HHLIFJPL@xmm9?$AA@ 00000000710ff570     encode.c.obj
 0002:00011578       ??_C@_04GOKDGILK@xmm8?$AA@ 00000000710ff578     encode.c.obj
 0002:00011580       ??_C@_04OJDLHEHF@xmm7?$AA@ 00000000710ff580     encode.c.obj
 0002:00011588       ??_C@_04PACAEFDE@xmm6?$AA@ 00000000710ff588     encode.c.obj
 0002:00011590       ??_C@_04NLANBGPH@xmm5?$AA@ 00000000710ff590     encode.c.obj
 0002:00011598       ??_C@_04MCBGCHLG@xmm4?$AA@ 00000000710ff598     encode.c.obj
 0002:000115a0       ??_C@_04INFHLBHB@xmm3?$AA@ 00000000710ff5a0     encode.c.obj
 0002:000115a8       ??_C@_04JEEMIADA@xmm2?$AA@ 00000000710ff5a8     encode.c.obj
 0002:000115b0       ??_C@_04LPGBNDPD@xmm1?$AA@ 00000000710ff5b0     encode.c.obj
 0002:000115b8       ??_C@_04KGHKOCLC@xmm0?$AA@ 00000000710ff5b8     encode.c.obj
 0002:000115c0       ??_C@_03MHPPPHHK@mm7?$AA@  00000000710ff5c0     encode.c.obj
 0002:000115c4       ??_C@_03NOOEMGDL@mm6?$AA@  00000000710ff5c4     encode.c.obj
 0002:000115c8       ??_C@_03PFMJJFPI@mm5?$AA@  00000000710ff5c8     encode.c.obj
 0002:000115cc       ??_C@_03OMNCKELJ@mm4?$AA@  00000000710ff5cc     encode.c.obj
 0002:000115d0       ??_C@_03KDJDDCHO@mm3?$AA@  00000000710ff5d0     encode.c.obj
 0002:000115d4       ??_C@_03LKIIADDP@mm2?$AA@  00000000710ff5d4     encode.c.obj
 0002:000115d8       ??_C@_03JBKFFAPM@mm1?$AA@  00000000710ff5d8     encode.c.obj
 0002:000115dc       ??_C@_03IILOGBLN@mm0?$AA@  00000000710ff5dc     encode.c.obj
 0002:000115e0       ??_C@_03OELBJELD@dil?$AA@  00000000710ff5e0     encode.c.obj
 0002:000115e4       ??_C@_03CJHPPLJF@sil?$AA@  00000000710ff5e4     encode.c.obj
 0002:000115e8       ??_C@_03NCCNFDJA@bpl?$AA@  00000000710ff5e8     encode.c.obj
 0002:000115ec       ??_C@_03DKIIGDGK@spl?$AA@  00000000710ff5ec     encode.c.obj
 0002:000115f0       ??_C@_04BJLACHFJ@r15l?$AA@ 00000000710ff5f0     encode.c.obj
 0002:000115f8       ??_C@_04BIHCENGO@r14l?$AA@ 00000000710ff5f8     encode.c.obj
 0002:00011600       ??_C@_04BNDNFLOL@r13l?$AA@ 00000000710ff600     encode.c.obj
 0002:00011608       ??_C@_04BMPPDBNM@r12l?$AA@ 00000000710ff608     encode.c.obj
 0002:00011610       ??_C@_04BOLJIPIF@r11l?$AA@ 00000000710ff610     encode.c.obj
 0002:00011618       ??_C@_04BPHLOFLC@r10l?$AA@ 00000000710ff618     encode.c.obj
 0002:00011620       ??_C@_03PNHPLCEA@r9l?$AA@  00000000710ff620     encode.c.obj
 0002:00011624       ??_C@_03PMLNNIHH@r8l?$AA@  00000000710ff624     encode.c.obj
 0002:00011628       ??_C@_02OGMJNIAM@bh?$AA@   00000000710ff628     encode.c.obj
 0002:0001162c       ??_C@_02OCEEKELO@dh?$AA@   00000000710ff62c     encode.c.obj
 0002:00011630       ??_C@_02OHALLCDL@ch?$AA@   00000000710ff630     encode.c.obj
 0002:00011634       ??_C@_02OEIPGGFF@ah?$AA@   00000000710ff634     encode.c.obj
 0002:00011638       ??_C@_02ICKFBNAI@bl?$AA@   00000000710ff638     encode.c.obj
 0002:0001163c       ??_C@_02IGCIGBLK@dl?$AA@   00000000710ff63c     encode.c.obj
 0002:00011640       ??_C@_02IDGHHHDP@cl?$AA@   00000000710ff640     encode.c.obj
 0002:00011644       ??_C@_02IAODKDFB@al?$AA@   00000000710ff644     encode.c.obj
 0002:00011648       ??_C@_04LAIGOMMD@r15w?$AA@ 00000000710ff648     encode.c.obj
 0002:00011650       ??_C@_04LBEEIGPE@r14w?$AA@ 00000000710ff650     encode.c.obj
 0002:00011658       ??_C@_04LEALJAHB@r13w?$AA@ 00000000710ff658     encode.c.obj
 0002:00011660       ??_C@_04LFMJPKEG@r12w?$AA@ 00000000710ff660     encode.c.obj
 0002:00011668       ??_C@_04LHIPEEBP@r11w?$AA@ 00000000710ff668     encode.c.obj
 0002:00011670       ??_C@_04LGENCOCI@r10w?$AA@ 00000000710ff670     encode.c.obj
 0002:00011678       ??_C@_03FEEJHJNK@r9w?$AA@  00000000710ff678     encode.c.obj
 0002:0001167c       ??_C@_03FFILBDON@r8w?$AA@  00000000710ff67c     encode.c.obj
 0002:00011680       ??_C@_02PLFPJFPP@di?$AA@   00000000710ff680     encode.c.obj
 0002:00011684       ??_C@_02OCDGCAAK@si?$AA@   00000000710ff684     encode.c.obj
 0002:00011688       ??_C@_02GENCEAFF@bp?$AA@   00000000710ff688     encode.c.obj
 0002:0001168c       ??_C@_02HJDGIJBC@sp?$AA@   00000000710ff68c     encode.c.obj
 0002:00011690       ??_C@_02KMALMKFN@bx?$AA@   00000000710ff690     encode.c.obj
 0002:00011694       ??_C@_02KIIGLGOP@dx?$AA@   00000000710ff694     encode.c.obj
 0002:00011698       ??_C@_02KNMJKAGK@cx?$AA@   00000000710ff698     encode.c.obj
 0002:0001169c       ??_C@_02KOENHEAE@ax?$AA@   00000000710ff69c     encode.c.obj
 0002:000116a0       ??_C@_04NBGJKNFB@r15d?$AA@ 00000000710ff6a0     encode.c.obj
 0002:000116a8       ??_C@_04NAKLMHGG@r14d?$AA@ 00000000710ff6a8     encode.c.obj
 0002:000116b0       ??_C@_04NFOENBOD@r13d?$AA@ 00000000710ff6b0     encode.c.obj
 0002:000116b8       ??_C@_04NECGLLNE@r12d?$AA@ 00000000710ff6b8     encode.c.obj
 0002:000116c0       ??_C@_04NGGAAFIN@r11d?$AA@ 00000000710ff6c0     encode.c.obj
 0002:000116c8       ??_C@_04NHKCGPLK@r10d?$AA@ 00000000710ff6c8     encode.c.obj
 0002:000116d0       ??_C@_03DFKGDIEI@r9d?$AA@  00000000710ff6d0     encode.c.obj
 0002:000116d4       ??_C@_03DEGEFCHP@r8d?$AA@  00000000710ff6d4     encode.c.obj
 0002:000116d8       ??_C@_03CJKCJEMA@edi?$AA@  00000000710ff6d8     encode.c.obj
 0002:000116dc       ??_C@_03DAMLCBDF@esi?$AA@  00000000710ff6dc     encode.c.obj
 0002:000116e0       ??_C@_03LGCPEBGK@ebp?$AA@  00000000710ff6e0     encode.c.obj
 0002:000116e4       ??_C@_03KLMLIICN@esp?$AA@  00000000710ff6e4     encode.c.obj
 0002:000116e8       ??_C@_03HOPGMLGC@ebx?$AA@  00000000710ff6e8     encode.c.obj
 0002:000116ec       ??_C@_03HKHLLHNA@edx?$AA@  00000000710ff6ec     encode.c.obj
 0002:000116f0       ??_C@_03HPDEKBFF@ecx?$AA@  00000000710ff6f0     encode.c.obj
 0002:000116f4       ??_C@_03HMLAHFDL@eax?$AA@  00000000710ff6f4     encode.c.obj
 0002:000116f8       ??_C@_03JIBFAFOF@r15?$AA@  00000000710ff6f8     encode.c.obj
 0002:000116fc       ??_C@_03IBAODEKE@r14?$AA@  00000000710ff6fc     encode.c.obj
 0002:00011700       ??_C@_03MOEPKCGD@r13?$AA@  00000000710ff700     encode.c.obj
 0002:00011704       ??_C@_03NHFEJDCC@r12?$AA@  00000000710ff704     encode.c.obj
 0002:00011708       ??_C@_03PMHJMAOB@r11?$AA@  00000000710ff708     encode.c.obj
 0002:0001170c       ??_C@_03OFGCPBKA@r10?$AA@  00000000710ff70c     encode.c.obj
 0002:00011710       ??_C@_02FJEPBHGJ@r9?$AA@   00000000710ff710     encode.c.obj
 0002:00011714       ??_C@_02EAFECGCI@r8?$AA@   00000000710ff714     encode.c.obj
 0002:00011718       ??_C@_03OEGMPLOG@rdi?$AA@  00000000710ff718     encode.c.obj
 0002:0001171c       ??_C@_03PNAFEOBD@rsi?$AA@  00000000710ff71c     encode.c.obj
 0002:00011720       ??_C@_03HLOBCOEM@rbp?$AA@  00000000710ff720     encode.c.obj
 0002:00011724       ??_C@_03GGAFOHAL@rsp?$AA@  00000000710ff724     encode.c.obj
 0002:00011728       ??_C@_03LDDIKEEE@rbx?$AA@  00000000710ff728     encode.c.obj
 0002:0001172c       ??_C@_03LHLFNIPG@rdx?$AA@  00000000710ff72c     encode.c.obj
 0002:00011730       ??_C@_03LCPKMOHD@rcx?$AA@  00000000710ff730     encode.c.obj
 0002:00011734       ??_C@_03LBHOBKBN@rax?$AA@  00000000710ff734     encode.c.obj
 0002:00011738       ??_C@_0BM@KIICHNJM@TYPE_INDIR_VAR_REG_SIZEx3x5?$AA@ 00000000710ff738     encode.c.obj
 0002:00011758       ??_C@_0BK@DALCGILH@TYPE_INDIR_VAR_REG_SIZEx2?$AA@ 00000000710ff758     encode.c.obj
 0002:00011778       ??_C@_0BL@LAACKPAC@TYPE_INDIR_VAR_XREG_SIZEx8?$AA@ 00000000710ff778     encode.c.obj
 0002:00011798       ??_C@_0BK@IMPKAOHN@TYPE_INDIR_VAR_REG_OFFS_2?$AA@ 00000000710ff798     encode.c.obj
 0002:000117b8       ??_C@_0BM@PMCJKBAA@TYPE_INDIR_VAR_XIREG_OFFS_1?$AA@ 00000000710ff7b8     encode.c.obj
 0002:000117d8       ??_C@_0BL@HFCPBHLI@TYPE_INDIR_VAR_XREG_OFFS_N?$AA@ 00000000710ff7d8     encode.c.obj
 0002:000117f8       ??_C@_0BL@MEKMJMI@TYPE_INDIR_VAR_XREG_OFFS_8?$AA@ 00000000710ff7f8     encode.c.obj
 0002:00011818       ??_C@_0BL@NNIIHCIB@TYPE_INDIR_VAR_XREG_OFFS_1?$AA@ 00000000710ff818     encode.c.obj
 0002:00011838       ??_C@_0BF@JNIFHGNE@TYPE_INDIR_VAR_XIREG?$AA@ 00000000710ff838     encode.c.obj
 0002:00011850       ??_C@_0BD@DOGKOKDI@TYPE_INDIR_VAR_REG?$AA@ 00000000710ff850     encode.c.obj
 0002:00011868       ??_C@_0BE@BDPOKIFP@TYPE_INDIR_VAR_XREG?$AA@ 00000000710ff868     encode.c.obj
 0002:00011880       ??_C@_0P@LEELDPID@TYPE_INDIR_REG?$AA@ 00000000710ff880     encode.c.obj
 0002:00011890       ??_C@_0N@FNIKKLCE@TYPE_INDIR_E?$AA@ 00000000710ff890     encode.c.obj
 0002:000118a0       ??_C@_0BB@CHINPKHN@TYPE_VAR_REGX_EX?$AA@ 00000000710ff8a0     encode.c.obj
 0002:000118b8       ??_C@_0BB@LLEMOFKN@TYPE_VAR_XREG_EX?$AA@ 00000000710ff8b8     encode.c.obj
 0002:000118d0       ??_C@_0BA@JJABHMLE@TYPE_VAR_REG_EX?$AA@ 00000000710ff8d0     encode.c.obj
 0002:000118e0       ??_C@_0M@IPOCPKLD@TYPE_REG_EX?$AA@ 00000000710ff8e0     encode.c.obj
 0002:000118f0       ??_C@_0BD@IEAGIIP@TYPE_VAR_ADDR_XREG?$AA@ 00000000710ff8f0     encode.c.obj
 0002:00011908       ??_C@_0O@JMEANMN@TYPE_VAR_REGX?$AA@ 00000000710ff908     encode.c.obj
 0002:00011918       ??_C@_0O@EAGEKALK@TYPE_VAR_XREG?$AA@ 00000000710ff918     encode.c.obj
 0002:00011928       ??_C@_0O@KCIJONBJ@TYPE_VARZ_REG?$AA@ 00000000710ff928     encode.c.obj
 0002:00011938       ??_C@_0N@BHPBDPMK@TYPE_VAR_REG?$AA@ 00000000710ff938     encode.c.obj
 0002:00011948       ??_C@_09GMLIIAGG@TYPE_XREG?$AA@ 00000000710ff948     encode.c.obj
 0002:00011958       ??_C@_08BCEPGIHE@TYPE_REG?$AA@ 00000000710ff958     encode.c.obj
 0002:00011968       ??_C@_09BPFJFEED@TYPE_VSIB?$AA@ 00000000710ff968     encode.c.obj
 0002:00011978       ??_C@_0O@HPBBCLLN@TYPE_FLOATMEM?$AA@ 00000000710ff978     encode.c.obj
 0002:00011988       ??_C@_0O@FIEKAIGB@TYPE_MASKMOVQ?$AA@ 00000000710ff988     encode.c.obj
 0002:00011998       ??_C@_09LKJIEJIE@TYPE_XLAT?$AA@ 00000000710ff998     encode.c.obj
 0002:000119a8       ??_C@_0BA@CPPFIICC@TYPE_FLOATCONST?$AA@ 00000000710ff9a8     encode.c.obj
 0002:000119b8       ??_C@_06KLOMLNOB@TYPE_1?$AA@ 00000000710ff9b8     encode.c.obj
 0002:000119c0       ??_C@_0N@CEIEKKKJ@TYPE_V_MODRM?$AA@ 00000000710ff9c0     encode.c.obj
 0002:000119d0       ??_C@_0N@OCOLKDCO@TYPE_P_MODRM?$AA@ 00000000710ff9d0     encode.c.obj
 0002:000119e0       ??_C@_06GMIFMEO@TYPE_Y?$AA@ 00000000710ff9e0     encode.c.obj
 0002:000119e8       ??_C@_06BPNDGNAP@TYPE_X?$AA@ 00000000710ff9e8     encode.c.obj
 0002:000119f0       ??_C@_06JIELHBMA@TYPE_W?$AA@ 00000000710ff9f0     encode.c.obj
 0002:000119f8       ??_C@_06IBFAEAIB@TYPE_V?$AA@ 00000000710ff9f8     encode.c.obj
 0002:00011a00       ??_C@_06PMCHLEME@TYPE_S?$AA@ 00000000710ffa00     encode.c.obj
 0002:00011a08       ??_C@_06OFDMIFIF@TYPE_R?$AA@ 00000000710ffa08     encode.c.obj
 0002:00011a10       ??_C@_06MOBBNGEG@TYPE_Q?$AA@ 00000000710ffa10     encode.c.obj
 0002:00011a18       ??_C@_06NHAKOHAH@TYPE_P?$AA@ 00000000710ffa18     encode.c.obj
 0002:00011a20       ??_C@_06BKFAOJJJ@TYPE_O?$AA@ 00000000710ffa20     encode.c.obj
 0002:00011a28       ??_C@_06CIGGILBL@TYPE_M?$AA@ 00000000710ffa28     encode.c.obj
 0002:00011a30       ??_C@_06DBHNLKFK@TYPE_L?$AA@ 00000000710ffa30     encode.c.obj
 0002:00011a38       ??_C@_06GHCHBNNM@TYPE_J?$AA@ 00000000710ffa38     encode.c.obj
 0002:00011a40       ??_C@_06EMAKEOBP@TYPE_I?$AA@ 00000000710ffa40     encode.c.obj
 0002:00011a48       ??_C@_06FFBBHPFO@TYPE_H?$AA@ 00000000710ffa48     encode.c.obj
 0002:00011a50       ??_C@_06NCIJGDJB@TYPE_G?$AA@ 00000000710ffa50     encode.c.obj
 0002:00011a58       ??_C@_06OALPABBD@TYPE_E?$AA@ 00000000710ffa58     encode.c.obj
 0002:00011a60       ??_C@_06PJKEDAFC@TYPE_D?$AA@ 00000000710ffa60     encode.c.obj
 0002:00011a68       ??_C@_06LGOFKGJF@TYPE_C?$AA@ 00000000710ffa68     encode.c.obj
 0002:00011a70       ??_C@_06KPPOJHNE@TYPE_B?$AA@ 00000000710ffa70     encode.c.obj
 0002:00011a78       ??_C@_06IENDMEBH@TYPE_A?$AA@ 00000000710ffa78     encode.c.obj
 0002:00011a80       ??_C@_09BPAIOAGF@TYPE_NONE?$AA@ 00000000710ffa80     encode.c.obj
 0002:00011a90       type_names                 00000000710ffa90     encode.c.obj
 0002:00011c40       reg_names                  00000000710ffc40     encode.c.obj
 0002:00012120       dr_reg_fixer               0000000071100120     encode.c.obj
 0002:00012258       ??_C@_01EPMOAMKG@$?$AA@    0000000071100258     disassemble_shared.c.obj
 0002:0001225c       ??_C@_01IPJKGB@?$CD?$AA@   000000007110025c     disassemble_shared.c.obj
 0002:00012260       ??_C@_08KJEDNCKC@?$CFs?$CFs?$CFs?$CFs?$AA@ 0000000071100260     disassemble_shared.c.obj
 0002:00012270       ??_C@_0L@BEKPIBAE@?$CFs?$CFs?$CF?$CF?$CFs?$CFs?$AA@ 0000000071100270     disassemble_shared.c.obj
 0002:00012280       ??_C@_07KOOBOBJK@512byte?$AA@ 0000000071100280     disassemble_shared.c.obj
 0002:00012288       ??_C@_07LKNINGJL@128byte?$AA@ 0000000071100288     disassemble_shared.c.obj
 0002:00012290       ??_C@_07MNBKBGOA@124byte?$AA@ 0000000071100290     disassemble_shared.c.obj
 0002:00012298       ??_C@_07FGILFEPG@120byte?$AA@ 0000000071100298     disassemble_shared.c.obj
 0002:000122a0       ??_C@_07LBDKKNHG@116byte?$AA@ 00000000711002a0     disassemble_shared.c.obj
 0002:000122a8       ??_C@_07CKKLOPGA@112byte?$AA@ 00000000711002a8     disassemble_shared.c.obj
 0002:000122b0       ??_C@_07CNEHMHLC@108byte?$AA@ 00000000711002b0     disassemble_shared.c.obj
 0002:000122b8       ??_C@_07FKIFAHMJ@104byte?$AA@ 00000000711002b8     disassemble_shared.c.obj
 0002:000122c0       ??_C@_07MBBEEFNP@100byte?$AA@ 00000000711002c0     disassemble_shared.c.obj
 0002:000122c8       ??_C@_06DDPMLAOF@96byte?$AA@ 00000000711002c8     disassemble_shared.c.obj
 0002:000122d0       ??_C@_06HODEBBOO@94byte?$AA@ 00000000711002d0     disassemble_shared.c.obj
 0002:000122d8       ??_C@_06KIGNPCPD@92byte?$AA@ 00000000711002d8     disassemble_shared.c.obj
 0002:000122e0       ??_C@_06KPIBNKCB@88byte?$AA@ 00000000711002e0     disassemble_shared.c.obj
 0002:000122e8       ??_C@_06NIEDBKFK@84byte?$AA@ 00000000711002e8     disassemble_shared.c.obj
 0002:000122f0       ??_C@_06EDNCFIEM@80byte?$AA@ 00000000711002f0     disassemble_shared.c.obj
 0002:000122f8       ??_C@_06GDMDMLLI@76byte?$AA@ 00000000711002f8     disassemble_shared.c.obj
 0002:00012300       ??_C@_06PIFCIJKO@72byte?$AA@ 0000000071100300     disassemble_shared.c.obj
 0002:00012308       ??_C@_06PPLOKBHM@68byte?$AA@ 0000000071100308     disassemble_shared.c.obj
 0002:00012310       ??_C@_06IIHMGBAH@64byte?$AA@ 0000000071100310     disassemble_shared.c.obj
 0002:00012318       ??_C@_06BDONCDBB@60byte?$AA@ 0000000071100318     disassemble_shared.c.obj
 0002:00012320       ??_C@_06PEFMNKJB@56byte?$AA@ 0000000071100320     disassemble_shared.c.obj
 0002:00012328       ??_C@_06GPMNJIIH@52byte?$AA@ 0000000071100328     disassemble_shared.c.obj
 0002:00012330       ??_C@_06GICBLAFF@48byte?$AA@ 0000000071100330     disassemble_shared.c.obj
 0002:00012338       ??_C@_06BPODHACO@44byte?$AA@ 0000000071100338     disassemble_shared.c.obj
 0002:00012340       ??_C@_06IEHCDCDI@40byte?$AA@ 0000000071100340     disassemble_shared.c.obj
 0002:00012348       ??_C@_06JHIMOPKL@36byte?$AA@ 0000000071100348     disassemble_shared.c.obj
 0002:00012350       ??_C@_06MBNKNLN@32byte?$AA@ 0000000071100350     disassemble_shared.c.obj
 0002:00012358       ??_C@_06LPBIFGP@28byte?$AA@ 0000000071100358     disassemble_shared.c.obj
 0002:00012360       ??_C@_06HMDDEFBE@24byte?$AA@ 0000000071100360     disassemble_shared.c.obj
 0002:00012368       ??_C@_06OHKCAHAC@20byte?$AA@ 0000000071100368     disassemble_shared.c.obj
 0002:00012370       ??_C@_06BDPOIC@16byte?$AA@ 0000000071100370     disassemble_shared.c.obj
 0002:00012378       ??_C@_06IGIHIMCM@15byte?$AA@ 0000000071100378     disassemble_shared.c.obj
 0002:00012380       ??_C@_06ENNLFPIJ@14byte?$AA@ 0000000071100380     disassemble_shared.c.obj
 0002:00012388       ??_C@_06JLICLMJE@12byte?$AA@ 0000000071100388     disassemble_shared.c.obj
 0002:00012390       ??_C@_06NGEKBNJP@10byte?$AA@ 0000000071100390     disassemble_shared.c.obj
 0002:00012398       ??_C@_05BIKDEPMJ@8byte?$AA@ 0000000071100398     disassemble_shared.c.obj
 0002:000123a0       ??_C@_05CCKJCOLJ@6byte?$AA@ 00000000711003a0     disassemble_shared.c.obj
 0002:000123a8       ??_C@_05GPGBIPLC@4byte?$AA@ 00000000711003a8     disassemble_shared.c.obj
 0002:000123b0       ??_C@_05LJDIGMKP@2byte?$AA@ 00000000711003b0     disassemble_shared.c.obj
 0002:000123b8       ??_C@_05DPKMBOAB@1byte?$AA@ 00000000711003b8     disassemble_shared.c.obj
 0002:000123c0       ??_C@_05BMEDMLEC@yword?$AA@ 00000000711003c0     disassemble_shared.c.obj
 0002:000123c8       ??_C@_05MJMMCKME@oword?$AA@ 00000000711003c8     disassemble_shared.c.obj
 0002:000123d0       ??_C@_05GADJIFNO@tbyte?$AA@ 00000000711003d0     disassemble_shared.c.obj
 0002:000123d8       ??_C@_05PABAEJCP@qword?$AA@ 00000000711003d8     disassemble_shared.c.obj
 0002:000123e0       ??_C@_05OOMDHLAM@fword?$AA@ 00000000711003e0     disassemble_shared.c.obj
 0002:000123e8       ??_C@_05KDALNKAH@dword?$AA@ 00000000711003e8     disassemble_shared.c.obj
 0002:000123f0       ??_C@_04EHIOMBPF@word?$AA@ 00000000711003f0     disassemble_shared.c.obj
 0002:000123f8       ??_C@_04IHGKJMLH@byte?$AA@ 00000000711003f8     disassemble_shared.c.obj
 0002:00012400       ??_C@_01OHGJGJJP@?$FL?$AA@ 0000000071100400     disassemble_shared.c.obj
 0002:00012408       ??_C@_08JLLGGCPE@?$CFs?5ptr?5?$FL?$AA@ 0000000071100408     disassemble_shared.c.obj
 0002:00012414       ??_C@_01LBDDMOBJ@?$FN?$AA@ 0000000071100414     disassemble_shared.c.obj
 0002:00012418       ??_C@_01PKGAHCOL@?$CJ?$AA@ 0000000071100418     disassemble_shared.c.obj
 0002:0001241c       ??_C@_01IHBHIGKO@?0?$AA@   000000007110041c     disassemble_shared.c.obj
 0002:00012420       ??_C@_01ODHLEDKK@?$CI?$AA@ 0000000071100420     disassemble_shared.c.obj
 0002:00012424       ??_C@_06BJBFBFHM@0x?$CF08x?$AA@ 0000000071100424     disassemble_shared.c.obj
 0002:0001242c       ??_C@_06BAAPOMBI@0x?$CF04x?$AA@ 000000007110042c     disassemble_shared.c.obj
 0002:00012434       ??_C@_06BEICJAKK@0x?$CF02x?$AA@ 0000000071100434     disassemble_shared.c.obj
 0002:0001243c       ??_C@_03LCLLABOE@?0?5?$CD?$AA@ 000000007110043c     disassemble_shared.c.obj
 0002:00012440       ??_C@_01MIFGBAGJ@?$CL?$AA@ 0000000071100440     disassemble_shared.c.obj
 0002:00012444       ??_C@_01JLIPDDHJ@?3?$AA@   0000000071100444     disassemble_shared.c.obj
 0002:00012448       ??_C@_0BA@LCMEPDAA@NULL?5DCONTEXT?$CB?5?$AA@ 0000000071100448     disassemble_shared.c.obj
 0002:00012458       ??_C@_0CM@KHNNDKAE@$0x?$CF016I64x?5?$DMentrance?5stub?5for?50@ 0000000071100458     disassemble_shared.c.obj
 0002:00012488       ??_C@_0CD@NAOAMEHM@$0x?$CF016I64x?5?$DMfragment?50x?$CF016I64x@ 0000000071100488     disassemble_shared.c.obj
 0002:000124b0       ??_C@_0BM@DOCBPPCJ@$0x?$CF016I64x?5?$DMexit?5stub?5?$CFd?$DO?5?$AA@ 00000000711004b0     disassemble_shared.c.obj
 0002:000124d0       ??_C@_0BF@CEMHKKCE@fcache_return_coarse?$AA@ 00000000711004d0     disassemble_shared.c.obj
 0002:000124e8       ??_C@_0BJ@PAPJPNGH@trace_head_return_coarse?$AA@ 00000000711004e8     disassemble_shared.c.obj
 0002:00012508       ??_C@_0BJ@PBNNDEEN@x86_fcache_return_coarse?$AA@ 0000000071100508     disassemble_shared.c.obj
 0002:00012528       ??_C@_0BN@HMOAMJE@x86_trace_head_return_coarse?$AA@ 0000000071100528     disassemble_shared.c.obj
 0002:00012548       ??_C@_0BC@NLPEJFEO@x86_fcache_return?$AA@ 0000000071100548     disassemble_shared.c.obj
 0002:00012560       ??_C@_0O@BEBHPGDB@fcache_return?$AA@ 0000000071100560     disassemble_shared.c.obj
 0002:00012570       ??_C@_0BC@NJLNMICA@$0x?$CF016I64x?5?$DM?$CFs?$DO?5?$AA@ 0000000071100570     disassemble_shared.c.obj
 0002:00012588       ??_C@_0BE@IEMFNECG@$0x?$CF016I64x?5?$DM?$CFs_?$CFs?$DO?$AA@ 0000000071100588     disassemble_shared.c.obj
 0002:000125a0       ??_C@_0BM@IEJNMPOP@x86_unlinked_shared_syscall?$AA@ 00000000711005a0     disassemble_shared.c.obj
 0002:000125c0       ??_C@_0BD@MJIKJIL@x86_shared_syscall?$AA@ 00000000711005c0     disassemble_shared.c.obj
 0002:000125d8       ??_C@_0BI@NBDLGBHL@unlinked_shared_syscall?$AA@ 00000000711005d8     disassemble_shared.c.obj
 0002:000125f0       ??_C@_0P@MMONCGEF@shared_syscall?$AA@ 00000000711005f0     disassemble_shared.c.obj
 0002:00012600       ??_C@_0CD@IEBAGGK@$0x?$CF016I64x?5?$DMexit_dynamorio_hook@ 0000000071100600     disassemble_shared.c.obj
 0002:00012628       ??_C@_0CE@HDPPDHCF@$0x?$CF016I64x?5?$DMenter_dynamorio_hoo@ 0000000071100628     disassemble_shared.c.obj
 0002:0001264c       ??_C@_04LIFAFMCE@?$FL?$CFs?$FN?$AA@ 000000007110064c     disassemble_shared.c.obj
 0002:00012658       ??_C@_0BI@GEFINPJD@UNKNOWN?5OPERAND?5TYPE?5?$CFd?$AA@ 0000000071100658     disassemble_shared.c.obj
 0002:00012670       ??_C@_0N@PDGKGAIP@0x?$CF016I64x?$CFs?$AA@ 0000000071100670     disassemble_shared.c.obj
 0002:00012680       ??_C@_06NAOJBPND@?$DMrel?$DO?5?$AA@ 0000000071100680     disassemble_shared.c.obj
 0002:00012688       ??_C@_0BE@KJLAAGKN@?$DMre?$DO?5?$EA0x?$CF016I64x?$CL?$CFd?$AA@ 0000000071100688     disassemble_shared.c.obj
 0002:000126a0       ??_C@_0BD@GPPKPMCH@0x?$CF04x?3?$EA0x?$CF016I64x?$AA@ 00000000711006a0     disassemble_shared.c.obj
 0002:000126b8       ??_C@_0M@KMAGPNCA@?$EA0x?$CF016I64x?$AA@ 00000000711006b8     disassemble_shared.c.obj
 0002:000126c8       ??_C@_0BC@HMLIJLKO@0x?$CF04x?30x?$CF016I64x?$AA@ 00000000711006c8     disassemble_shared.c.obj
 0002:000126e0       ??_C@_0N@BFEBGBNP@?$CFs0x?$CF016I64x?$AA@ 00000000711006e0     disassemble_shared.c.obj
 0002:000126f0       ??_C@_0M@KCAANBO@?$CFs?$CFs?$CFu?4?$CF?46u?$AA@ 00000000711006f0     disassemble_shared.c.obj
 0002:00012700       ??_C@_0P@OAKKDCDB@?$CFs?$CFs0x?$CF016I64x?$AA@ 0000000071100700     disassemble_shared.c.obj
 0002:00012710       ??_C@_0L@OPPCDHHP@?$CFs?$CFs0x?$CF08x?$AA@ 0000000071100710     disassemble_shared.c.obj
 0002:00012720       ??_C@_0L@OGOIMOBL@?$CFs?$CFs0x?$CF04x?$AA@ 0000000071100720     disassemble_shared.c.obj
 0002:00012730       ??_C@_0L@OCGFLCKJ@?$CFs?$CFs0x?$CF02x?$AA@ 0000000071100730     disassemble_shared.c.obj
 0002:0001273c       ??_C@_06DNBMMMHL@?$CFs?$CFs?$CFd?$AA@ 000000007110073c     disassemble_shared.c.obj
 0002:00012748       ??_C@_09OJNEAJGG@?$DMINVALID?$DO?$AA@ 0000000071100748     disassemble_shared.c.obj
 0002:00012754       ??_C@_03PNJEBBD@?5?9?$DO?$AA@ 0000000071100754     disassemble_shared.c.obj
 0002:00012758       ??_C@_01PPODPGHN@?$DO?$AA@ 0000000071100758     disassemble_shared.c.obj
 0002:0001275c       ??_C@_04IBCFJNCN@?5?4?4?4?$AA@ 000000007110075c     disassemble_shared.c.obj
 0002:00012764       ??_C@_05HAJCMBLP@?5?$CF02x?$AA@ 0000000071100764     disassemble_shared.c.obj
 0002:00012770       ??_C@_0BO@BAOLHPBF@?$DMraw?50x?$CF016I64x?90x?$CF016I64x?5?$DN?$DN?$AA@ 0000000071100770     disassemble_shared.c.obj
 0002:00012790       ??_C@_05HEMIBJDB@?$DMRAW?$DO?$AA@ 0000000071100790     disassemble_shared.c.obj
 0002:00012798       ??_C@_07CIADJGOP@?$DMlabel?$DO?$AA@ 0000000071100798     disassemble_shared.c.obj
 0002:000127a0       ??_C@_09EEKGDCPH@?$DMunknown?$DO?$AA@ 00000000711007a0     disassemble_shared.c.obj
 0002:000127b0       ??_C@_0BM@IFFBFDNH@fall?9through?1speculated?1IAT?$AA@ 00000000711007b0     disassemble_shared.c.obj
 0002:000127d0       ??_C@_07CJPOFOKO@jmp?1jcc?$AA@ 00000000711007d0     disassemble_shared.c.obj
 0002:000127d8       ??_C@_04OMFAIDPG@call?$AA@ 00000000711007d8     disassemble_shared.c.obj
 0002:000127e0       ??_C@_0O@IAFFMNCE@?5?$DM?$CFs?$CL0x?$CFI64x?$DO?$AA@ 00000000711007e0     disassemble_shared.c.obj
 0002:000127f0       ??_C@_0CE@PPOFDFKC@mod?$DN?$CC0x?$CF016I64x?$CC?5offs?$DN?$CC0x?$CF016I64@ 00000000711007f0     disassemble_shared.c.obj
 0002:00012818       ??_C@_0BA@CBAHIOFG@?7?$DM?1call?9stack?$DO?6?$AA@ 0000000071100818     disassemble_shared.c.obj
 0002:00012828       ??_C@_0P@BEBMDLBD@0x?$CF016I64x?5?$CFs?5?$AA@ 0000000071100828     disassemble_shared.c.obj
 0002:00012838       ??_C@_0BM@OLFDLLMP@ret?$DN?$CC0x?$CF016I64x?$CC?5name?$DN?$CC?$CFs?$CC?5?$AA@ 0000000071100838     disassemble_shared.c.obj
 0002:00012858       ??_C@_0CM@HKLEMNJ@frame?5ptr?50x?$CF016I64x?5?$DN?$DO?5parent?50@ 0000000071100858     disassemble_shared.c.obj
 0002:00012884       ??_C@_01GPOEFGEJ@?7?$AA@   0000000071100884     disassemble_shared.c.obj
 0002:00012888       ??_C@_02NOKNKGCL@?7?7?$AA@ 0000000071100888     disassemble_shared.c.obj
 0002:00012890       ??_C@_0CN@LBHLOLAO@?$DMframe?5ptr?$DN?$CC0x?$CF016I64x?$CC?5parent?$DN?$CC@ 0000000071100890     disassemble_shared.c.obj
 0002:000128c0       ??_C@_03PCPALPJL@?1?$DO?6?$AA@ 00000000711008c0     disassemble_shared.c.obj
 0002:000128c8       ??_C@_0BA@PCAPHNHP@?70x?$CF016I64x?5?$CFs?5?$AA@ 00000000711008c8     disassemble_shared.c.obj
 0002:000128d8       ??_C@_0CF@GBPAFNMH@?7?$DMcurrent_pc?$DN?$CC0x?$CF016I64x?$CC?5name?$DN?$CC@ 00000000711008d8     disassemble_shared.c.obj
 0002:00012900       ??_C@_0N@EICJENDK@Call?5stack?3?6?$AA@ 0000000071100900     disassemble_shared.c.obj
 0002:00012910       ??_C@_0P@CCOHMONH@?7?$DMcall?9stack?$DO?6?$AA@ 0000000071100910     disassemble_shared.c.obj
 0002:00012920       ??_C@_04ELGFDNCO@?$CF21s?$AA@ 0000000071100920     disassemble_shared.c.obj
 0002:00012928       ??_C@_0O@LDBOJPFE@?5?50x?$CF016I64x?5?$AA@ 0000000071100928     disassemble_shared.c.obj
 0002:00012940       ??_C@_0EB@KNPMPJGO@?5?5?9?9?9?9?9?9?9?9?5original?5code?5?$CIfrom?50@ 0000000071100940     disassemble_shared.c.obj
 0002:00012988       ??_C@_0CI@IJMKLHPO@?5?5?$DMno?5stub?5needed?3?5?9no_indirect_@ 0000000071100988     disassemble_shared.c.obj
 0002:000129b0       ??_C@_0CC@GBIHKLLI@?5?5?$DMno?5stub?5created?5since?5linked?$DO@ 00000000711009b0     disassemble_shared.c.obj
 0002:000129d8       ??_C@_0CF@HPIEBBAE@?5?5?$DMno?5stub?5since?5linked?5and?5froz@ 00000000711009d8     disassemble_shared.c.obj
 0002:00012a00       ??_C@_0BP@LNAKNBLI@?5?5?$DMno?5final?5jmp?5since?5elided?$DO?6?$AA@ 0000000071100a00     disassemble_shared.c.obj
 0002:00012a20       ??_C@_0EB@HMBNDPOK@?5?5?9?9?9?9?9?9?9?9?5exit?5stub?5?$CFd?3?5?9?9?9?9?9?9?9@ 0000000071100a20     disassemble_shared.c.obj
 0002:00012a68       ??_C@_0CD@HPPLEOBM@?5?5?9?9?9?9?9?9?9?9?5normal?5entry?3?5?9?9?9?9?9?9?9@ 0000000071100a68     disassemble_shared.c.obj
 0002:00012a90       ??_C@_0CD@NHHMOCM@?5?5?9?9?9?9?9?9?9?9?5prefix?5entry?3?5?9?9?9?9?9?9?9@ 0000000071100a90     disassemble_shared.c.obj
 0002:00012ab8       ??_C@_0DD@DJLNGJOI@?5?5?9?9?9?9?9?9?9?9?5indirect?5branch?5targe@ 0000000071100ab8     disassemble_shared.c.obj
 0002:00012af0       ??_C@_08PGFIAMJK@32?9bit?0?5?$AA@ 0000000071100af0     disassemble_shared.c.obj
 0002:00012b00       ??_C@_0DL@CIPCJCNG@Fragment?5tag?50x?$CF016I64x?0?5flags?50@ 0000000071100b00     disassemble_shared.c.obj
 0002:00012b40       ??_C@_08IKBAJLE@coarse?0?5?$AA@ 0000000071100b40     disassemble_shared.c.obj
 0002:00012b50       ??_C@_0BC@BDIEABHH@?0?5cannot?5be?5trace?$AA@ 0000000071100b50     disassemble_shared.c.obj
 0002:00012b68       ??_C@_0BB@BGNFGEBP@?0?5must?5end?5trace?$AA@ 0000000071100b68     disassemble_shared.c.obj
 0002:00012b80       ??_C@_0BA@IDNJBCPO@?0?5cannot?5delete?$AA@ 0000000071100b80     disassemble_shared.c.obj
 0002:00012b90       ??_C@_09BDKEKBCE@private?0?5?$AA@ 0000000071100b90     disassemble_shared.c.obj
 0002:00012ba0       ??_C@_0P@IEKINMO@private?5temp?0?5?$AA@ 0000000071100ba0     disassemble_shared.c.obj
 0002:00012bb0       ??_C@_08PJLIEHJL@shared?0?5?$AA@ 0000000071100bb0     disassemble_shared.c.obj
 0002:00012bc0       ??_C@_0M@JCENCNDN@tracehead?0?5?$AA@ 0000000071100bc0     disassemble_shared.c.obj
 0002:00012bd0       ??_C@_07HMCBDDIL@trace?0?5?$AA@ 0000000071100bd0     disassemble_shared.c.obj
 0002:00012bd8       ??_C@_0BB@NCOKPLDN@END?50x?$CF016I64x?6?6?$AA@ 0000000071100bd8     disassemble_shared.c.obj
 0002:00012bf0       ??_C@_0CA@LKBLPCPD@?5?5?5?5?5?5?5?5?5?5?5?5?5?5?5?5?5?5?5?5?5?5?5?5?5?5?5?5?5?5?5?$AA@ 0000000071100bf0     disassemble_shared.c.obj
 0002:00012c10       ??_C@_04PCBLDAHM@?$CF30s?$AA@ 0000000071100c10     disassemble_shared.c.obj
 0002:00012c18       ??_C@_0BB@IIKAJAAL@?5?$CL?$CF?94d?5?$CFc?$CFd?5?$CF20s?$AA@ 0000000071100c18     disassemble_shared.c.obj
 0002:00012c30       ??_C@_0BJ@BHLCBOMH@?5?$CL?$CF?94d?5?$CFc?$CFd?5?$EA0x?$CF016I64x?5?$AA@ 0000000071100c30     disassemble_shared.c.obj
 0002:00012c50       ??_C@_0BB@CMNCBDEM@TAG?5?50x?$CF016I64x?6?$AA@ 0000000071100c50     disassemble_shared.c.obj
 0002:00012c64       ??_C@_03NDEAONJP@?5?5?5?$AA@ 0000000071100c64     disassemble.c.obj
 0002:00012c68       ??_C@_06KMLNPJJL@?4?4?4?$DP?$DP?5?$AA@ 0000000071100c68     disassemble.c.obj
 0002:00012c70       ??_C@_03LEIBKMN@?0?$CFd?$AA@ 0000000071100c70     disassemble.c.obj
 0002:00012c74       ??_C@_03COCDEFBB@?$CK?$CFd?$AA@ 0000000071100c74     disassemble.c.obj
 0002:00012c78       ??_C@_02KEGNLNML@?0?5?$AA@ 0000000071100c78     disassemble.c.obj
 0002:00012c80       ??_C@_07NKIAEOP@vpinsrq?$AA@ 0000000071100c80     disassemble.c.obj
 0002:00012c88       ??_C@_06JPNJJMOP@pinsrq?$AA@ 0000000071100c88     disassemble.c.obj
 0002:00012c90       ??_C@_07IBNJOAP@vpextrq?$AA@ 0000000071100c90     disassemble.c.obj
 0002:00012c98       ??_C@_06JKGMAGAP@pextrq?$AA@ 0000000071100c98     disassemble.c.obj
 0002:00012ca0       ??_C@_05MCOBDBLG@jrcxz?$AA@ 0000000071100ca0     disassemble.c.obj
 0002:00012ca8       ??_C@_03OFBABGAB@jmp?$AA@  0000000071100ca8     disassemble.c.obj
 0002:00012cac       ??_C@_04NGGILANB@retf?$AA@ 0000000071100cac     disassemble.c.obj
 0002:00012cb4       ??_C@_01HHGOMJKL@l?$AA@    0000000071100cb4     disassemble.c.obj
 0002:00012cb8       ??_C@_01IIACKFLH@q?$AA@    0000000071100cb8     disassemble.c.obj
 0002:00012cbc       ??_C@_01LPLHEDKD@d?$AA@    0000000071100cbc     disassemble.c.obj
 0002:00012cc0       ??_C@_01NOFIACDB@w?$AA@    0000000071100cc0     disassemble.c.obj
 0002:00012cc4       ??_C@_01OJONOECF@b?$AA@    0000000071100cc4     disassemble.c.obj
 0002:00012cc8       ??_C@_07BEOHDEOC@addr16?5?$AA@ 0000000071100cc8     disassemble.c.obj
 0002:00012cd0       ??_C@_07LJOHFELF@addr32?5?$AA@ 0000000071100cd0     disassemble.c.obj
 0002:00012cd8       ??_C@_07CKKJPKOI@data16?5?$AA@ 0000000071100cd8     disassemble.c.obj
 0002:00012ce0       ??_C@_05NCPMCJGP@lock?5?$AA@ 0000000071100ce0     disassemble.c.obj
 0002:00012ce8       ??_C@_09KNNKNDPH@xrelease?5?$AA@ 0000000071100ce8     disassemble.c.obj
 0002:00012cf8       ??_C@_09HDOLHHPF@xacquire?5?$AA@ 0000000071100cf8     disassemble.c.obj
 0002:00012d04       ??_C@_03BMIEFNHL@xop?$AA@  0000000071100d04     decode_table.c.obj
 0002:00012d08       ??_C@_0L@HLDONIFG@?$CIgroup?51d?$CJ?$AA@ 0000000071100d08     decode_table.c.obj
 0002:00012d20       extra_operands             0000000071100d20     decode_table.c.obj
 0002:00012f50       second_byte                0000000071100f50     decode_table.c.obj
 0002:00015750       extensions                 0000000071103750     decode_table.c.obj
 0002:00017f50       first_byte                 0000000071105f50     decode_table.c.obj
 0002:0001a750       x64_extensions             0000000071108750     decode_table.c.obj
 0002:0001aca0       vex_prefix_extensions      0000000071108ca0     decode_table.c.obj
 0002:0001ad40       vex_extensions             0000000071108d40     decode_table.c.obj
 0002:0001c5f0       vex_W_extensions           000000007110a5f0     decode_table.c.obj
 0002:0001dd10       xop_extensions             000000007110bd10     decode_table.c.obj
 0002:0001e6f0       prefix_extensions          000000007110c6f0     decode_table.c.obj
 0002:00029af0       vex_L_extensions           0000000071117af0     decode_table.c.obj
 0002:00029b70       mod_extensions             0000000071117b70     decode_table.c.obj
 0002:0002a1b0       rex_w_extensions           00000000711181b0     decode_table.c.obj
 0002:0002a340       rex_b_extensions           0000000071118340     decode_table.c.obj
 0002:0002a390       rep_extensions             0000000071118390     decode_table.c.obj
 0002:0002a9d0       repne_extensions           00000000711189d0     decode_table.c.obj
 0002:0002ad90       float_high_modrm           0000000071118d90     decode_table.c.obj
 0002:0002fd90       float_low_modrm            000000007111dd90     decode_table.c.obj
 0002:00030790       rm_extensions              000000007111e790     decode_table.c.obj
 0002:00030dd0       suffix_extensions          000000007111edd0     decode_table.c.obj
 0002:000311c0       third_byte_38              000000007111f1c0     decode_table.c.obj
 0002:00032480       third_byte_3a              0000000071120480     decode_table.c.obj
 0002:00032e60       op_instr                   0000000071120e60     decode_table.c.obj
 0002:000350e0       xop_prefix_extensions      00000000711230e0     decode_table.c.obj
 0002:00035130       third_byte_38_index        0000000071123130     decode_table.c.obj
 0002:00035230       third_byte_3a_index        0000000071123230     decode_table.c.obj
 0002:00035330       xop_8_index                0000000071123330     decode_table.c.obj
 0002:00035430       xop_9_index                0000000071123430     decode_table.c.obj
 0002:00035530       xop_a_index                0000000071123530     decode_table.c.obj
 0002:00035630       suffix_index               0000000071123630     decode_table.c.obj
 0002:00035730       ??_C@_0L@MDDBINED@vperm2i128?$AA@ 0000000071123730     decode_table.c.obj
 0002:00035740       ??_C@_08JBGEOHCB@vpblendd?$AA@ 0000000071123740     decode_table.c.obj
 0002:00035750       ??_C@_07FLINKMMB@vpermpd?$AA@ 0000000071123750     decode_table.c.obj
 0002:00035758       ??_C@_06MGEILP@vpermq?$AA@ 0000000071123758     decode_table.c.obj
 0002:00035760       ??_C@_0N@OFBEMCEM@vextracti128?$AA@ 0000000071123760     decode_table.c.obj
 0002:00035770       ??_C@_0M@PNEOFJBN@vinserti128?$AA@ 0000000071123770     decode_table.c.obj
 0002:0003577c       ??_C@_04GJBJBDNI@rorx?$AA@ 000000007112377c     decode_table.c.obj
 0002:00035788       ??_C@_0P@NLHABBGI@?$CIvex_W?5ext?565?$CJ?$AA@ 0000000071123788     decode_table.c.obj
 0002:00035798       ??_C@_0P@NKLCHLFP@?$CIvex_W?5ext?564?$CJ?$AA@ 0000000071123798     decode_table.c.obj
 0002:000357a8       ??_C@_0P@HIGDCAIH@?$CIvex_W?5ext?549?$CJ?$AA@ 00000000711237a8     decode_table.c.obj
 0002:000357b8       ??_C@_0P@HJKBEKLA@?$CIvex_W?5ext?548?$CJ?$AA@ 00000000711237b8     decode_table.c.obj
 0002:000357c8       ??_C@_0P@HCPNANIN@?$CIvex_W?5ext?547?$CJ?$AA@ 00000000711237c8     decode_table.c.obj
 0002:000357d8       ??_C@_0P@HDDPGHLK@?$CIvex_W?5ext?546?$CJ?$AA@ 00000000711237d8     decode_table.c.obj
 0002:000357e8       ??_C@_0P@HBHJNJOD@?$CIvex_W?5ext?545?$CJ?$AA@ 00000000711237e8     decode_table.c.obj
 0002:000357f8       ??_C@_0P@HALLLDNE@?$CIvex_W?5ext?544?$CJ?$AA@ 00000000711237f8     decode_table.c.obj
 0002:00035808       ??_C@_0P@HFPEKFFB@?$CIvex_W?5ext?543?$CJ?$AA@ 0000000071123808     decode_table.c.obj
 0002:00035818       ??_C@_0P@HEDGMPGG@?$CIvex_W?5ext?542?$CJ?$AA@ 0000000071123818     decode_table.c.obj
 0002:00035828       ??_C@_0P@HGHAHBDP@?$CIvex_W?5ext?541?$CJ?$AA@ 0000000071123828     decode_table.c.obj
 0002:00035838       ??_C@_0P@HHLCBLAI@?$CIvex_W?5ext?540?$CJ?$AA@ 0000000071123838     decode_table.c.obj
 0002:00035848       ??_C@_0P@OFLEBIDO@?$CIvex_W?5ext?539?$CJ?$AA@ 0000000071123848     decode_table.c.obj
 0002:00035858       ??_C@_0P@OEHGHCAJ@?$CIvex_W?5ext?538?$CJ?$AA@ 0000000071123858     decode_table.c.obj
 0002:00035868       ??_C@_0P@OPCKDFDE@?$CIvex_W?5ext?537?$CJ?$AA@ 0000000071123868     decode_table.c.obj
 0002:00035878       ??_C@_0P@OOOIFPAD@?$CIvex_W?5ext?536?$CJ?$AA@ 0000000071123878     decode_table.c.obj
 0002:00035888       ??_C@_0P@OMKOOBFK@?$CIvex_W?5ext?535?$CJ?$AA@ 0000000071123888     decode_table.c.obj
 0002:00035898       ??_C@_0P@ONGMILGN@?$CIvex_W?5ext?534?$CJ?$AA@ 0000000071123898     decode_table.c.obj
 0002:000358a8       ??_C@_0P@OICDJNOI@?$CIvex_W?5ext?533?$CJ?$AA@ 00000000711238a8     decode_table.c.obj
 0002:000358b8       ??_C@_0P@OJOBPHNP@?$CIvex_W?5ext?532?$CJ?$AA@ 00000000711238b8     decode_table.c.obj
 0002:000358c8       ??_C@_0P@OLKHEJIG@?$CIvex_W?5ext?531?$CJ?$AA@ 00000000711238c8     decode_table.c.obj
 0002:000358d8       ??_C@_0P@OKGFCDLB@?$CIvex_W?5ext?530?$CJ?$AA@ 00000000711238d8     decode_table.c.obj
 0002:000358e8       ??_C@_0N@ILMPOONF@?$CIvex?5ext?576?$CJ?$AA@ 00000000711238e8     decode_table.c.obj
 0002:000358f8       ??_C@_0N@IJIJFAIM@?$CIvex?5ext?575?$CJ?$AA@ 00000000711238f8     decode_table.c.obj
 0002:00035908       ??_C@_0N@IIELDKLL@?$CIvex?5ext?574?$CJ?$AA@ 0000000071123908     decode_table.c.obj
 0002:00035918       ??_C@_0N@INAECMDO@?$CIvex?5ext?573?$CJ?$AA@ 0000000071123918     decode_table.c.obj
 0002:00035928       ??_C@_0N@IMMGEGAJ@?$CIvex?5ext?572?$CJ?$AA@ 0000000071123928     decode_table.c.obj
 0002:00035938       ??_C@_0N@IOIAPIFA@?$CIvex?5ext?571?$CJ?$AA@ 0000000071123938     decode_table.c.obj
 0002:00035948       ??_C@_0N@EBAICJCP@?$CIvex?5ext?5?52?$CJ?$AA@ 0000000071123948     decode_table.c.obj
 0002:00035958       ??_C@_0N@EDEOJHHG@?$CIvex?5ext?5?51?$CJ?$AA@ 0000000071123958     decode_table.c.obj
 0002:00035968       ??_C@_0N@ECIMPNEB@?$CIvex?5ext?5?50?$CJ?$AA@ 0000000071123968     decode_table.c.obj
 0002:00035978       ??_C@_0N@CLFIALFE@?$CIvex?5ext?558?$CJ?$AA@ 0000000071123978     decode_table.c.obj
 0002:00035988       ??_C@_0N@CAAEEMGJ@?$CIvex?5ext?557?$CJ?$AA@ 0000000071123988     decode_table.c.obj
 0002:00035998       ??_C@_0N@CBMGCGFO@?$CIvex?5ext?556?$CJ?$AA@ 0000000071123998     decode_table.c.obj
 0002:000359a8       ??_C@_0N@CDIAJIAH@?$CIvex?5ext?555?$CJ?$AA@ 00000000711239a8     decode_table.c.obj
 0002:000359b8       ??_C@_0N@CCECPCDA@?$CIvex?5ext?554?$CJ?$AA@ 00000000711239b8     decode_table.c.obj
 0002:000359c8       ??_C@_0N@CHANOELF@?$CIvex?5ext?553?$CJ?$AA@ 00000000711239c8     decode_table.c.obj
 0002:000359d8       ??_C@_0N@CGMPIOIC@?$CIvex?5ext?552?$CJ?$AA@ 00000000711239d8     decode_table.c.obj
 0002:000359e8       ??_C@_0N@CEIJDANL@?$CIvex?5ext?551?$CJ?$AA@ 00000000711239e8     decode_table.c.obj
 0002:000359f8       ??_C@_0N@CFELFKOM@?$CIvex?5ext?550?$CJ?$AA@ 00000000711239f8     decode_table.c.obj
 0002:00035a08       ??_C@_0N@JCCGAGAG@?$CIvex?5ext?549?$CJ?$AA@ 0000000071123a08     decode_table.c.obj
 0002:00035a18       ??_C@_0N@JDOEGMDB@?$CIvex?5ext?548?$CJ?$AA@ 0000000071123a18     decode_table.c.obj
 0002:00035a28       ??_C@_0N@JILICLAM@?$CIvex?5ext?547?$CJ?$AA@ 0000000071123a28     decode_table.c.obj
 0002:00035a38       ??_C@_0N@JJHKEBDL@?$CIvex?5ext?546?$CJ?$AA@ 0000000071123a38     decode_table.c.obj
 0002:00035a48       ??_C@_0N@JLDMPPGC@?$CIvex?5ext?545?$CJ?$AA@ 0000000071123a48     decode_table.c.obj
 0002:00035a58       ??_C@_0N@JKPOJFFF@?$CIvex?5ext?544?$CJ?$AA@ 0000000071123a58     decode_table.c.obj
 0002:00035a68       ??_C@_0N@JPLBIDNA@?$CIvex?5ext?543?$CJ?$AA@ 0000000071123a68     decode_table.c.obj
 0002:00035a78       ??_C@_0N@JOHDOJOH@?$CIvex?5ext?542?$CJ?$AA@ 0000000071123a78     decode_table.c.obj
 0002:00035a88       ??_C@_0N@JMDFFHLO@?$CIvex?5ext?541?$CJ?$AA@ 0000000071123a88     decode_table.c.obj
 0002:00035a98       ??_C@_0N@JNPHDNIJ@?$CIvex?5ext?540?$CJ?$AA@ 0000000071123a98     decode_table.c.obj
 0002:00035aa8       ??_C@_0N@PPBDOLP@?$CIvex?5ext?539?$CJ?$AA@ 0000000071123aa8     decode_table.c.obj
 0002:00035ab8       ??_C@_0N@ODDFEII@?$CIvex?5ext?538?$CJ?$AA@ 0000000071123ab8     decode_table.c.obj
 0002:00035ac8       ??_C@_0N@FGPBDLF@?$CIvex?5ext?537?$CJ?$AA@ 0000000071123ac8     decode_table.c.obj
 0002:00035ad8       ??_C@_0N@EKNHJIC@?$CIvex?5ext?536?$CJ?$AA@ 0000000071123ad8     decode_table.c.obj
 0002:00035ae8       ??_C@_0BB@PNEOBEKB@?$CIprefix?5ext?5133?$CJ?$AA@ 0000000071123ae8     decode_table.c.obj
 0002:00035b00       ??_C@_0N@OCNCMDGK@vpbroadcastq?$AA@ 0000000071123b00     decode_table.c.obj
 0002:00035b10       ??_C@_0N@NFGHCFHO@vpbroadcastd?$AA@ 0000000071123b10     decode_table.c.obj
 0002:00035b20       ??_C@_0N@LEIIGEOM@vpbroadcastw?$AA@ 0000000071123b20     decode_table.c.obj
 0002:00035b30       ??_C@_0N@IDDNICPI@vpbroadcastb?$AA@ 0000000071123b30     decode_table.c.obj
 0002:00035b40       ??_C@_0P@GHEBAKLP@?$CIvex_W?5ext?573?$CJ?$AA@ 0000000071123b40     decode_table.c.obj
 0002:00035b50       ??_C@_07MAFJIOEN@vpsravd?$AA@ 0000000071123b50     decode_table.c.obj
 0002:00035b58       ??_C@_0P@GGIDGAII@?$CIvex_W?5ext?572?$CJ?$AA@ 0000000071123b58     decode_table.c.obj
 0002:00035b68       ??_C@_06DHHDKOKL@vpermd?$AA@ 0000000071123b68     decode_table.c.obj
 0002:00035b70       ??_C@_07FOAOCIFH@vpermps?$AA@ 0000000071123b70     decode_table.c.obj
 0002:00035b78       ??_C@_0P@GEMFNONB@?$CIvex_W?5ext?571?$CJ?$AA@ 0000000071123b78     decode_table.c.obj
 0002:00035b88       ??_C@_0P@GFAHLEOG@?$CIvex_W?5ext?570?$CJ?$AA@ 0000000071123b88     decode_table.c.obj
 0002:00035b98       ??_C@_0P@HAFIPBFO@vbroadcasti128?$AA@ 0000000071123b98     decode_table.c.obj
 0002:00035ba8       ??_C@_0P@NCGKOIAM@?$CIvex_W?5ext?569?$CJ?$AA@ 0000000071123ba8     decode_table.c.obj
 0002:00035bb8       ??_C@_0P@NDKIICDL@?$CIvex_W?5ext?568?$CJ?$AA@ 0000000071123bb8     decode_table.c.obj
 0002:00035bc8       ??_C@_0P@NIPEMFAG@?$CIvex_W?5ext?567?$CJ?$AA@ 0000000071123bc8     decode_table.c.obj
 0002:00035bd8       ??_C@_0P@NJDGKPDB@?$CIvex_W?5ext?566?$CJ?$AA@ 0000000071123bd8     decode_table.c.obj
 0002:00035be8       ??_C@_07MFFNKEEM@invpcid?$AA@ 0000000071123be8     decode_table.c.obj
 0002:00035bf0       ??_C@_0BB@GAJJCMBI@?$CIprefix?5ext?5143?$CJ?$AA@ 0000000071123bf0     decode_table.c.obj
 0002:00035c08       ??_C@_0BB@GBFLEGCP@?$CIprefix?5ext?5142?$CJ?$AA@ 0000000071123c08     decode_table.c.obj
 0002:00035c1c       ??_C@_04PCNGPDPK@andn?$AA@ 0000000071123c1c     decode_table.c.obj
 0002:00035c28       ??_C@_0L@BFMEEILP@?$CIgroup?517?$CJ?$AA@ 0000000071123c28     decode_table.c.obj
 0002:00035c38       ??_C@_0BB@GDBNPIHG@?$CIprefix?5ext?5141?$CJ?$AA@ 0000000071123c38     decode_table.c.obj
 0002:00035c50       ??_C@_0N@IBFBMDNP@?$CIvex?5ext?578?$CJ?$AA@ 0000000071123c50     decode_table.c.obj
 0002:00035c60       ??_C@_0N@IKANIEOC@?$CIvex?5ext?577?$CJ?$AA@ 0000000071123c60     decode_table.c.obj
 0002:00035c70       ??_C@_0N@IPECJCGH@?$CIvex?5ext?570?$CJ?$AA@ 0000000071123c70     decode_table.c.obj
 0002:00035c80       ??_C@_0N@DICPMOIN@?$CIvex?5ext?569?$CJ?$AA@ 0000000071123c80     decode_table.c.obj
 0002:00035c90       ??_C@_0N@DJONKELK@?$CIvex?5ext?568?$CJ?$AA@ 0000000071123c90     decode_table.c.obj
 0002:00035ca0       ??_C@_0N@DCLBODIH@?$CIvex?5ext?567?$CJ?$AA@ 0000000071123ca0     decode_table.c.obj
 0002:00035cb0       ??_C@_0N@DDHDIJLA@?$CIvex?5ext?566?$CJ?$AA@ 0000000071123cb0     decode_table.c.obj
 0002:00035cc0       ??_C@_0N@DBDFDHOJ@?$CIvex?5ext?565?$CJ?$AA@ 0000000071123cc0     decode_table.c.obj
 0002:00035cd0       ??_C@_0N@DAPHFNNO@?$CIvex?5ext?564?$CJ?$AA@ 0000000071123cd0     decode_table.c.obj
 0002:00035ce0       ??_C@_0N@DFLIELFL@?$CIvex?5ext?563?$CJ?$AA@ 0000000071123ce0     decode_table.c.obj
 0002:00035cf0       ??_C@_0P@FNAIHPFL@?$CIvex_W?5ext?529?$CJ?$AA@ 0000000071123cf0     decode_table.c.obj
 0002:00035d00       ??_C@_0P@FGFEDIGG@?$CIvex_W?5ext?526?$CJ?$AA@ 0000000071123d00     decode_table.c.obj
 0002:00035d10       ??_C@_0P@FAJPPKIN@?$CIvex_W?5ext?523?$CJ?$AA@ 0000000071123d10     decode_table.c.obj
 0002:00035d20       ??_C@_0P@FCNJEENE@?$CIvex_W?5ext?520?$CJ?$AA@ 0000000071123d20     decode_table.c.obj
 0002:00035d30       ??_C@_0P@EFCDPNLP@?$CIvex_W?5ext?517?$CJ?$AA@ 0000000071123d30     decode_table.c.obj
 0002:00035d40       ??_C@_0P@EHGFEDOG@?$CIvex_W?5ext?514?$CJ?$AA@ 0000000071123d40     decode_table.c.obj
 0002:00035d50       ??_C@_0P@KOACBJCL@?$CIvex_W?5ext?5?55?$CJ?$AA@ 0000000071123d50     decode_table.c.obj
 0002:00035d60       ??_C@_0P@KLENAPKO@?$CIvex_W?5ext?5?52?$CJ?$AA@ 0000000071123d60     decode_table.c.obj
 0002:00035d70       ??_C@_0P@EBKOIBAN@?$CIvex_W?5ext?511?$CJ?$AA@ 0000000071123d70     decode_table.c.obj
 0002:00035d80       ??_C@_0P@KGNKIKHI@?$CIvex_W?5ext?5?58?$CJ?$AA@ 0000000071123d80     decode_table.c.obj
 0002:00035d90       ??_C@_0P@FMMKBFGM@?$CIvex_W?5ext?528?$CJ?$AA@ 0000000071123d90     decode_table.c.obj
 0002:00035da0       ??_C@_0P@FEBCIGDP@?$CIvex_W?5ext?525?$CJ?$AA@ 0000000071123da0     decode_table.c.obj
 0002:00035db0       ??_C@_0P@FBFNJALK@?$CIvex_W?5ext?522?$CJ?$AA@ 0000000071123db0     decode_table.c.obj
 0002:00035dc0       ??_C@_0P@EPLNNALF@?$CIvex_W?5ext?519?$CJ?$AA@ 0000000071123dc0     decode_table.c.obj
 0002:00035dd0       ??_C@_0P@EEOBJHII@?$CIvex_W?5ext?516?$CJ?$AA@ 0000000071123dd0     decode_table.c.obj
 0002:00035de0       ??_C@_0P@ECCKFFGD@?$CIvex_W?5ext?513?$CJ?$AA@ 0000000071123de0     decode_table.c.obj
 0002:00035df0       ??_C@_0P@KPMAHDBM@?$CIvex_W?5ext?5?54?$CJ?$AA@ 0000000071123df0     decode_table.c.obj
 0002:00035e00       ??_C@_0P@KJALLBPH@?$CIvex_W?5ext?5?51?$CJ?$AA@ 0000000071123e00     decode_table.c.obj
 0002:00035e10       ??_C@_0P@EAGMOLDK@?$CIvex_W?5ext?510?$CJ?$AA@ 0000000071123e10     decode_table.c.obj
 0002:00035e20       ??_C@_0P@KNIGMNEF@?$CIvex_W?5ext?5?57?$CJ?$AA@ 0000000071123e20     decode_table.c.obj
 0002:00035e30       ??_C@_0P@FHJGFCFB@?$CIvex_W?5ext?527?$CJ?$AA@ 0000000071123e30     decode_table.c.obj
 0002:00035e40       ??_C@_0P@FFNAOMAI@?$CIvex_W?5ext?524?$CJ?$AA@ 0000000071123e40     decode_table.c.obj
 0002:00035e50       ??_C@_0P@FDBLCOOD@?$CIvex_W?5ext?521?$CJ?$AA@ 0000000071123e50     decode_table.c.obj
 0002:00035e60       ??_C@_0P@EOHPLKIC@?$CIvex_W?5ext?518?$CJ?$AA@ 0000000071123e60     decode_table.c.obj
 0002:00035e70       ??_C@_0P@EGKHCJNB@?$CIvex_W?5ext?515?$CJ?$AA@ 0000000071123e70     decode_table.c.obj
 0002:00035e80       ??_C@_0P@EDOIDPFE@?$CIvex_W?5ext?512?$CJ?$AA@ 0000000071123e80     decode_table.c.obj
 0002:00035e90       ??_C@_0P@KKIPGFJJ@?$CIvex_W?5ext?5?53?$CJ?$AA@ 0000000071123e90     decode_table.c.obj
 0002:00035ea0       ??_C@_0P@KIMJNLMA@?$CIvex_W?5ext?5?50?$CJ?$AA@ 0000000071123ea0     decode_table.c.obj
 0002:00035eb0       ??_C@_0P@KHBIOAEP@?$CIvex_W?5ext?5?59?$CJ?$AA@ 0000000071123eb0     decode_table.c.obj
 0002:00035ec0       ??_C@_0P@KMEEKHHC@?$CIvex_W?5ext?5?56?$CJ?$AA@ 0000000071123ec0     decode_table.c.obj
 0002:00035ed0       ??_C@_0N@DHPOPFAC@?$CIvex?5ext?560?$CJ?$AA@ 0000000071123ed0     decode_table.c.obj
 0002:00035ee0       ??_C@_0N@CKJKGBGD@?$CIvex?5ext?559?$CJ?$AA@ 0000000071123ee0     decode_table.c.obj
 0002:00035ef0       ??_C@_0N@GOLMHNL@?$CIvex?5ext?535?$CJ?$AA@ 0000000071123ef0     decode_table.c.obj
 0002:00035f00       ??_C@_0N@HCJKNOM@?$CIvex?5ext?534?$CJ?$AA@ 0000000071123f00     decode_table.c.obj
 0002:00035f10       ??_C@_0N@CGGLLGJ@?$CIvex?5ext?533?$CJ?$AA@ 0000000071123f10     decode_table.c.obj
 0002:00035f20       ??_C@_0N@DKENBFO@?$CIvex?5ext?532?$CJ?$AA@ 0000000071123f20     decode_table.c.obj
 0002:00035f30       ??_C@_0N@BOCGPAH@?$CIvex?5ext?531?$CJ?$AA@ 0000000071123f30     decode_table.c.obj
 0002:00035f40       ??_C@_07ILBKJJN@invvpid?$AA@ 0000000071123f40     decode_table.c.obj
 0002:00035f48       ??_C@_06CLILIBGB@invept?$AA@ 0000000071123f48     decode_table.c.obj
 0002:00035f50       ??_C@_0BB@PANJJBHH@?$CIprefix?5ext?5139?$CJ?$AA@ 0000000071123f50     decode_table.c.obj
 0002:00035f68       ??_C@_0BB@PBBLPLEA@?$CIprefix?5ext?5138?$CJ?$AA@ 0000000071123f68     decode_table.c.obj
 0002:00035f80       ??_C@_0N@CAAFDA@?$CIvex?5ext?530?$CJ?$AA@ 0000000071123f80     decode_table.c.obj
 0002:00035f90       ??_C@_0N@LHENFJNK@?$CIvex?5ext?529?$CJ?$AA@ 0000000071123f90     decode_table.c.obj
 0002:00035fa0       ??_C@_0N@LGIPDDON@?$CIvex?5ext?528?$CJ?$AA@ 0000000071123fa0     decode_table.c.obj
 0002:00035fb0       ??_C@_0N@LNNDHENA@?$CIvex?5ext?527?$CJ?$AA@ 0000000071123fb0     decode_table.c.obj
 0002:00035fc0       ??_C@_0N@LMBBBOOH@?$CIvex?5ext?526?$CJ?$AA@ 0000000071123fc0     decode_table.c.obj
 0002:00035fd0       ??_C@_0N@LOFHKALO@?$CIvex?5ext?525?$CJ?$AA@ 0000000071123fd0     decode_table.c.obj
 0002:00035fe0       ??_C@_0N@LPJFMKIJ@?$CIvex?5ext?524?$CJ?$AA@ 0000000071123fe0     decode_table.c.obj
 0002:00035ff0       ??_C@_0N@LKNKNMAM@?$CIvex?5ext?523?$CJ?$AA@ 0000000071123ff0     decode_table.c.obj
 0002:00036000       ??_C@_0N@LLBILGDL@?$CIvex?5ext?522?$CJ?$AA@ 0000000071124000     decode_table.c.obj
 0002:00036010       ??_C@_0N@LJFOAIGC@?$CIvex?5ext?521?$CJ?$AA@ 0000000071124010     decode_table.c.obj
 0002:00036020       ??_C@_0N@LIJMGCFF@?$CIvex?5ext?520?$CJ?$AA@ 0000000071124020     decode_table.c.obj
 0002:00036030       ??_C@_0N@KFPIPGDE@?$CIvex?5ext?519?$CJ?$AA@ 0000000071124030     decode_table.c.obj
 0002:00036040       ??_C@_0N@KEDKJMAD@?$CIvex?5ext?518?$CJ?$AA@ 0000000071124040     decode_table.c.obj
 0002:00036050       ??_C@_0N@KPGGNLDO@?$CIvex?5ext?517?$CJ?$AA@ 0000000071124050     decode_table.c.obj
 0002:00036060       ??_C@_0N@KOKELBAJ@?$CIvex?5ext?516?$CJ?$AA@ 0000000071124060     decode_table.c.obj
 0002:00036070       ??_C@_0N@KMOCAPFA@?$CIvex?5ext?515?$CJ?$AA@ 0000000071124070     decode_table.c.obj
 0002:00036080       ??_C@_0N@KNCAGFGH@?$CIvex?5ext?514?$CJ?$AA@ 0000000071124080     decode_table.c.obj
 0002:00036090       ??_C@_0N@KIGPHDOC@?$CIvex?5ext?513?$CJ?$AA@ 0000000071124090     decode_table.c.obj
 0002:000360a0       ??_C@_0N@KJKNBJNF@?$CIvex?5ext?512?$CJ?$AA@ 00000000711240a0     decode_table.c.obj
 0002:000360b0       ??_C@_0N@KLOLKHIM@?$CIvex?5ext?511?$CJ?$AA@ 00000000711240b0     decode_table.c.obj
 0002:000360c0       ??_C@_0N@KKCJMNLL@?$CIvex?5ext?510?$CJ?$AA@ 00000000711240c0     decode_table.c.obj
 0002:000360d0       ??_C@_0N@ENFNMGMO@?$CIvex?5ext?5?59?$CJ?$AA@ 00000000711240d0     decode_table.c.obj
 0002:000360e0       ??_C@_0N@EMJPKMPJ@?$CIvex?5ext?5?58?$CJ?$AA@ 00000000711240e0     decode_table.c.obj
 0002:000360f0       ??_C@_0N@EHMDOLME@?$CIvex?5ext?5?57?$CJ?$AA@ 00000000711240f0     decode_table.c.obj
 0002:00036100       ??_C@_0N@EGABIBPD@?$CIvex?5ext?5?56?$CJ?$AA@ 0000000071124100     decode_table.c.obj
 0002:00036110       ??_C@_0N@EEEHDPKK@?$CIvex?5ext?5?55?$CJ?$AA@ 0000000071124110     decode_table.c.obj
 0002:00036120       ??_C@_0N@EFIFFFJN@?$CIvex?5ext?5?54?$CJ?$AA@ 0000000071124120     decode_table.c.obj
 0002:00036130       ??_C@_0N@EAMKEDBI@?$CIvex?5ext?5?53?$CJ?$AA@ 0000000071124130     decode_table.c.obj
 0002:00036140       ??_C@_08HANBBCNB@blendvpd?$AA@ 0000000071124140     decode_table.c.obj
 0002:00036150       ??_C@_08HFFCJGEH@blendvps?$AA@ 0000000071124150     decode_table.c.obj
 0002:00036160       ??_C@_08PKEFIDIF@pblendvb?$AA@ 0000000071124160     decode_table.c.obj
 0002:00036170       ??_C@_0BB@PMIMHOJG@?$CIprefix?5ext?5132?$CJ?$AA@ 0000000071124170     decode_table.c.obj
 0002:00036188       ??_C@_0BB@POMKMAMP@?$CIprefix?5ext?5131?$CJ?$AA@ 0000000071124188     decode_table.c.obj
 0002:000361a0       ??_C@_0BB@PPAIKKPI@?$CIprefix?5ext?5130?$CJ?$AA@ 00000000711241a0     decode_table.c.obj
 0002:000361b8       ??_C@_0BB@EIGFPGBC@?$CIprefix?5ext?5129?$CJ?$AA@ 00000000711241b8     decode_table.c.obj
 0002:000361d0       ??_C@_0BB@EJKHJMCF@?$CIprefix?5ext?5128?$CJ?$AA@ 00000000711241d0     decode_table.c.obj
 0002:000361e8       ??_C@_0BB@ECPLNLBI@?$CIprefix?5ext?5127?$CJ?$AA@ 00000000711241e8     decode_table.c.obj
 0002:00036200       ??_C@_0BB@EDDJLBCP@?$CIprefix?5ext?5126?$CJ?$AA@ 0000000071124200     decode_table.c.obj
 0002:00036218       ??_C@_0BB@EBHPAPHG@?$CIprefix?5ext?5125?$CJ?$AA@ 0000000071124218     decode_table.c.obj
 0002:00036230       ??_C@_0BB@EALNGFEB@?$CIprefix?5ext?5124?$CJ?$AA@ 0000000071124230     decode_table.c.obj
 0002:00036248       ??_C@_0BB@EFPCHDME@?$CIprefix?5ext?5123?$CJ?$AA@ 0000000071124248     decode_table.c.obj
 0002:00036260       ??_C@_0BB@EEDABJPD@?$CIprefix?5ext?5122?$CJ?$AA@ 0000000071124260     decode_table.c.obj
 0002:00036278       ??_C@_0BB@EGHGKHKK@?$CIprefix?5ext?5121?$CJ?$AA@ 0000000071124278     decode_table.c.obj
 0002:00036290       ??_C@_0BB@EHLEMNJN@?$CIprefix?5ext?5120?$CJ?$AA@ 0000000071124290     decode_table.c.obj
 0002:000362a8       ??_C@_0BB@FKNAFJPM@?$CIprefix?5ext?5119?$CJ?$AA@ 00000000711242a8     decode_table.c.obj
 0002:000362c0       ??_C@_0BB@FLBCDDML@?$CIprefix?5ext?5118?$CJ?$AA@ 00000000711242c0     decode_table.c.obj
 0002:000362d4       ??_C@_06JOEFOFIP@pswapd?$AA@ 00000000711242d4     decode_table.c.obj
 0002:000362e0       ??_C@_07HEBANBEP@pfpnacc?$AA@ 00000000711242e0     decode_table.c.obj
 0002:000362e8       ??_C@_06PBIPAILK@pfnacc?$AA@ 00000000711242e8     decode_table.c.obj
 0002:000362f0       ??_C@_05CODHPOME@pf2iw?$AA@ 00000000711242f0     decode_table.c.obj
 0002:000362f8       ??_C@_05KHDLCOCI@pi2fw?$AA@ 00000000711242f8     decode_table.c.obj
 0002:00036300       ??_C@_05EPNILPFG@pf2id?$AA@ 0000000071124300     decode_table.c.obj
 0002:00036308       ??_C@_05MGNEGPLK@pi2fd?$AA@ 0000000071124308     decode_table.c.obj
 0002:00036310       ??_C@_06OEJPNCGG@pfsubr?$AA@ 0000000071124310     decode_table.c.obj
 0002:00036318       ??_C@_05CPBGHNJM@pfsub?$AA@ 0000000071124318     decode_table.c.obj
 0002:00036320       ??_C@_07BCFIBGPO@pmulhrw?$AA@ 0000000071124320     decode_table.c.obj
 0002:00036328       ??_C@_08BOKJIJBN@pfrsqit1?$AA@ 0000000071124328     decode_table.c.obj
 0002:00036338       ??_C@_07OJNGDJDJ@pfrsqrt?$AA@ 0000000071124338     decode_table.c.obj
 0002:00036340       ??_C@_08LDCPBPF@pfrcpit2?$AA@ 0000000071124340     decode_table.c.obj
 0002:00036350       ??_C@_08CABPKCDG@pfrcpit1?$AA@ 0000000071124350     decode_table.c.obj
 0002:0003635c       ??_C@_05PHPFLFOI@pfrcp?$AA@ 000000007112435c     decode_table.c.obj
 0002:00036364       ??_C@_05BFDHALO@pfmul?$AA@ 0000000071124364     decode_table.c.obj
 0002:0003636c       ??_C@_05DENCKMEH@pfmax?$AA@ 000000007112436c     decode_table.c.obj
 0002:00036374       ??_C@_05CGFJEICI@pfmin?$AA@ 0000000071124374     decode_table.c.obj
 0002:00036380       ??_C@_07CCCOOHDB@pfcmpeq?$AA@ 0000000071124380     decode_table.c.obj
 0002:00036388       ??_C@_07FMNNMHBK@pfcmpgt?$AA@ 0000000071124388     decode_table.c.obj
 0002:00036390       ??_C@_07PAEOEAK@pfcmpge?$AA@ 0000000071124390     decode_table.c.obj
 0002:00036398       ??_C@_05NELGAMAL@pfacc?$AA@ 0000000071124398     decode_table.c.obj
 0002:000363a0       ??_C@_05JOLIIMEJ@pfadd?$AA@ 00000000711243a0     decode_table.c.obj
 0002:000363a8       ??_C@_07LALIDMFE@pavgusb?$AA@ 00000000711243a8     decode_table.c.obj
 0002:000363b0       ??_C@_0O@CGKOEFJK@unknown?53DNow?$AA@ 00000000711243b0     decode_table.c.obj
 0002:000363c0       ??_C@_05LEACPKDF@xtest?$AA@ 00000000711243c0     decode_table.c.obj
 0002:000363c8       ??_C@_04LPFPOMFE@xend?$AA@ 00000000711243c8     decode_table.c.obj
 0002:000363d0       ??_C@_06BPELNFBJ@vmfunc?$AA@ 00000000711243d0     decode_table.c.obj
 0002:000363d8       ??_C@_06LHBLMPGK@xsetbv?$AA@ 00000000711243d8     decode_table.c.obj
 0002:000363e0       ??_C@_06CPFMIPOH@xgetbv?$AA@ 00000000711243e0     decode_table.c.obj
 0002:000363e8       ??_C@_07FFAIPPPB@invlpga?$AA@ 00000000711243e8     decode_table.c.obj
 0002:000363f0       ??_C@_06JOKOMMPP@skinit?$AA@ 00000000711243f0     decode_table.c.obj
 0002:000363f8       ??_C@_04GPBIEAIP@clgi?$AA@ 00000000711243f8     decode_table.c.obj
 0002:00036400       ??_C@_04JKFFKIHN@stgi?$AA@ 0000000071124400     decode_table.c.obj
 0002:00036408       ??_C@_06CMFPFIGN@vmsave?$AA@ 0000000071124408     decode_table.c.obj
 0002:00036410       ??_C@_06COECKLLJ@vmload?$AA@ 0000000071124410     decode_table.c.obj
 0002:00036418       ??_C@_07HLGEACDE@vmmcall?$AA@ 0000000071124418     decode_table.c.obj
 0002:00036420       ??_C@_05JKJGIHPJ@vmrun?$AA@ 0000000071124420     decode_table.c.obj
 0002:00036428       ??_C@_06JKHHOJDN@rdtscp?$AA@ 0000000071124428     decode_table.c.obj
 0002:00036430       ??_C@_06CPNDNOLP@swapgs?$AA@ 0000000071124430     decode_table.c.obj
 0002:00036438       ??_C@_05DOGKKCDM@mwait?$AA@ 0000000071124438     decode_table.c.obj
 0002:00036440       ??_C@_07LAMOHCEE@monitor?$AA@ 0000000071124440     decode_table.c.obj
 0002:00036448       ??_C@_06IMFLOOPM@vmxoff?$AA@ 0000000071124448     decode_table.c.obj
 0002:00036450       ??_C@_08EIHJLGKP@vmresume?$AA@ 0000000071124450     decode_table.c.obj
 0002:00036460       ??_C@_08FDGBGFFD@vmlaunch?$AA@ 0000000071124460     decode_table.c.obj
 0002:0003646c       ??_C@_06IMMMFCAA@vmcall?$AA@ 000000007112446c     decode_table.c.obj
 0002:00036474       ??_C@_05HGCPCADO@fbstp?$AA@ 0000000071124474     decode_table.c.obj
 0002:0003647c       ??_C@_04PONMCJGA@fbld?$AA@ 000000007112447c     decode_table.c.obj
 0002:00036484       ??_C@_06MNBFLGAN@fnsave?$AA@ 0000000071124484     decode_table.c.obj
 0002:0003648c       ??_C@_06MILCMPCJ@frstor?$AA@ 000000007112448c     decode_table.c.obj
 0002:00036494       ??_C@_06LOICGCLB@fcomip?$AA@ 0000000071124494     decode_table.c.obj
 0002:000364a0       ??_C@_07GHOENMJ@fucomip?$AA@ 00000000711244a0     decode_table.c.obj
 0002:000364a8       ??_C@_06NEONKDJI@fnstsw?$AA@ 00000000711244a8     decode_table.c.obj
 0002:000364b0       ??_C@_06LKJBHBLK@ffreep?$AA@ 00000000711244b0     decode_table.c.obj
 0002:000364b8       ??_C@_05MFEPLGAL@fdivp?$AA@ 00000000711244b8     decode_table.c.obj
 0002:000364c0       ??_C@_06LLKMDLKG@fdivrp?$AA@ 00000000711244c0     decode_table.c.obj
 0002:000364c8       ??_C@_05BGGPBOBC@fsubp?$AA@ 00000000711244c8     decode_table.c.obj
 0002:000364d0       ??_C@_06NPBELDMO@fsubrp?$AA@ 00000000711244d0     decode_table.c.obj
 0002:000364d8       ??_C@_06KNHFPKEO@fcompp?$AA@ 00000000711244d8     decode_table.c.obj
 0002:000364e0       ??_C@_05MDCBBKPL@fmulp?$AA@ 00000000711244e0     decode_table.c.obj
 0002:000364e8       ??_C@_05OAGHJGLI@faddp?$AA@ 00000000711244e8     decode_table.c.obj
 0002:000364f0       ??_C@_06DPNAOGB@fucomp?$AA@ 00000000711244f0     decode_table.c.obj
 0002:000364f8       ??_C@_05BLOJBMLO@fucom?$AA@ 00000000711244f8     decode_table.c.obj
 0002:00036500       ??_C@_05BBECMOMI@ffree?$AA@ 0000000071124500     decode_table.c.obj
 0002:00036508       ??_C@_05NJHHNAEO@fcomi?$AA@ 0000000071124508     decode_table.c.obj
 0002:00036510       ??_C@_06JIPNKHHJ@fucomi?$AA@ 0000000071124510     decode_table.c.obj
 0002:00036518       ??_C@_06PLIFOOCF@fninit?$AA@ 0000000071124518     decode_table.c.obj
 0002:00036520       ??_C@_06LOJDIIGH@fnclex?$AA@ 0000000071124520     decode_table.c.obj
 0002:00036528       ??_C@_07MHFKLHBD@fcmovnu?$AA@ 0000000071124528     decode_table.c.obj
 0002:00036530       ??_C@_08IFJKDBHO@fcmovnbe?$AA@ 0000000071124530     decode_table.c.obj
 0002:00036540       ??_C@_07INJIKFEC@fcmovne?$AA@ 0000000071124540     decode_table.c.obj
 0002:00036548       ??_C@_07MCNJDDIF@fcmovnb?$AA@ 0000000071124548     decode_table.c.obj
 0002:00036550       ??_C@_07BFIJNFDG@fucompp?$AA@ 0000000071124550     decode_table.c.obj
 0002:00036558       ??_C@_06EEGOJFC@fcmovu?$AA@ 0000000071124558     decode_table.c.obj
 0002:00036560       ??_C@_07IEICFMCG@fcmovbe?$AA@ 0000000071124560     decode_table.c.obj
 0002:00036568       ??_C@_06EOIEPLAD@fcmove?$AA@ 0000000071124568     decode_table.c.obj
 0002:00036570       ??_C@_06BMFGNME@fcmovb?$AA@ 0000000071124570     decode_table.c.obj
 0002:00036578       ??_C@_04EBKFHEMK@fcos?$AA@ 0000000071124578     decode_table.c.obj
 0002:00036580       ??_C@_04OKFNDDPL@fsin?$AA@ 0000000071124580     decode_table.c.obj
 0002:00036588       ??_C@_06DAMBGGM@fscale?$AA@ 0000000071124588     decode_table.c.obj
 0002:00036590       ??_C@_07OGNGBFFO@frndint?$AA@ 0000000071124590     decode_table.c.obj
 0002:00036598       ??_C@_07DGCKCKGH@fsincos?$AA@ 0000000071124598     decode_table.c.obj
 0002:000365a0       ??_C@_05OBEHOPDB@fsqrt?$AA@ 00000000711245a0     decode_table.c.obj
 0002:000365a8       ??_C@_07GNFJNPAE@fyl2xp1?$AA@ 00000000711245a8     decode_table.c.obj
 0002:000365b0       ??_C@_05DGDLCGOC@fprem?$AA@ 00000000711245b0     decode_table.c.obj
 0002:000365b8       ??_C@_07HLFGFFCD@fincstp?$AA@ 00000000711245b8     decode_table.c.obj
 0002:000365c0       ??_C@_07HAEGMECA@fdecstp?$AA@ 00000000711245c0     decode_table.c.obj
 0002:000365c8       ??_C@_06IIGPLPMA@fprem1?$AA@ 00000000711245c8     decode_table.c.obj
 0002:000365d0       ??_C@_07MCCHLCHD@fxtract?$AA@ 00000000711245d0     decode_table.c.obj
 0002:000365d8       ??_C@_06HDLDNKJH@fpatan?$AA@ 00000000711245d8     decode_table.c.obj
 0002:000365e0       ??_C@_05DPHEICCB@fptan?$AA@ 00000000711245e0     decode_table.c.obj
 0002:000365e8       ??_C@_05NFKLLKBO@fyl2x?$AA@ 00000000711245e8     decode_table.c.obj
 0002:000365f0       ??_C@_05GDKIIOEP@f2xm1?$AA@ 00000000711245f0     decode_table.c.obj
 0002:000365f8       ??_C@_04MEFBDADE@fldz?$AA@ 00000000711245f8     decode_table.c.obj
 0002:00036600       ??_C@_06EHLILNBC@fldln2?$AA@ 0000000071124600     decode_table.c.obj
 0002:00036608       ??_C@_06EIGJIGJN@fldlg2?$AA@ 0000000071124608     decode_table.c.obj
 0002:00036610       ??_C@_05JINIPALN@fldpi?$AA@ 0000000071124610     decode_table.c.obj
 0002:00036618       ??_C@_06NHOEKBFF@fldl2e?$AA@ 0000000071124618     decode_table.c.obj
 0002:00036620       ??_C@_06IEDNICEF@fldl2t?$AA@ 0000000071124620     decode_table.c.obj
 0002:00036628       ??_C@_04NHNMKGPK@fld1?$AA@ 0000000071124628     decode_table.c.obj
 0002:00036630       ??_C@_04BIGCLGIB@fxam?$AA@ 0000000071124630     decode_table.c.obj
 0002:00036638       ??_C@_04NGBGNHDP@ftst?$AA@ 0000000071124638     decode_table.c.obj
 0002:00036640       ??_C@_04ODHECPBC@fabs?$AA@ 0000000071124640     decode_table.c.obj
 0002:00036648       ??_C@_04EEOKGCEP@fchs?$AA@ 0000000071124648     decode_table.c.obj
 0002:00036650       ??_C@_04JIOCPPNE@fnop?$AA@ 0000000071124650     decode_table.c.obj
 0002:00036658       ??_C@_04GGJBJGKK@fxch?$AA@ 0000000071124658     decode_table.c.obj
 0002:00036660       ??_C@_05BPPBBCP@fistp?$AA@ 0000000071124660     decode_table.c.obj
 0002:00036668       ??_C@_04HEGFFIHN@fist?$AA@ 0000000071124668     decode_table.c.obj
 0002:00036670       ??_C@_06IDOGBDGC@fisttp?$AA@ 0000000071124670     decode_table.c.obj
 0002:00036678       ??_C@_04CJNNKOGB@fild?$AA@ 0000000071124678     decode_table.c.obj
 0002:00036680       ??_C@_06MCOHGBFO@fidivr?$AA@ 0000000071124680     decode_table.c.obj
 0002:00036688       ??_C@_05IOJFOJKM@fidiv?$AA@ 0000000071124688     decode_table.c.obj
 0002:00036690       ??_C@_06BBMHMJEH@fisubr?$AA@ 0000000071124690     decode_table.c.obj
 0002:00036698       ??_C@_05HIMJALML@fisub?$AA@ 0000000071124698     decode_table.c.obj
 0002:000366a0       ??_C@_06HHOJMMIB@ficomp?$AA@ 00000000711246a0     decode_table.c.obj
 0002:000366a8       ??_C@_05LOPJGGDN@ficom?$AA@ 00000000711246a8     decode_table.c.obj
 0002:000366b0       ??_C@_05FGIMAGOJ@fimul?$AA@ 00000000711246b0     decode_table.c.obj
 0002:000366b8       ??_C@_05MJGHPKBO@fiadd?$AA@ 00000000711246b8     decode_table.c.obj
 0002:000366c0       ??_C@_06MIMLAAOI@fnstcw?$AA@ 00000000711246c0     decode_table.c.obj
 0002:000366c8       ??_C@_07OBOALIBJ@fnstenv?$AA@ 00000000711246c8     decode_table.c.obj
 0002:000366d0       ??_C@_05FCPJNCEL@fldcw?$AA@ 00000000711246d0     decode_table.c.obj
 0002:000366d8       ??_C@_06KOKFHIJJ@fldenv?$AA@ 00000000711246d8     decode_table.c.obj
 0002:000366e0       ??_C@_04CKOCDMAH@fstp?$AA@ 00000000711246e0     decode_table.c.obj
 0002:000366e8       ??_C@_03NNBCOCMH@fst?$AA@  00000000711246e8     decode_table.c.obj
 0002:000366ec       ??_C@_03IAKKBENL@fld?$AA@  00000000711246ec     decode_table.c.obj
 0002:000366f0       ??_C@_05PHHJNEIJ@fdivr?$AA@ 00000000711246f0     decode_table.c.obj
 0002:000366f8       ??_C@_04KFIIMEIE@fdiv?$AA@ 00000000711246f8     decode_table.c.obj
 0002:00036700       ??_C@_05CEFJHMJA@fsubr?$AA@ 0000000071124700     decode_table.c.obj
 0002:00036708       ??_C@_04FDNECGOD@fsub?$AA@ 0000000071124708     decode_table.c.obj
 0002:00036710       ??_C@_05ECHHHJFG@fcomp?$AA@ 0000000071124710     decode_table.c.obj
 0002:00036718       ??_C@_04JFOEELBF@fcom?$AA@ 0000000071124718     decode_table.c.obj
 0002:00036720       ??_C@_04HNJBCLMB@fmul?$AA@ 0000000071124720     decode_table.c.obj
 0002:00036728       ??_C@_04OCHKNHDG@fadd?$AA@ 0000000071124728     decode_table.c.obj
 0002:00036730       ??_C@_0L@DEPODEON@repne?5scas?$AA@ 0000000071124730     decode_table.c.obj
 0002:00036740       ??_C@_08GOIKDCBA@rep?5scas?$AA@ 0000000071124740     decode_table.c.obj
 0002:0003674c       ??_C@_04ODDLEBDC@scas?$AA@ 000000007112474c     decode_table.c.obj
 0002:00036758       ??_C@_0L@KJCFBNBL@repne?5cmps?$AA@ 0000000071124758     decode_table.c.obj
 0002:00036768       ??_C@_08PDFBBLOG@rep?5cmps?$AA@ 0000000071124768     decode_table.c.obj
 0002:00036774       ??_C@_04HOOAGIME@cmps?$AA@ 0000000071124774     decode_table.c.obj
 0002:00036780       ??_C@_08MACHEPBA@rep?5lods?$AA@ 0000000071124780     decode_table.c.obj
 0002:0003678c       ??_C@_04ENJGDMDC@lods?$AA@ 000000007112478c     decode_table.c.obj
 0002:00036798       ??_C@_08KJNKHADM@rep?5stos?$AA@ 0000000071124798     decode_table.c.obj
 0002:000367a4       ??_C@_04CEGLADBO@stos?$AA@ 00000000711247a4     decode_table.c.obj
 0002:000367b0       ??_C@_08OCOFBBLO@rep?5movs?$AA@ 00000000711247b0     decode_table.c.obj
 0002:000367bc       ??_C@_04GPFEGCJM@movs?$AA@ 00000000711247bc     decode_table.c.obj
 0002:000367c8       ??_C@_08KEAFCBEL@rep?5outs?$AA@ 00000000711247c8     decode_table.c.obj
 0002:000367d4       ??_C@_04CJLEFCGJ@outs?$AA@ 00000000711247d4     decode_table.c.obj
 0002:000367e0       ??_C@_07GHLAIDGK@rep?5ins?$AA@ 00000000711247e0     decode_table.c.obj
 0002:000367e8       ??_C@_03NOMOFEHF@ins?$AA@  00000000711247e8     decode_table.c.obj
 0002:000367f0       ??_C@_0L@EKKPKNNC@xsaveopt64?$AA@ 00000000711247f0     decode_table.c.obj
 0002:00036800       ??_C@_08KNNNHOKI@xsaveopt?$AA@ 0000000071124800     decode_table.c.obj
 0002:00036810       ??_C@_08LAFDHLEO@xrstor64?$AA@ 0000000071124810     decode_table.c.obj
 0002:0003681c       ??_C@_06PPFDCILK@xrstor?$AA@ 000000007112481c     decode_table.c.obj
 0002:00036828       ??_C@_07BKOGMEHB@xsave64?$AA@ 0000000071124828     decode_table.c.obj
 0002:00036830       ??_C@_05NMFCFAIJ@xsave?$AA@ 0000000071124830     decode_table.c.obj
 0002:00036838       ??_C@_09GJCJHDKB@fxrstor64?$AA@ 0000000071124838     decode_table.c.obj
 0002:00036848       ??_C@_07BBJJIBJB@fxrstor?$AA@ 0000000071124848     decode_table.c.obj
 0002:00036850       ??_C@_08LGLEPHJI@fxsave64?$AA@ 0000000071124850     decode_table.c.obj
 0002:0003685c       ??_C@_06BIJKFHIL@fxsave?$AA@ 000000007112485c     decode_table.c.obj
 0002:00036868       ??_C@_08IOLDCDAE@wrgsbase?$AA@ 0000000071124868     decode_table.c.obj
 0002:00036878       ??_C@_0N@DEHKCBGM@?$CIvex?5ext?562?$CJ?$AA@ 0000000071124878     decode_table.c.obj
 0002:00036888       ??_C@_08CIMECILA@wrfsbase?$AA@ 0000000071124888     decode_table.c.obj
 0002:00036898       ??_C@_0N@DGDMJPDF@?$CIvex?5ext?561?$CJ?$AA@ 0000000071124898     decode_table.c.obj
 0002:000368a8       ??_C@_08HOPAFOOH@rdgsbase?$AA@ 00000000711248a8     decode_table.c.obj
 0002:000368b8       ??_C@_0O@DBJBGLAN@?$CIrex?4w?5ext?51?$CJ?$AA@ 00000000711248b8     decode_table.c.obj
 0002:000368c8       ??_C@_08NIIHFFFD@rdfsbase?$AA@ 00000000711248c8     decode_table.c.obj
 0002:000368d8       ??_C@_0O@DAFDABDK@?$CIrex?4w?5ext?50?$CJ?$AA@ 00000000711248d8     decode_table.c.obj
 0002:000368e8       ??_C@_06HHAGJGIJ@rdseed?$AA@ 00000000711248e8     decode_table.c.obj
 0002:000368f0       ??_C@_07MBCBNMIG@vmptrst?$AA@ 00000000711248f0     decode_table.c.obj
 0002:000368f8       ??_C@_06MJFBMHIP@rdrand?$AA@ 00000000711248f8     decode_table.c.obj
 0002:00036900       ??_C@_0BB@PKEHLMHN@?$CIprefix?5ext?5137?$CJ?$AA@ 0000000071124900     decode_table.c.obj
 0002:00036914       ??_C@_06FLFBLOGC@vmovsd?$AA@ 0000000071124914     decode_table.c.obj
 0002:0003691c       ??_C@_06FONCDKPE@vmovss?$AA@ 000000007112491c     decode_table.c.obj
 0002:00036924       ??_C@_06IOGPHDHF@mfence?$AA@ 0000000071124924     decode_table.c.obj
 0002:00036930       ??_C@_0O@DHFKKJOG@?$CIrex?4w?5ext?54?$CJ?$AA@ 0000000071124930     decode_table.c.obj
 0002:00036940       ??_C@_06CIBIHIMB@lfence?$AA@ 0000000071124940     decode_table.c.obj
 0002:00036948       ??_C@_0O@DCBFLPGD@?$CIrex?4w?5ext?53?$CJ?$AA@ 0000000071124948     decode_table.c.obj
 0002:00036958       ??_C@_0BJ@FKJHIOKO@?$CIgroup?57?5mod?5?$CL?5rm?5ext?54?$CJ?$AA@ 0000000071124958     decode_table.c.obj
 0002:00036974       ??_C@_04MHGDICBK@lgdt?$AA@ 0000000071124974     decode_table.c.obj
 0002:00036980       ??_C@_0BJ@FPNIJICL@?$CIgroup?57?5mod?5?$CL?5rm?5ext?53?$CJ?$AA@ 0000000071124980     decode_table.c.obj
 0002:0003699c       ??_C@_04CHLMPFCJ@lidt?$AA@ 000000007112499c     decode_table.c.obj
 0002:000369a4       ??_C@_06LJIOJEOG@sfence?$AA@ 00000000711249a4     decode_table.c.obj
 0002:000369b0       ??_C@_07KNLCLAFM@clflush?$AA@ 00000000711249b0     decode_table.c.obj
 0002:000369b8       ??_C@_0BJ@FOBKPCBM@?$CIgroup?57?5mod?5?$CL?5rm?5ext?52?$CJ?$AA@ 00000000711249b8     decode_table.c.obj
 0002:000369d4       ??_C@_06DHGMIPHJ@invlpg?$AA@ 00000000711249d4     decode_table.c.obj
 0002:000369e0       ??_C@_0BJ@FMFMEMEF@?$CIgroup?57?5mod?5?$CL?5rm?5ext?51?$CJ?$AA@ 00000000711249e0     decode_table.c.obj
 0002:000369fc       ??_C@_04MFAMPFHK@sidt?$AA@ 00000000711249fc     decode_table.c.obj
 0002:00036a08       ??_C@_0BJ@FNJOCGHC@?$CIgroup?57?5mod?5?$CL?5rm?5ext?50?$CJ?$AA@ 0000000071124a08     decode_table.c.obj
 0002:00036a24       ??_C@_04CFNDICEJ@sgdt?$AA@ 0000000071124a24     decode_table.c.obj
 0002:00036a30       ??_C@_08CIMGHFML@vzeroall?$AA@ 0000000071124a30     decode_table.c.obj
 0002:00036a40       ??_C@_0L@HMOMGDGG@vzeroupper?$AA@ 0000000071124a40     decode_table.c.obj
 0002:00036a4c       ??_C@_04OFFOKNEH@emms?$AA@ 0000000071124a4c     decode_table.c.obj
 0002:00036a54       ??_C@_04KCLFCKAK@mulx?$AA@ 0000000071124a54     decode_table.c.obj
 0002:00036a5c       ??_C@_04BFGIPIEE@pdep?$AA@ 0000000071124a5c     decode_table.c.obj
 0002:00036a64       ??_C@_04NNEGGKAG@pext?$AA@ 0000000071124a64     decode_table.c.obj
 0002:00036a6c       ??_C@_04CMFGCGEB@bzhi?$AA@ 0000000071124a6c     decode_table.c.obj
 0002:00036a74       ??_C@_04MJKOACNB@shrx?$AA@ 0000000071124a74     decode_table.c.obj
 0002:00036a7c       ??_C@_04NPBGIMKL@shlx?$AA@ 0000000071124a7c     decode_table.c.obj
 0002:00036a84       ??_C@_04LEKGENFL@sarx?$AA@ 0000000071124a84     decode_table.c.obj
 0002:00036a90       ??_C@_0O@DIEGLFBH@?$CIXOP?5group?54?$CJ?$AA@ 0000000071124a90     decode_table.c.obj
 0002:00036aa0       ??_C@_0O@DNAJKDJC@?$CIXOP?5group?53?$CJ?$AA@ 0000000071124aa0     decode_table.c.obj
 0002:00036ab0       ??_C@_0O@DMMLMJKF@?$CIXOP?5group?52?$CJ?$AA@ 0000000071124ab0     decode_table.c.obj
 0002:00036ac0       ??_C@_0O@DOINHHPM@?$CIXOP?5group?51?$CJ?$AA@ 0000000071124ac0     decode_table.c.obj
 0002:00036ad0       ??_C@_08NKBHMGAP@vphsubdq?$AA@ 0000000071124ad0     decode_table.c.obj
 0002:00036ae0       ??_C@_08PDMCDNDC@vphsubwd?$AA@ 0000000071124ae0     decode_table.c.obj
 0002:00036af0       ??_C@_08IIMABNDL@vphsubbw?$AA@ 0000000071124af0     decode_table.c.obj
 0002:00036b00       ??_C@_09ODICLKPI@vphaddudq?$AA@ 0000000071124b00     decode_table.c.obj
 0002:00036b10       ??_C@_09PNOCKHNB@vphadduwq?$AA@ 0000000071124b10     decode_table.c.obj
 0002:00036b20       ??_C@_09MKFHEBMF@vphadduwd?$AA@ 0000000071124b20     decode_table.c.obj
 0002:00036b30       ??_C@_09OHAPMGEK@vphaddubq?$AA@ 0000000071124b30     decode_table.c.obj
 0002:00036b40       ??_C@_09NALKCAFO@vphaddubd?$AA@ 0000000071124b40     decode_table.c.obj
 0002:00036b50       ??_C@_09LBFFGBMM@vphaddubw?$AA@ 0000000071124b50     decode_table.c.obj
 0002:00036b60       ??_C@_08OMOCIEHB@vphadddq?$AA@ 0000000071124b60     decode_table.c.obj
 0002:00036b70       ??_C@_08PCICJJFI@vphaddwq?$AA@ 0000000071124b70     decode_table.c.obj
 0002:00036b80       ??_C@_08MFDHHPEM@vphaddwd?$AA@ 0000000071124b80     decode_table.c.obj
 0002:00036b90       ??_C@_08OIGPPIMD@vphaddbq?$AA@ 0000000071124b90     decode_table.c.obj
 0002:00036ba0       ??_C@_08NPNKBONH@vphaddbd?$AA@ 0000000071124ba0     decode_table.c.obj
 0002:00036bb0       ??_C@_08LODFFPEF@vphaddbw?$AA@ 0000000071124bb0     decode_table.c.obj
 0002:00036bc0       ??_C@_0P@NPPNGNNK@?$CIvex_W?5ext?563?$CJ?$AA@ 0000000071124bc0     decode_table.c.obj
 0002:00036bd0       ??_C@_0P@NODPAHON@?$CIvex_W?5ext?562?$CJ?$AA@ 0000000071124bd0     decode_table.c.obj
 0002:00036be0       ??_C@_0P@NMHJLJLE@?$CIvex_W?5ext?561?$CJ?$AA@ 0000000071124be0     decode_table.c.obj
 0002:00036bf0       ??_C@_0P@NNLLNDID@?$CIvex_W?5ext?560?$CJ?$AA@ 0000000071124bf0     decode_table.c.obj
 0002:00036c00       ??_C@_0P@MANPEHOC@?$CIvex_W?5ext?559?$CJ?$AA@ 0000000071124c00     decode_table.c.obj
 0002:00036c10       ??_C@_0P@MBBNCNNF@?$CIvex_W?5ext?558?$CJ?$AA@ 0000000071124c10     decode_table.c.obj
 0002:00036c20       ??_C@_0P@MKEBGKOI@?$CIvex_W?5ext?557?$CJ?$AA@ 0000000071124c20     decode_table.c.obj
 0002:00036c30       ??_C@_0P@MLIDAANP@?$CIvex_W?5ext?556?$CJ?$AA@ 0000000071124c30     decode_table.c.obj
 0002:00036c40       ??_C@_0P@MJMFLOIG@?$CIvex_W?5ext?555?$CJ?$AA@ 0000000071124c40     decode_table.c.obj
 0002:00036c50       ??_C@_0P@MIAHNELB@?$CIvex_W?5ext?554?$CJ?$AA@ 0000000071124c50     decode_table.c.obj
 0002:00036c60       ??_C@_0P@MNEIMCDE@?$CIvex_W?5ext?553?$CJ?$AA@ 0000000071124c60     decode_table.c.obj
 0002:00036c70       ??_C@_0P@MMIKKIAD@?$CIvex_W?5ext?552?$CJ?$AA@ 0000000071124c70     decode_table.c.obj
 0002:00036c80       ??_C@_07NDFIFIFL@vfrczsd?$AA@ 0000000071124c80     decode_table.c.obj
 0002:00036c88       ??_C@_07NGNLNMMN@vfrczss?$AA@ 0000000071124c88     decode_table.c.obj
 0002:00036c90       ??_C@_07NBBOOGAC@vfrczpd?$AA@ 0000000071124c90     decode_table.c.obj
 0002:00036c98       ??_C@_07NEJNGCJE@vfrczps?$AA@ 0000000071124c98     decode_table.c.obj
 0002:00036ca0       ??_C@_07CENKDIBA@vpcomuq?$AA@ 0000000071124ca0     decode_table.c.obj
 0002:00036ca8       ??_C@_07BDGPNOAE@vpcomud?$AA@ 0000000071124ca8     decode_table.c.obj
 0002:00036cb0       ??_C@_07HCIAJPJG@vpcomuw?$AA@ 0000000071124cb0     decode_table.c.obj
 0002:00036cb8       ??_C@_07EFDFHJIC@vpcomub?$AA@ 0000000071124cb8     decode_table.c.obj
 0002:00036cc0       ??_C@_06CNPFDCFN@vpcomq?$AA@ 0000000071124cc0     decode_table.c.obj
 0002:00036cc8       ??_C@_06BKEANEEJ@vpcomd?$AA@ 0000000071124cc8     decode_table.c.obj
 0002:00036cd0       ??_C@_06HLKPJFNL@vpcomw?$AA@ 0000000071124cd0     decode_table.c.obj
 0002:00036cd8       ??_C@_06EMBKHDMP@vpcomb?$AA@ 0000000071124cd8     decode_table.c.obj
 0002:00036ce0       ??_C@_07NKFGJJGH@vpsllvq?$AA@ 0000000071124ce0     decode_table.c.obj
 0002:00036ce8       ??_C@_07ONODHPHD@vpsllvd?$AA@ 0000000071124ce8     decode_table.c.obj
 0002:00036cf0       ??_C@_07FIGLAIE@vpsrlvq?$AA@ 0000000071124cf0     decode_table.c.obj
 0002:00036cf8       ??_C@_07DCDDFGJA@vpsrlvd?$AA@ 0000000071124cf8     decode_table.c.obj
 0002:00036d00       ??_C@_0L@BOMHKIDO@vpmaskmovq?$AA@ 0000000071124d00     decode_table.c.obj
 0002:00036d10       ??_C@_0L@CJHCEOCK@vpmaskmovd?$AA@ 0000000071124d10     decode_table.c.obj
 0002:00036d20       ??_C@_0L@DHEHONOJ@vgatherqpd?$AA@ 0000000071124d20     decode_table.c.obj
 0002:00036d30       ??_C@_0L@DCMEGJHP@vgatherqps?$AA@ 0000000071124d30     decode_table.c.obj
 0002:00036d40       ??_C@_0L@FAIAEKEE@vgatherdpd?$AA@ 0000000071124d40     decode_table.c.obj
 0002:00036d50       ??_C@_0L@FFADMONC@vgatherdps?$AA@ 0000000071124d50     decode_table.c.obj
 0002:00036d60       ??_C@_0L@EFHLNNBN@vpgatherdq?$AA@ 0000000071124d60     decode_table.c.obj
 0002:00036d70       ??_C@_0L@HCMODLAJ@vpgatherdd?$AA@ 0000000071124d70     decode_table.c.obj
 0002:00036d80       ??_C@_0L@BKDNBOBP@vpermil2pd?$AA@ 0000000071124d80     decode_table.c.obj
 0002:00036d90       ??_C@_0L@BPLOJKIJ@vpermil2ps?$AA@ 0000000071124d90     decode_table.c.obj
 0002:00036d9c       ??_C@_06NJNIGEAC@vpshaq?$AA@ 0000000071124d9c     decode_table.c.obj
 0002:00036da4       ??_C@_06OOGNICBG@vpshad?$AA@ 0000000071124da4     decode_table.c.obj
 0002:00036dac       ??_C@_06IPICMDIE@vpshaw?$AA@ 0000000071124dac     decode_table.c.obj
 0002:00036db4       ??_C@_06LIDHCFJA@vpshab?$AA@ 0000000071124db4     decode_table.c.obj
 0002:00036dbc       ??_C@_06NBAAPHFB@vpshlq?$AA@ 0000000071124dbc     decode_table.c.obj
 0002:00036dc4       ??_C@_06OGLFBBEF@vpshld?$AA@ 0000000071124dc4     decode_table.c.obj
 0002:00036dcc       ??_C@_06IHFKFANH@vpshlw?$AA@ 0000000071124dcc     decode_table.c.obj
 0002:00036dd4       ??_C@_06LAOPLGMD@vpshlb?$AA@ 0000000071124dd4     decode_table.c.obj
 0002:00036ddc       ??_C@_06GDICBEJA@vprotq?$AA@ 0000000071124ddc     decode_table.c.obj
 0002:00036de4       ??_C@_06FEDHPCIE@vprotd?$AA@ 0000000071124de4     decode_table.c.obj
 0002:00036dec       ??_C@_06DFNILDBG@vprotw?$AA@ 0000000071124dec     decode_table.c.obj
 0002:00036df4       ??_C@_06JEAFIGHL@vpperm?$AA@ 0000000071124df4     decode_table.c.obj
 0002:00036dfc       ??_C@_06MLDJLIHP@vpcmov?$AA@ 0000000071124dfc     decode_table.c.obj
 0002:00036e08       ??_C@_09JNNGFCCG@vfnmsubsd?$AA@ 0000000071124e08     decode_table.c.obj
 0002:00036e18       ??_C@_09JIFFNGLA@vfnmsubss?$AA@ 0000000071124e18     decode_table.c.obj
 0002:00036e28       ??_C@_09JPJAOMHP@vfnmsubpd?$AA@ 0000000071124e28     decode_table.c.obj
 0002:00036e38       ??_C@_09JKBDGIOJ@vfnmsubps?$AA@ 0000000071124e38     decode_table.c.obj
 0002:00036e48       ??_C@_09KLCDBAFI@vfnmaddsd?$AA@ 0000000071124e48     decode_table.c.obj
 0002:00036e58       ??_C@_09KOKAJEMO@vfnmaddss?$AA@ 0000000071124e58     decode_table.c.obj
 0002:00036e68       ??_C@_09KJGFKOAB@vfnmaddpd?$AA@ 0000000071124e68     decode_table.c.obj
 0002:00036e78       ??_C@_09KMOGCKJH@vfnmaddps?$AA@ 0000000071124e78     decode_table.c.obj
 0002:00036e88       ??_C@_08BMCHICOF@vfmsubsd?$AA@ 0000000071124e88     decode_table.c.obj
 0002:00036e98       ??_C@_08BJKEAGHD@vfmsubss?$AA@ 0000000071124e98     decode_table.c.obj
 0002:00036ea8       ??_C@_08BOGBDMLM@vfmsubpd?$AA@ 0000000071124ea8     decode_table.c.obj
 0002:00036eb8       ??_C@_08BLOCLICK@vfmsubps?$AA@ 0000000071124eb8     decode_table.c.obj
 0002:00036ec8       ??_C@_08CKNCMAJL@vfmaddsd?$AA@ 0000000071124ec8     decode_table.c.obj
 0002:00036ed8       ??_C@_08CPFBEEAN@vfmaddss?$AA@ 0000000071124ed8     decode_table.c.obj
 0002:00036ee8       ??_C@_08CIJEHOMC@vfmaddpd?$AA@ 0000000071124ee8     decode_table.c.obj
 0002:00036ef8       ??_C@_08CNBHPKFE@vfmaddps?$AA@ 0000000071124ef8     decode_table.c.obj
 0002:00036f08       ??_C@_0M@KMKMFIMC@vfmsubaddpd?$AA@ 0000000071124f08     decode_table.c.obj
 0002:00036f18       ??_C@_0M@KJCPNMFE@vfmsubaddps?$AA@ 0000000071124f18     decode_table.c.obj
 0002:00036f28       ??_C@_0M@MLKOHEME@vfmaddsubpd?$AA@ 0000000071124f28     decode_table.c.obj
 0002:00036f38       ??_C@_0M@MOCNPAFC@vfmaddsubps?$AA@ 0000000071124f38     decode_table.c.obj
 0002:00036f48       ??_C@_0N@IKHLFPIE@vfnmsub231sd?$AA@ 0000000071124f48     decode_table.c.obj
 0002:00036f58       ??_C@_0N@IPPINLBC@vfnmsub231ss?$AA@ 0000000071124f58     decode_table.c.obj
 0002:00036f68       ??_C@_0N@FKLCMEGP@vfnmsub213sd?$AA@ 0000000071124f68     decode_table.c.obj
 0002:00036f78       ??_C@_0N@FPDBEAPJ@vfnmsub213ss?$AA@ 0000000071124f78     decode_table.c.obj
 0002:00036f88       ??_C@_0N@BOFKICME@vfnmsub132sd?$AA@ 0000000071124f88     decode_table.c.obj
 0002:00036f98       ??_C@_0N@BLNJAGFC@vfnmsub132ss?$AA@ 0000000071124f98     decode_table.c.obj
 0002:00036fa8       ??_C@_0N@IIDNOBNN@vfnmsub231pd?$AA@ 0000000071124fa8     decode_table.c.obj
 0002:00036fb8       ??_C@_0N@INLOGFEL@vfnmsub231ps?$AA@ 0000000071124fb8     decode_table.c.obj
 0002:00036fc8       ??_C@_0N@FIPEHKDG@vfnmsub213pd?$AA@ 0000000071124fc8     decode_table.c.obj
 0002:00036fd8       ??_C@_0N@FNHHPOKA@vfnmsub213ps?$AA@ 0000000071124fd8     decode_table.c.obj
 0002:00036fe8       ??_C@_0N@BMBMDMJN@vfnmsub132pd?$AA@ 0000000071124fe8     decode_table.c.obj
 0002:00036ff8       ??_C@_0N@BJJPLIAL@vfnmsub132ps?$AA@ 0000000071124ff8     decode_table.c.obj
 0002:00037008       ??_C@_0N@NLIMDBPM@vfnmadd231sd?$AA@ 0000000071125008     decode_table.c.obj
 0002:00037018       ??_C@_0N@NOAPLFGK@vfnmadd231ss?$AA@ 0000000071125018     decode_table.c.obj
 0002:00037028       ??_C@_0N@LEFKKBH@vfnmadd213sd?$AA@ 0000000071125028     decode_table.c.obj
 0002:00037038       ??_C@_0N@OMGCOIB@vfnmadd213ss?$AA@ 0000000071125038     decode_table.c.obj
 0002:00037048       ??_C@_0N@EPKNOMLM@vfnmadd132sd?$AA@ 0000000071125048     decode_table.c.obj
 0002:00037058       ??_C@_0N@EKCOGICK@vfnmadd132ss?$AA@ 0000000071125058     decode_table.c.obj
 0002:00037068       ??_C@_0N@NJMKIPKF@vfnmadd231pd?$AA@ 0000000071125068     decode_table.c.obj
 0002:00037078       ??_C@_0N@NMEJALDD@vfnmadd231ps?$AA@ 0000000071125078     decode_table.c.obj
 0002:00037088       ??_C@_0N@JADBEEO@vfnmadd213pd?$AA@ 0000000071125088     decode_table.c.obj
 0002:00037098       ??_C@_0N@MIAJANI@vfnmadd213ps?$AA@ 0000000071125098     decode_table.c.obj
 0002:000370a8       ??_C@_0N@ENOLFCOF@vfnmadd132pd?$AA@ 00000000711250a8     decode_table.c.obj
 0002:000370b8       ??_C@_0N@EIGINGHD@vfnmadd132ps?$AA@ 00000000711250b8     decode_table.c.obj
 0002:000370c8       ??_C@_0M@FCBAHAIJ@vfmsub231sd?$AA@ 00000000711250c8     decode_table.c.obj
 0002:000370d8       ??_C@_0M@FHJDPEBP@vfmsub231ss?$AA@ 00000000711250d8     decode_table.c.obj
 0002:000370e8       ??_C@_0M@ICNJOLGC@vfmsub213sd?$AA@ 00000000711250e8     decode_table.c.obj
 0002:000370f8       ??_C@_0M@IHFKGPPE@vfmsub213ss?$AA@ 00000000711250f8     decode_table.c.obj
 0002:00037108       ??_C@_0M@MGDBKNMJ@vfmsub132sd?$AA@ 0000000071125108     decode_table.c.obj
 0002:00037118       ??_C@_0M@MDLCCJFP@vfmsub132ss?$AA@ 0000000071125118     decode_table.c.obj
 0002:00037128       ??_C@_0M@FAFGMONA@vfmsub231pd?$AA@ 0000000071125128     decode_table.c.obj
 0002:00037138       ??_C@_0M@FFNFEKEG@vfmsub231ps?$AA@ 0000000071125138     decode_table.c.obj
 0002:00037148       ??_C@_0M@IAJPFFDL@vfmsub213pd?$AA@ 0000000071125148     decode_table.c.obj
 0002:00037158       ??_C@_0M@IFBMNBKN@vfmsub213ps?$AA@ 0000000071125158     decode_table.c.obj
 0002:00037168       ??_C@_0M@MEHHBDJA@vfmsub132pd?$AA@ 0000000071125168     decode_table.c.obj
 0002:00037178       ??_C@_0M@MBPEJHAG@vfmsub132ps?$AA@ 0000000071125178     decode_table.c.obj
 0002:00037188       ??_C@_0P@OKHNJLJG@vfmsubadd231pd?$AA@ 0000000071125188     decode_table.c.obj
 0002:00037198       ??_C@_0P@OPPOBPAA@vfmsubadd231ps?$AA@ 0000000071125198     decode_table.c.obj
 0002:000371a8       ??_C@_0P@DKLEAAHN@vfmsubadd213pd?$AA@ 00000000711251a8     decode_table.c.obj
 0002:000371b8       ??_C@_0P@DPDHIEOL@vfmsubadd213ps?$AA@ 00000000711251b8     decode_table.c.obj
 0002:000371c8       ??_C@_0P@HOFMEGNG@vfmsubadd132pd?$AA@ 00000000711251c8     decode_table.c.obj
 0002:000371d8       ??_C@_0P@HLNPMCEA@vfmsubadd132ps?$AA@ 00000000711251d8     decode_table.c.obj
 0002:000371e8       ??_C@_0P@DJMPONMB@vfmaddsub231pd?$AA@ 00000000711251e8     decode_table.c.obj
 0002:000371f8       ??_C@_0P@DMEMGJFH@vfmaddsub231ps?$AA@ 00000000711251f8     decode_table.c.obj
 0002:00037208       ??_C@_0P@OJAGHGCK@vfmaddsub213pd?$AA@ 0000000071125208     decode_table.c.obj
 0002:00037218       ??_C@_0P@OMIFPCLM@vfmaddsub213ps?$AA@ 0000000071125218     decode_table.c.obj
 0002:00037228       ??_C@_0P@KNOODAIB@vfmaddsub132pd?$AA@ 0000000071125228     decode_table.c.obj
 0002:00037238       ??_C@_0P@KIGNLEBH@vfmaddsub132ps?$AA@ 0000000071125238     decode_table.c.obj
 0002:00037248       ??_C@_0M@DOHBOPB@vfmadd231sd?$AA@ 0000000071125248     decode_table.c.obj
 0002:00037258       ??_C@_0M@GGEJKGH@vfmadd231ss?$AA@ 0000000071125258     decode_table.c.obj
 0002:00037268       ??_C@_0M@NDCOIFBK@vfmadd213sd?$AA@ 0000000071125268     decode_table.c.obj
 0002:00037278       ??_C@_0M@NGKNABIM@vfmadd213ss?$AA@ 0000000071125278     decode_table.c.obj
 0002:00037288       ??_C@_0M@JHMGMDLB@vfmadd132sd?$AA@ 0000000071125288     decode_table.c.obj
 0002:00037298       ??_C@_0M@JCEFEHCH@vfmadd132ss?$AA@ 0000000071125298     decode_table.c.obj
 0002:000372a8       ??_C@_0M@BKBKAKI@vfmadd231pd?$AA@ 00000000711252a8     decode_table.c.obj
 0002:000372b8       ??_C@_0M@ECCCEDO@vfmadd231ps?$AA@ 00000000711252b8     decode_table.c.obj
 0002:000372c8       ??_C@_0M@NBGIDLED@vfmadd213pd?$AA@ 00000000711252c8     decode_table.c.obj
 0002:000372d8       ??_C@_0M@NEOLLPNF@vfmadd213ps?$AA@ 00000000711252d8     decode_table.c.obj
 0002:000372e8       ??_C@_0M@JFIAHNOI@vfmadd132pd?$AA@ 00000000711252e8     decode_table.c.obj
 0002:000372f8       ??_C@_0M@JAADPJHO@vfmadd132ps?$AA@ 00000000711252f8     decode_table.c.obj
 0002:00037304       ??_C@_06CGNFFAC@vprotb?$AA@ 0000000071125304     decode_table.c.obj
 0002:00037310       ??_C@_09BFPMMMGN@vpmadcswd?$AA@ 0000000071125310     decode_table.c.obj
 0002:00037320       ??_C@_0L@KDIFMFPE@vpmadcsswd?$AA@ 0000000071125320     decode_table.c.obj
 0002:00037330       ??_C@_0P@MOMMBGFK@?$CIvex_W?5ext?551?$CJ?$AA@ 0000000071125330     decode_table.c.obj
 0002:00037340       ??_C@_0P@MPAOHMGN@?$CIvex_W?5ext?550?$CJ?$AA@ 0000000071125340     decode_table.c.obj
 0002:00037350       ??_C@_09NOPDHMP@vpmacsdqh?$AA@ 0000000071125350     decode_table.c.obj
 0002:00037360       ??_C@_08PGIBPOPE@vpmacsdd?$AA@ 0000000071125360     decode_table.c.obj
 0002:00037370       ??_C@_09GJIDPCML@vpmacsdql?$AA@ 0000000071125370     decode_table.c.obj
 0002:00037380       ??_C@_08OIOBODNN@vpmacswd?$AA@ 0000000071125380     decode_table.c.obj
 0002:00037390       ??_C@_08IJAOKCEP@vpmacsww?$AA@ 0000000071125390     decode_table.c.obj
 0002:000373a0       ??_C@_0L@CKFHJ@vpmacssdqh?$AA@ 00000000711253a0     decode_table.c.obj
 0002:000373b0       ??_C@_09HGHJHGHO@vpmacssdd?$AA@ 00000000711253b0     decode_table.c.obj
 0002:000373c0       ??_C@_0L@GEGOGAHN@vpmacssdql?$AA@ 00000000711253c0     decode_table.c.obj
 0002:000373d0       ??_C@_09GIBJGLFH@vpmacsswd?$AA@ 00000000711253d0     decode_table.c.obj
 0002:000373e0       ??_C@_09JPGCKMF@vpmacssww?$AA@ 00000000711253e0     decode_table.c.obj
 0002:000373ec       ??_C@_05LKKJFLLL@bextr?$AA@ 00000000711253ec     decode_table.c.obj
 0002:000373f4       ??_C@_05ENGFOLNA@tzcnt?$AA@ 00000000711253f4     decode_table.c.obj
 0002:000373fc       ??_C@_03CKIEAFED@bsf?$AA@  00000000711253fc     decode_table.c.obj
 0002:00037400       ??_C@_05KBIBMHFC@crc32?$AA@ 0000000071125400     decode_table.c.obj
 0002:00037408       ??_C@_05PMLINNKI@movbe?$AA@ 0000000071125408     decode_table.c.obj
 0002:00037410       ??_C@_07JAMFMPEO@vmclear?$AA@ 0000000071125410     decode_table.c.obj
 0002:00037418       ??_C@_05OEJKEBDL@vmxon?$AA@ 0000000071125418     decode_table.c.obj
 0002:00037420       ??_C@_07JMJJCKJK@vmptrld?$AA@ 0000000071125420     decode_table.c.obj
 0002:00037428       ??_C@_05KCOAGLCG@lzcnt?$AA@ 0000000071125428     decode_table.c.obj
 0002:00037430       ??_C@_03ECKNCBG@bsr?$AA@   0000000071125430     decode_table.c.obj
 0002:00037438       ??_C@_07ICOKPMJF@vmwrite?$AA@ 0000000071125438     decode_table.c.obj
 0002:00037440       ??_C@_07PGHOMLMA@insertq?$AA@ 0000000071125440     decode_table.c.obj
 0002:00037448       ??_C@_05FKKKKIPJ@extrq?$AA@ 0000000071125448     decode_table.c.obj
 0002:00037450       ??_C@_06JOCPGCDO@vmread?$AA@ 0000000071125450     decode_table.c.obj
 0002:00037458       ??_C@_08JHLGPDG@vpalignr?$AA@ 0000000071125458     decode_table.c.obj
 0002:00037468       ??_C@_07JOJBOKO@palignr?$AA@ 0000000071125468     decode_table.c.obj
 0002:00037470       ??_C@_06IEFCNBIO@vpabsd?$AA@ 0000000071125470     decode_table.c.obj
 0002:00037478       ??_C@_05CHEEEKEC@pabsd?$AA@ 0000000071125478     decode_table.c.obj
 0002:00037480       ??_C@_06OFLNJABM@vpabsw?$AA@ 0000000071125480     decode_table.c.obj
 0002:00037488       ??_C@_05EGKLALNA@pabsw?$AA@ 0000000071125488     decode_table.c.obj
 0002:00037490       ??_C@_06NCAIHGAI@vpabsb?$AA@ 0000000071125490     decode_table.c.obj
 0002:00037498       ??_C@_05HBBOONME@pabsb?$AA@ 0000000071125498     decode_table.c.obj
 0002:000374a0       ??_C@_09MDLEEJOH@vpmulhrsw?$AA@ 00000000711254a0     decode_table.c.obj
 0002:000374b0       ??_C@_08DNGAMAOA@pmulhrsw?$AA@ 00000000711254b0     decode_table.c.obj
 0002:000374c0       ??_C@_07OADHIFMK@vpsignd?$AA@ 00000000711254c0     decode_table.c.obj
 0002:000374c8       ??_C@_06HCEGBNMK@psignd?$AA@ 00000000711254c8     decode_table.c.obj
 0002:000374d0       ??_C@_07IBNIMEFI@vpsignw?$AA@ 00000000711254d0     decode_table.c.obj
 0002:000374d8       ??_C@_06BDKJFMFI@psignw?$AA@ 00000000711254d8     decode_table.c.obj
 0002:000374e0       ??_C@_07LGGNCCEM@vpsignb?$AA@ 00000000711254e0     decode_table.c.obj
 0002:000374e8       ??_C@_06CEBMLKEM@psignb?$AA@ 00000000711254e8     decode_table.c.obj
 0002:000374f0       ??_C@_08JFCENEHM@vphsubsw?$AA@ 00000000711254f0     decode_table.c.obj
 0002:00037500       ??_C@_07JFLGKFOE@phsubsw?$AA@ 0000000071125500     decode_table.c.obj
 0002:00037508       ??_C@_07FAHMJOMB@vphsubd?$AA@ 0000000071125508     decode_table.c.obj
 0002:00037510       ??_C@_06MCANAGMB@phsubd?$AA@ 0000000071125510     decode_table.c.obj
 0002:00037518       ??_C@_07DBJDNPFD@vphsubw?$AA@ 0000000071125518     decode_table.c.obj
 0002:00037520       ??_C@_06KDOCEHFD@phsubw?$AA@ 0000000071125520     decode_table.c.obj
 0002:00037528       ??_C@_0L@LPIDNJFI@vpmaddubsw?$AA@ 0000000071125528     decode_table.c.obj
 0002:00037538       ??_C@_09CBBJJIHC@pmaddubsw?$AA@ 0000000071125538     decode_table.c.obj
 0002:00037548       ??_C@_08KDNBJGAC@vphaddsw?$AA@ 0000000071125548     decode_table.c.obj
 0002:00037558       ??_C@_07KDEDOHJK@phaddsw?$AA@ 0000000071125558     decode_table.c.obj
 0002:00037560       ??_C@_07KGHEBGGL@vphaddd?$AA@ 0000000071125560     decode_table.c.obj
 0002:00037568       ??_C@_06DEAFIOGL@phaddd?$AA@ 0000000071125568     decode_table.c.obj
 0002:00037570       ??_C@_07MHJLFHPJ@vphaddw?$AA@ 0000000071125570     decode_table.c.obj
 0002:00037578       ??_C@_06FFOKMPPJ@phaddw?$AA@ 0000000071125578     decode_table.c.obj
 0002:00037580       ??_C@_07HPAOMFFA@vpshufb?$AA@ 0000000071125580     decode_table.c.obj
 0002:00037588       ??_C@_06ONHPFNFA@pshufb?$AA@ 0000000071125588     decode_table.c.obj
 0002:00037590       ??_C@_06ENJADELM@vlddqu?$AA@ 0000000071125590     decode_table.c.obj
 0002:00037598       ??_C@_05OOIGKPHA@lddqu?$AA@ 0000000071125598     decode_table.c.obj
 0002:000375a0       ??_C@_09PKCKFMDL@vaddsubps?$AA@ 00000000711255a0     decode_table.c.obj
 0002:000375b0       ??_C@_09PPKJNIKN@vaddsubpd?$AA@ 00000000711255b0     decode_table.c.obj
 0002:000375c0       ??_C@_08EPONFDM@addsubps?$AA@ 00000000711255c0     decode_table.c.obj
 0002:000375d0       ??_C@_08BHNFBKK@addsubpd?$AA@ 00000000711255d0     decode_table.c.obj
 0002:000375e0       ??_C@_07DFPDNHDO@vhsubps?$AA@ 00000000711255e0     decode_table.c.obj
 0002:000375e8       ??_C@_07DAHAFDKI@vhsubpd?$AA@ 00000000711255e8     decode_table.c.obj
 0002:000375f0       ??_C@_06KHICEPDO@hsubps?$AA@ 00000000711255f0     decode_table.c.obj
 0002:000375f8       ??_C@_06KCABMLKI@hsubpd?$AA@ 00000000711255f8     decode_table.c.obj
 0002:00037600       ??_C@_07DAGJFEA@vhaddps?$AA@ 0000000071125600     decode_table.c.obj
 0002:00037608       ??_C@_07GIFBBNG@vhaddpd?$AA@ 0000000071125608     decode_table.c.obj
 0002:00037610       ??_C@_06JBHHANEA@haddps?$AA@ 0000000071125610     decode_table.c.obj
 0002:00037618       ??_C@_06JEPEIJNG@haddpd?$AA@ 0000000071125618     decode_table.c.obj
 0002:00037620       ??_C@_07ICCAFJB@vmovdqa?$AA@ 0000000071125620     decode_table.c.obj
 0002:00037628       ??_C@_07CGIMNCME@vmovdqu?$AA@ 0000000071125628     decode_table.c.obj
 0002:00037630       ??_C@_06JKFDJNJB@movdqa?$AA@ 0000000071125630     decode_table.c.obj
 0002:00037638       ??_C@_06LEPNEKME@movdqu?$AA@ 0000000071125638     decode_table.c.obj
 0002:00037640       ??_C@_05PDJBBECF@pause?$AA@ 0000000071125640     decode_table.c.obj
 0002:00037648       ??_C@_0O@NGAEAGAE@?$CIrex?4b?5ext?50?$CJ?$AA@ 0000000071125648     decode_table.c.obj
 0002:00037658       ??_C@_07MFPEOOHJ@vpslldq?$AA@ 0000000071125658     decode_table.c.obj
 0002:00037660       ??_C@_06FHIFHGHJ@pslldq?$AA@ 0000000071125660     decode_table.c.obj
 0002:00037668       ??_C@_07BKCEMHJK@vpsrldq?$AA@ 0000000071125668     decode_table.c.obj
 0002:00037670       ??_C@_06IIFFFPJK@psrldq?$AA@ 0000000071125670     decode_table.c.obj
 0002:00037678       ??_C@_06LIFADLKH@vpaddd?$AA@ 0000000071125678     decode_table.c.obj
 0002:00037680       ??_C@_05BLEGKAGL@paddd?$AA@ 0000000071125680     decode_table.c.obj
 0002:00037688       ??_C@_06NJLPHKDF@vpaddw?$AA@ 0000000071125688     decode_table.c.obj
 0002:00037690       ??_C@_05HKKJOBPJ@paddw?$AA@ 0000000071125690     decode_table.c.obj
 0002:00037698       ??_C@_06OOAKJMCB@vpaddb?$AA@ 0000000071125698     decode_table.c.obj
 0002:000376a0       ??_C@_05ENBMAHON@paddb?$AA@ 00000000711256a0     decode_table.c.obj
 0002:000376a8       ??_C@_06HJONFFBJ@vpsubq?$AA@ 00000000711256a8     decode_table.c.obj
 0002:000376b0       ??_C@_05NKPLMONF@psubq?$AA@ 00000000711256b0     decode_table.c.obj
 0002:000376b8       ??_C@_06EOFILDAN@vpsubd?$AA@ 00000000711256b8     decode_table.c.obj
 0002:000376c0       ??_C@_05ONEOCIMB@psubd?$AA@ 00000000711256c0     decode_table.c.obj
 0002:000376c8       ??_C@_06CPLHPCJP@vpsubw?$AA@ 00000000711256c8     decode_table.c.obj
 0002:000376d0       ??_C@_05IMKBGJFD@psubw?$AA@ 00000000711256d0     decode_table.c.obj
 0002:000376d8       ??_C@_06BIACBEIL@vpsubb?$AA@ 00000000711256d8     decode_table.c.obj
 0002:000376e0       ??_C@_05LLBEIPEH@psubb?$AA@ 00000000711256e0     decode_table.c.obj
 0002:000376e8       ??_C@_0M@HIPJIAEN@vmaskmovdqu?$AA@ 00000000711256e8     decode_table.c.obj
 0002:000376f8       ??_C@_0L@KDNMNDNK@maskmovdqu?$AA@ 00000000711256f8     decode_table.c.obj
 0002:00037708       ??_C@_08HDJHBAFE@maskmovq?$AA@ 0000000071125708     decode_table.c.obj
 0002:00037718       ??_C@_07KKAHNJBD@vpsadbw?$AA@ 0000000071125718     decode_table.c.obj
 0002:00037720       ??_C@_06DIHGEBBD@psadbw?$AA@ 0000000071125720     decode_table.c.obj
 0002:00037728       ??_C@_08JHAPFAOL@vpmaddwd?$AA@ 0000000071125728     decode_table.c.obj
 0002:00037738       ??_C@_07JHJNCBHD@pmaddwd?$AA@ 0000000071125738     decode_table.c.obj
 0002:00037740       ??_C@_08POEIJAGA@vpmuludq?$AA@ 0000000071125740     decode_table.c.obj
 0002:00037750       ??_C@_07PONKOBPI@pmuludq?$AA@ 0000000071125750     decode_table.c.obj
 0002:00037758       ??_C@_06FOGCGAAG@vpsllq?$AA@ 0000000071125758     decode_table.c.obj
 0002:00037760       ??_C@_05PNHEPLMK@psllq?$AA@ 0000000071125760     decode_table.c.obj
 0002:00037768       ??_C@_06GJNHIGBC@vpslld?$AA@ 0000000071125768     decode_table.c.obj
 0002:00037770       ??_C@_05MKMBBNNO@pslld?$AA@ 0000000071125770     decode_table.c.obj
 0002:00037778       ??_C@_06IDIMHIA@vpsllw?$AA@ 0000000071125778     decode_table.c.obj
 0002:00037780       ??_C@_05KLCOFMEM@psllw?$AA@ 0000000071125780     decode_table.c.obj
 0002:00037788       ??_C@_05JKJNEPFF@vpxor?$AA@ 0000000071125788     decode_table.c.obj
 0002:00037790       ??_C@_04DAAGPHDH@pxor?$AA@ 0000000071125790     decode_table.c.obj
 0002:00037798       ??_C@_07JEPAJLJI@vpmaxsw?$AA@ 0000000071125798     decode_table.c.obj
 0002:000377a0       ??_C@_06GIBADJI@pmaxsw?$AA@ 00000000711257a0     decode_table.c.obj
 0002:000377a8       ??_C@_07DBBNDMLE@vpaddsw?$AA@ 00000000711257a8     decode_table.c.obj
 0002:000377b0       ??_C@_06KDGMKELE@paddsw?$AA@ 00000000711257b0     decode_table.c.obj
 0002:000377b8       ??_C@_07GKINKKA@vpaddsb?$AA@ 00000000711257b8     decode_table.c.obj
 0002:000377c0       ??_C@_06JENJECKA@paddsb?$AA@ 00000000711257c0     decode_table.c.obj
 0002:000377c8       ??_C@_04HKPCCKHI@vpor?$AA@ 00000000711257c8     decode_table.c.obj
 0002:000377d0       ??_C@_03OLAGBHBG@por?$AA@  00000000711257d0     decode_table.c.obj
 0002:000377d8       ??_C@_07NBPCNIBK@vpminsw?$AA@ 00000000711257d8     decode_table.c.obj
 0002:000377e0       ??_C@_06EDIDEABK@pminsw?$AA@ 00000000711257e0     decode_table.c.obj
 0002:000377e8       ??_C@_07HOIHOMK@vpsubsw?$AA@ 00000000711257e8     decode_table.c.obj
 0002:000377f0       ??_C@_06JFJJOGMK@psubsw?$AA@ 00000000711257f0     decode_table.c.obj
 0002:000377f8       ??_C@_07DAFNJINO@vpsubsb?$AA@ 00000000711257f8     decode_table.c.obj
 0002:00037800       ??_C@_06KCCMAANO@psubsb?$AA@ 0000000071125800     decode_table.c.obj
 0002:00037808       ??_C@_08MKIBODBI@vmovntdq?$AA@ 0000000071125808     decode_table.c.obj
 0002:00037818       ??_C@_07MKBDJCIA@movntdq?$AA@ 0000000071125818     decode_table.c.obj
 0002:00037820       ??_C@_06LJOHKNEP@movntq?$AA@ 0000000071125820     decode_table.c.obj
 0002:00037828       ??_C@_09LEJMHEDF@vcvtpd2dq?$AA@ 0000000071125828     decode_table.c.obj
 0002:00037838       ??_C@_0L@EPPDHPPA@vcvttpd2dq?$AA@ 0000000071125838     decode_table.c.obj
 0002:00037848       ??_C@_09KIEBMBPC@vcvtdq2pd?$AA@ 0000000071125848     decode_table.c.obj
 0002:00037858       ??_C@_08EKEIPNDC@cvtpd2dq?$AA@ 0000000071125858     decode_table.c.obj
 0002:00037868       ??_C@_09NBGJDONK@cvttpd2dq?$AA@ 0000000071125868     decode_table.c.obj
 0002:00037878       ??_C@_08FGJFEIPF@cvtdq2pd?$AA@ 0000000071125878     decode_table.c.obj
 0002:00037888       ??_C@_07MOJICGID@vpmulhw?$AA@ 0000000071125888     decode_table.c.obj
 0002:00037890       ??_C@_06FMOJLOID@pmulhw?$AA@ 0000000071125890     decode_table.c.obj
 0002:00037898       ??_C@_08BHIFHBOD@vpmulhuw?$AA@ 0000000071125898     decode_table.c.obj
 0002:000378a8       ??_C@_07BHBHAAHL@pmulhuw?$AA@ 00000000711258a8     decode_table.c.obj
 0002:000378b0       ??_C@_06CBOJFLHI@vpavgw?$AA@ 00000000711258b0     decode_table.c.obj
 0002:000378b8       ??_C@_05ICPPMALE@pavgw?$AA@ 00000000711258b8     decode_table.c.obj
 0002:000378c0       ??_C@_06NBMJDFON@vpsrad?$AA@ 00000000711258c0     decode_table.c.obj
 0002:000378c8       ??_C@_05HCNPKOCB@psrad?$AA@ 00000000711258c8     decode_table.c.obj
 0002:000378d0       ??_C@_06LACGHEHP@vpsraw?$AA@ 00000000711258d0     decode_table.c.obj
 0002:000378d8       ??_C@_05BDDAOPLD@psraw?$AA@ 00000000711258d8     decode_table.c.obj
 0002:000378e0       ??_C@_06BGFMLNGM@vpavgb?$AA@ 00000000711258e0     decode_table.c.obj
 0002:000378e8       ??_C@_05LFEKCGKA@pavgb?$AA@ 00000000711258e8     decode_table.c.obj
 0002:000378f0       ??_C@_06CNACDDEJ@vpandn?$AA@ 00000000711258f0     decode_table.c.obj
 0002:000378f8       ??_C@_05IOBEKIIF@pandn?$AA@ 00000000711258f8     decode_table.c.obj
 0002:00037900       ??_C@_07KHMIABDO@vpmaxub?$AA@ 0000000071125900     decode_table.c.obj
 0002:00037908       ??_C@_06DFLJJJDO@pmaxub?$AA@ 0000000071125908     decode_table.c.obj
 0002:00037910       ??_C@_08IOCBHCJI@vpaddusw?$AA@ 0000000071125910     decode_table.c.obj
 0002:00037920       ??_C@_07IOLDADAA@paddusw?$AA@ 0000000071125920     decode_table.c.obj
 0002:00037928       ??_C@_08LJJEJEIM@vpaddusb?$AA@ 0000000071125928     decode_table.c.obj
 0002:00037938       ??_C@_07LJAGOFBE@paddusb?$AA@ 0000000071125938     decode_table.c.obj
 0002:00037940       ??_C@_05KKNGIIKA@vpand?$AA@ 0000000071125940     decode_table.c.obj
 0002:00037948       ??_C@_04ENDAMC@pand?$AA@   0000000071125948     decode_table.c.obj
 0002:00037950       ??_C@_07OCMKECLM@vpminub?$AA@ 0000000071125950     decode_table.c.obj
 0002:00037958       ??_C@_06HALLNKLM@pminub?$AA@ 0000000071125958     decode_table.c.obj
 0002:00037960       ??_C@_08DJKKNLOB@vpsubusw?$AA@ 0000000071125960     decode_table.c.obj
 0002:00037970       ??_C@_07DJDIKKHJ@psubusw?$AA@ 0000000071125970     decode_table.c.obj
 0002:00037978       ??_C@_08OBPDNPF@vpsubusb?$AA@ 0000000071125978     decode_table.c.obj
 0002:00037988       ??_C@_07OINEMGN@psubusb?$AA@ 0000000071125988     decode_table.c.obj
 0002:00037990       ??_C@_09PHILFHFD@vpmovmskb?$AA@ 0000000071125990     decode_table.c.obj
 0002:000379a0       ??_C@_08JFPNOFE@pmovmskb?$AA@ 00000000711259a0     decode_table.c.obj
 0002:000379b0       ??_C@_07NPEMCIBB@movdq2q?$AA@ 00000000711259b0     decode_table.c.obj
 0002:000379b8       ??_C@_07JGNMJFDC@movq2dq?$AA@ 00000000711259b8     decode_table.c.obj
 0002:000379c0       ??_C@_07MJJBIOFP@vpmullw?$AA@ 00000000711259c0     decode_table.c.obj
 0002:000379c8       ??_C@_06FLOABGFP@pmullw?$AA@ 00000000711259c8     decode_table.c.obj
 0002:000379d0       ??_C@_06IPOFNNLD@vpaddq?$AA@ 00000000711259d0     decode_table.c.obj
 0002:000379d8       ??_C@_05CMPDEGHP@paddq?$AA@ 00000000711259d8     decode_table.c.obj
 0002:000379e0       ??_C@_06OOKEEAKK@vpsrlq?$AA@ 00000000711259e0     decode_table.c.obj
 0002:000379e8       ??_C@_05ENLCNLGG@psrlq?$AA@ 00000000711259e8     decode_table.c.obj
 0002:000379f0       ??_C@_06NJBBKGLO@vpsrld?$AA@ 00000000711259f0     decode_table.c.obj
 0002:000379f8       ??_C@_05HKAHDNHC@psrld?$AA@ 00000000711259f8     decode_table.c.obj
 0002:00037a00       ??_C@_06LIPOOHCM@vpsrlw?$AA@ 0000000071125a00     decode_table.c.obj
 0002:00037a08       ??_C@_05BLOIHMOA@psrlw?$AA@ 0000000071125a08     decode_table.c.obj
 0002:00037a10       ??_C@_07LDNKPOJD@vshufpd?$AA@ 0000000071125a10     decode_table.c.obj
 0002:00037a18       ??_C@_07LGFJHKAF@vshufps?$AA@ 0000000071125a18     decode_table.c.obj
 0002:00037a20       ??_C@_06CBKLGGJD@shufpd?$AA@ 0000000071125a20     decode_table.c.obj
 0002:00037a28       ??_C@_06CECIOCAF@shufps?$AA@ 0000000071125a28     decode_table.c.obj
 0002:00037a30       ??_C@_09OGHDJNBD@vcvtps2ph?$AA@ 0000000071125a30     decode_table.c.obj
 0002:00037a40       ??_C@_0N@GHEEFFJN@vextractf128?$AA@ 0000000071125a40     decode_table.c.obj
 0002:00037a50       ??_C@_0M@HPBOMOMM@vinsertf128?$AA@ 0000000071125a50     decode_table.c.obj
 0002:00037a60       ??_C@_0L@EBGBBKJC@vperm2f128?$AA@ 0000000071125a60     decode_table.c.obj
 0002:00037a70       ??_C@_09PAKFEJKO@vpermilpd?$AA@ 0000000071125a70     decode_table.c.obj
 0002:00037a80       ??_C@_09PFCGMNDI@vpermilps?$AA@ 0000000071125a80     decode_table.c.obj
 0002:00037a90       ??_C@_0L@PCLMIHED@vmaskmovpd?$AA@ 0000000071125a90     decode_table.c.obj
 0002:00037aa0       ??_C@_0L@PHDPADNF@vmaskmovps?$AA@ 0000000071125aa0     decode_table.c.obj
 0002:00037ab0       ??_C@_0P@PCAIGGIP@vbroadcastf128?$AA@ 0000000071125ab0     decode_table.c.obj
 0002:00037ac0       ??_C@_0N@MDBHDICD@vbroadcastsd?$AA@ 0000000071125ac0     decode_table.c.obj
 0002:00037ad0       ??_C@_0N@MGJELMLF@vbroadcastss?$AA@ 0000000071125ad0     decode_table.c.obj
 0002:00037ae0       ??_C@_09FIHFPABK@vcvtph2ps?$AA@ 0000000071125ae0     decode_table.c.obj
 0002:00037af0       ??_C@_08LPFCBBFP@vstmxcsr?$AA@ 0000000071125af0     decode_table.c.obj
 0002:00037b00       ??_C@_07LPMAGAMH@stmxcsr?$AA@ 0000000071125b00     decode_table.c.obj
 0002:00037b08       ??_C@_08HNBHKOBG@vldmxcsr?$AA@ 0000000071125b08     decode_table.c.obj
 0002:00037b18       ??_C@_07HNIFNPIO@ldmxcsr?$AA@ 0000000071125b18     decode_table.c.obj
 0002:00037b20       ??_C@_07LPLDLJHH@vtestpd?$AA@ 0000000071125b20     decode_table.c.obj
 0002:00037b28       ??_C@_07LKDADNOB@vtestps?$AA@ 0000000071125b28     decode_table.c.obj
 0002:00037b30       ??_C@_0BB@PMMLANHC@vaeskeygenassist?$AA@ 0000000071125b30     decode_table.c.obj
 0002:00037b48       ??_C@_0BA@BKBPMOOB@aeskeygenassist?$AA@ 0000000071125b48     decode_table.c.obj
 0002:00037b58       ??_C@_0L@NBDJJMAH@vpclmulqdq?$AA@ 0000000071125b58     decode_table.c.obj
 0002:00037b68       ??_C@_09EPKDNNCN@pclmulqdq?$AA@ 0000000071125b68     decode_table.c.obj
 0002:00037b78       ??_C@_0L@CAFABEIN@vpcmpistri?$AA@ 0000000071125b78     decode_table.c.obj
 0002:00037b88       ??_C@_09LOMKFFKH@pcmpistri?$AA@ 0000000071125b88     decode_table.c.obj
 0002:00037b98       ??_C@_0L@EEDMNBIJ@vpcmpistrm?$AA@ 0000000071125b98     decode_table.c.obj
 0002:00037ba8       ??_C@_09NKKGJAKD@pcmpistrm?$AA@ 0000000071125ba8     decode_table.c.obj
 0002:00037bb8       ??_C@_0L@FHJCNEPG@vpcmpestri?$AA@ 0000000071125bb8     decode_table.c.obj
 0002:00037bc8       ??_C@_09MJAIJFNM@pcmpestri?$AA@ 0000000071125bc8     decode_table.c.obj
 0002:00037bd8       ??_C@_0L@DDPOBBPC@vpcmpestrm?$AA@ 0000000071125bd8     decode_table.c.obj
 0002:00037be8       ??_C@_09KNGEFANI@pcmpestrm?$AA@ 0000000071125be8     decode_table.c.obj
 0002:00037bf8       ??_C@_08ILEEIFPG@vmpsadbw?$AA@ 0000000071125bf8     decode_table.c.obj
 0002:00037c08       ??_C@_07ILNGPEGO@mpsadbw?$AA@ 0000000071125c08     decode_table.c.obj
 0002:00037c10       ??_C@_05MBKLAHGC@vdppd?$AA@ 0000000071125c10     decode_table.c.obj
 0002:00037c18       ??_C@_04GLDALPAA@dppd?$AA@ 0000000071125c18     decode_table.c.obj
 0002:00037c20       ??_C@_05MECIIDPE@vdpps?$AA@ 0000000071125c20     decode_table.c.obj
 0002:00037c28       ??_C@_04GOLDDLJG@dpps?$AA@ 0000000071125c28     decode_table.c.obj
 0002:00037c30       ??_C@_07DKBNOCPL@vpinsrd?$AA@ 0000000071125c30     decode_table.c.obj
 0002:00037c38       ??_C@_06KIGMHKPL@pinsrd?$AA@ 0000000071125c38     decode_table.c.obj
 0002:00037c40       ??_C@_09GAJGHFHO@vinsertps?$AA@ 0000000071125c40     decode_table.c.obj
 0002:00037c50       ??_C@_08JOECPMHJ@insertps?$AA@ 0000000071125c50     decode_table.c.obj
 0002:00037c60       ??_C@_07GMEHEFHN@vpinsrb?$AA@ 0000000071125c60     decode_table.c.obj
 0002:00037c68       ??_C@_06PODGNNHN@pinsrb?$AA@ 0000000071125c68     decode_table.c.obj
 0002:00037c70       ??_C@_08PAILKGLD@vpblendw?$AA@ 0000000071125c70     decode_table.c.obj
 0002:00037c80       ??_C@_07PABJNHCL@pblendw?$AA@ 0000000071125c80     decode_table.c.obj
 0002:00037c88       ??_C@_08NLIICBDL@vblendpd?$AA@ 0000000071125c88     decode_table.c.obj
 0002:00037c98       ??_C@_07NLBKFAKD@blendpd?$AA@ 0000000071125c98     decode_table.c.obj
 0002:00037ca0       ??_C@_08NOALKFKN@vblendps?$AA@ 0000000071125ca0     decode_table.c.obj
 0002:00037cb0       ??_C@_07NOJJNEDF@blendps?$AA@ 0000000071125cb0     decode_table.c.obj
 0002:00037cb8       ??_C@_08JHELLGEP@vroundsd?$AA@ 0000000071125cb8     decode_table.c.obj
 0002:00037cc8       ??_C@_07JHNJMHNH@roundsd?$AA@ 0000000071125cc8     decode_table.c.obj
 0002:00037cd0       ??_C@_08JCMIDCNJ@vroundss?$AA@ 0000000071125cd0     decode_table.c.obj
 0002:00037ce0       ??_C@_07JCFKEDEB@roundss?$AA@ 0000000071125ce0     decode_table.c.obj
 0002:00037ce8       ??_C@_08JFANAIBG@vroundpd?$AA@ 0000000071125ce8     decode_table.c.obj
 0002:00037cf8       ??_C@_07JFJPHJIO@roundpd?$AA@ 0000000071125cf8     decode_table.c.obj
 0002:00037d00       ??_C@_08JAIOIMIA@vroundps?$AA@ 0000000071125d00     decode_table.c.obj
 0002:00037d10       ??_C@_07JABMPNBI@roundps?$AA@ 0000000071125d10     decode_table.c.obj
 0002:00037d18       ??_C@_0L@EDDICPO@vextractps?$AA@ 0000000071125d18     decode_table.c.obj
 0002:00037d28       ??_C@_09JKKJMDNE@extractps?$AA@ 0000000071125d28     decode_table.c.obj
 0002:00037d38       ??_C@_07DPKIHIBL@vpextrd?$AA@ 0000000071125d38     decode_table.c.obj
 0002:00037d40       ??_C@_06KNNJOABL@pextrd?$AA@ 0000000071125d40     decode_table.c.obj
 0002:00037d48       ??_C@_07FOEHDJIJ@vpextrw?$AA@ 0000000071125d48     decode_table.c.obj
 0002:00037d50       ??_C@_07GJPCNPJN@vpextrb?$AA@ 0000000071125d50     decode_table.c.obj
 0002:00037d58       ??_C@_06PLIDEHJN@pextrb?$AA@ 0000000071125d58     decode_table.c.obj
 0002:00037d60       ??_C@_0M@OBBELEHO@vaesdeclast?$AA@ 0000000071125d60     decode_table.c.obj
 0002:00037d70       ??_C@_0L@DKDBOHOJ@aesdeclast?$AA@ 0000000071125d70     decode_table.c.obj
 0002:00037d80       ??_C@_07IPOAKKNN@vaesdec?$AA@ 0000000071125d80     decode_table.c.obj
 0002:00037d88       ??_C@_06BNJBDCNN@aesdec?$AA@ 0000000071125d88     decode_table.c.obj
 0002:00037d90       ??_C@_0M@CPLJOABK@vaesenclast?$AA@ 0000000071125d90     decode_table.c.obj
 0002:00037da0       ??_C@_0L@PEJMLDIN@aesenclast?$AA@ 0000000071125da0     decode_table.c.obj
 0002:00037db0       ??_C@_07DLAJCCFJ@vaesenc?$AA@ 0000000071125db0     decode_table.c.obj
 0002:00037db8       ??_C@_06KJHILKFJ@aesenc?$AA@ 0000000071125db8     decode_table.c.obj
 0002:00037dc0       ??_C@_07HDJJCDLI@vaesimc?$AA@ 0000000071125dc0     decode_table.c.obj
 0002:00037dc8       ??_C@_06OBOILLLI@aesimc?$AA@ 0000000071125dc8     decode_table.c.obj
 0002:00037dd0       ??_C@_0M@JBMAEGIN@vphminposuw?$AA@ 0000000071125dd0     decode_table.c.obj
 0002:00037de0       ??_C@_0L@EKOFBFBK@phminposuw?$AA@ 0000000071125de0     decode_table.c.obj
 0002:00037df0       ??_C@_07KIHOMPMN@vpmulld?$AA@ 0000000071125df0     decode_table.c.obj
 0002:00037df8       ??_C@_06DKAPFHMN@pmulld?$AA@ 0000000071125df8     decode_table.c.obj
 0002:00037e00       ??_C@_07PBJCKGLI@vpmaxud?$AA@ 0000000071125e00     decode_table.c.obj
 0002:00037e08       ??_C@_06GDODDOLI@pmaxud?$AA@ 0000000071125e08     decode_table.c.obj
 0002:00037e10       ??_C@_07JAHNOHCK@vpmaxuw?$AA@ 0000000071125e10     decode_table.c.obj
 0002:00037e18       ??_C@_06CAMHPCK@pmaxuw?$AA@ 0000000071125e18     decode_table.c.obj
 0002:00037e20       ??_C@_07PFBPNKAK@vpmaxsd?$AA@ 0000000071125e20     decode_table.c.obj
 0002:00037e28       ??_C@_06GHGOECAK@pmaxsd?$AA@ 0000000071125e28     decode_table.c.obj
 0002:00037e30       ??_C@_07KDEFHNIM@vpmaxsb?$AA@ 0000000071125e30     decode_table.c.obj
 0002:00037e38       ??_C@_06DBDEOFIM@pmaxsb?$AA@ 0000000071125e38     decode_table.c.obj
 0002:00037e40       ??_C@_07LEJAOFDK@vpminud?$AA@ 0000000071125e40     decode_table.c.obj
 0002:00037e48       ??_C@_06CGOBHNDK@pminud?$AA@ 0000000071125e48     decode_table.c.obj
 0002:00037e50       ??_C@_07NFHPKEKI@vpminuw?$AA@ 0000000071125e50     decode_table.c.obj
 0002:00037e58       ??_C@_06EHAODMKI@pminuw?$AA@ 0000000071125e58     decode_table.c.obj
 0002:00037e60       ??_C@_07LABNJJII@vpminsd?$AA@ 0000000071125e60     decode_table.c.obj
 0002:00037e68       ??_C@_06CCGMABII@pminsd?$AA@ 0000000071125e68     decode_table.c.obj
 0002:00037e70       ??_C@_07OGEHDOAO@vpminsb?$AA@ 0000000071125e70     decode_table.c.obj
 0002:00037e78       ??_C@_06HEDGKGAO@pminsb?$AA@ 0000000071125e78     decode_table.c.obj
 0002:00037e80       ??_C@_08CNECNCM@vpcmpgtq?$AA@ 0000000071125e80     decode_table.c.obj
 0002:00037e90       ??_C@_07CEGFMLE@pcmpgtq?$AA@ 0000000071125e90     decode_table.c.obj
 0002:00037e98       ??_C@_09JIPJJNGP@vpmovzxdq?$AA@ 0000000071125e98     decode_table.c.obj
 0002:00037ea8       ??_C@_08GGCNBEGI@pmovzxdq?$AA@ 0000000071125ea8     decode_table.c.obj
 0002:00037eb8       ??_C@_09IGJJIAEG@vpmovzxwq?$AA@ 0000000071125eb8     decode_table.c.obj
 0002:00037ec8       ??_C@_08HIENAJEB@pmovzxwq?$AA@ 0000000071125ec8     decode_table.c.obj
 0002:00037ed8       ??_C@_09LBCMGGFC@vpmovzxwd?$AA@ 0000000071125ed8     decode_table.c.obj
 0002:00037ee8       ??_C@_08EPPIOPFF@pmovzxwd?$AA@ 0000000071125ee8     decode_table.c.obj
 0002:00037ef8       ??_C@_09JMHEOBNN@vpmovzxbq?$AA@ 0000000071125ef8     decode_table.c.obj
 0002:00037f08       ??_C@_08GCKAGINK@pmovzxbq?$AA@ 0000000071125f08     decode_table.c.obj
 0002:00037f18       ??_C@_09KLMBAHMJ@vpmovzxbd?$AA@ 0000000071125f18     decode_table.c.obj
 0002:00037f28       ??_C@_08FFBFIOMO@pmovzxbd?$AA@ 0000000071125f28     decode_table.c.obj
 0002:00037f38       ??_C@_09MKCOEGFL@vpmovzxbw?$AA@ 0000000071125f38     decode_table.c.obj
 0002:00037f48       ??_C@_08DEPKMPFM@pmovzxbw?$AA@ 0000000071125f48     decode_table.c.obj
 0002:00037f58       ??_C@_09LELFEEEH@vpackusdw?$AA@ 0000000071125f58     decode_table.c.obj
 0002:00037f68       ??_C@_08EKGBMNEA@packusdw?$AA@ 0000000071125f68     decode_table.c.obj
 0002:00037f78       ??_C@_09GPEAEDFD@vmovntdqa?$AA@ 0000000071125f78     decode_table.c.obj
 0002:00037f88       ??_C@_08JBJEMKFE@movntdqa?$AA@ 0000000071125f88     decode_table.c.obj
 0002:00037f98       ??_C@_08KOBGCHEM@vpcmpeqq?$AA@ 0000000071125f98     decode_table.c.obj
 0002:00037fa8       ??_C@_07KOIEFGNE@pcmpeqq?$AA@ 0000000071125fa8     decode_table.c.obj
 0002:00037fb0       ??_C@_07JBNIHIGB@vpmuldq?$AA@ 0000000071125fb0     decode_table.c.obj
 0002:00037fb8       ??_C@_06DKJOAGB@pmuldq?$AA@ 0000000071125fb8     decode_table.c.obj
 0002:00037fc0       ??_C@_09JFOJPPBO@vpmovsxdq?$AA@ 0000000071125fc0     decode_table.c.obj
 0002:00037fd0       ??_C@_08GLDNHGBJ@pmovsxdq?$AA@ 0000000071125fd0     decode_table.c.obj
 0002:00037fe0       ??_C@_09ILIJOCDH@vpmovsxwq?$AA@ 0000000071125fe0     decode_table.c.obj
 0002:00037ff0       ??_C@_08HFFNGLDA@pmovsxwq?$AA@ 0000000071125ff0     decode_table.c.obj
 0002:00038000       ??_C@_09LMDMAECD@vpmovsxwd?$AA@ 0000000071126000     decode_table.c.obj
 0002:00038010       ??_C@_08ECOIINCE@pmovsxwd?$AA@ 0000000071126010     decode_table.c.obj
 0002:00038020       ??_C@_09JBGEIDKM@vpmovsxbq?$AA@ 0000000071126020     decode_table.c.obj
 0002:00038030       ??_C@_08GPLAAKKL@pmovsxbq?$AA@ 0000000071126030     decode_table.c.obj
 0002:00038040       ??_C@_09KGNBGFLI@vpmovsxbd?$AA@ 0000000071126040     decode_table.c.obj
 0002:00038050       ??_C@_08FIAFOMLP@pmovsxbd?$AA@ 0000000071126050     decode_table.c.obj
 0002:00038060       ??_C@_09MHDOCECK@vpmovsxbw?$AA@ 0000000071126060     decode_table.c.obj
 0002:00038070       ??_C@_08DJOKKNCN@pmovsxbw?$AA@ 0000000071126070     decode_table.c.obj
 0002:0003807c       ??_C@_06PLEHODJE@vptest?$AA@ 000000007112607c     decode_table.c.obj
 0002:00038084       ??_C@_05FIFBHIFI@ptest?$AA@ 0000000071126084     decode_table.c.obj
 0002:00038090       ??_C@_09EJBAKIC@vpblendvb?$AA@ 0000000071126090     decode_table.c.obj
 0002:000380a0       ??_C@_09IOAFJLNG@vblendvpd?$AA@ 00000000711260a0     decode_table.c.obj
 0002:000380b0       ??_C@_09ILIGBPEA@vblendvps?$AA@ 00000000711260b0     decode_table.c.obj
 0002:000380bc       ??_C@_06MMDGKBIJ@pextrw?$AA@ 00000000711260bc     decode_table.c.obj
 0002:000380c8       ??_C@_07FLPCKDGJ@vpinsrw?$AA@ 00000000711260c8     decode_table.c.obj
 0002:000380d0       ??_C@_06MJIDDLGJ@pinsrw?$AA@ 00000000711260d0     decode_table.c.obj
 0002:000380d8       ??_C@_06DOPANDKO@vcmpsd?$AA@ 00000000711260d8     decode_table.c.obj
 0002:000380e0       ??_C@_06DMLGGNPH@vcmppd?$AA@ 00000000711260e0     decode_table.c.obj
 0002:000380e8       ??_C@_06DLHDFHDI@vcmpss?$AA@ 00000000711260e8     decode_table.c.obj
 0002:000380f0       ??_C@_06DJDFOJGB@vcmpps?$AA@ 00000000711260f0     decode_table.c.obj
 0002:000380f8       ??_C@_05JNOGEIGC@cmpsd?$AA@ 00000000711260f8     decode_table.c.obj
 0002:00038100       ??_C@_05JPKAPGDL@cmppd?$AA@ 0000000071126100     decode_table.c.obj
 0002:00038108       ??_C@_05JIGFMMPE@cmpss?$AA@ 0000000071126108     decode_table.c.obj
 0002:00038110       ??_C@_05JKCDHCKN@cmpps?$AA@ 0000000071126110     decode_table.c.obj
 0002:00038118       ??_C@_05PHPJLIHM@vmovq?$AA@ 0000000071126118     decode_table.c.obj
 0002:00038120       ??_C@_04FNGCAABO@movq?$AA@ 0000000071126120     decode_table.c.obj
 0002:00038128       ??_C@_08JJKDMBFI@vpcmpeqd?$AA@ 0000000071126128     decode_table.c.obj
 0002:00038138       ??_C@_07JJDBLAMA@pcmpeqd?$AA@ 0000000071126138     decode_table.c.obj
 0002:00038140       ??_C@_08PIEMIAMK@vpcmpeqw?$AA@ 0000000071126140     decode_table.c.obj
 0002:00038150       ??_C@_07PINOPBFC@pcmpeqw?$AA@ 0000000071126150     decode_table.c.obj
 0002:00038158       ??_C@_08MPPJGGNO@vpcmpeqb?$AA@ 0000000071126158     decode_table.c.obj
 0002:00038168       ??_C@_07MPGLBHEG@pcmpeqb?$AA@ 0000000071126168     decode_table.c.obj
 0002:00038170       ??_C@_08BPEJNAK@vpshuflw?$AA@ 0000000071126170     decode_table.c.obj
 0002:00038180       ??_C@_07CJFEGCNG@vpshufd?$AA@ 0000000071126180     decode_table.c.obj
 0002:00038188       ??_C@_08GPNDFNG@vpshufhw?$AA@ 0000000071126188     decode_table.c.obj
 0002:00038198       ??_C@_07BGGOMJC@pshuflw?$AA@ 0000000071126198     decode_table.c.obj
 0002:000381a0       ??_C@_06LLCFPKNG@pshufd?$AA@ 00000000711261a0     decode_table.c.obj
 0002:000381a8       ??_C@_07GGPEEEO@pshufhw?$AA@ 00000000711261a8     decode_table.c.obj
 0002:000381b0       ??_C@_06NKMKLLEE@pshufw?$AA@ 00000000711261b0     decode_table.c.obj
 0002:000381b8       ??_C@_05MAEMFOGI@vmovd?$AA@ 00000000711261b8     decode_table.c.obj
 0002:000381c0       ??_C@_04GKNHOGAK@movd?$AA@ 00000000711261c0     decode_table.c.obj
 0002:000381c8       ??_C@_0M@ECLILDNC@vpunpckhqdq?$AA@ 00000000711261c8     decode_table.c.obj
 0002:000381d8       ??_C@_0L@JJJNOAEF@punpckhqdq?$AA@ 00000000711261d8     decode_table.c.obj
 0002:000381e8       ??_C@_0M@LHDIBFBC@vpunpcklqdq?$AA@ 00000000711261e8     decode_table.c.obj
 0002:000381f8       ??_C@_0L@GMBNEGIF@punpcklqdq?$AA@ 00000000711261f8     decode_table.c.obj
 0002:00038208       ??_C@_09DLPFLBOH@vpackssdw?$AA@ 0000000071126208     decode_table.c.obj
 0002:00038218       ??_C@_08MFCBDIOA@packssdw?$AA@ 0000000071126218     decode_table.c.obj
 0002:00038228       ??_C@_0L@HBHIAM@vpunpckhdq?$AA@ 0000000071126228     decode_table.c.obj
 0002:00038238       ??_C@_09JOOLDJCG@punpckhdq?$AA@ 0000000071126238     decode_table.c.obj
 0002:00038248       ??_C@_0L@CJKEIDDB@vpunpckhwd?$AA@ 0000000071126248     decode_table.c.obj
 0002:00038258       ??_C@_09LHDOMCBL@punpckhwd?$AA@ 0000000071126258     decode_table.c.obj
 0002:00038268       ??_C@_0L@FCKGKDDI@vpunpckhbw?$AA@ 0000000071126268     decode_table.c.obj
 0002:00038278       ??_C@_09MMDMOCBC@punpckhbw?$AA@ 0000000071126278     decode_table.c.obj
 0002:00038288       ??_C@_09JNGALPHK@vpackuswb?$AA@ 0000000071126288     decode_table.c.obj
 0002:00038298       ??_C@_08GDLEDGHN@packuswb?$AA@ 0000000071126298     decode_table.c.obj
 0002:000382a8       ??_C@_08DFGBMLDI@vpcmpgtd?$AA@ 00000000711262a8     decode_table.c.obj
 0002:000382b8       ??_C@_07DFPDLKKA@pcmpgtd?$AA@ 00000000711262b8     decode_table.c.obj
 0002:000382c0       ??_C@_08FEIOIKKK@vpcmpgtw?$AA@ 00000000711262c0     decode_table.c.obj
 0002:000382d0       ??_C@_07FEBMPLDC@pcmpgtw?$AA@ 00000000711262d0     decode_table.c.obj
 0002:000382d8       ??_C@_08GDDLGMLO@vpcmpgtb?$AA@ 00000000711262d8     decode_table.c.obj
 0002:000382e8       ??_C@_07GDKJBNCG@pcmpgtb?$AA@ 00000000711262e8     decode_table.c.obj
 0002:000382f0       ??_C@_09BCCAEKNK@vpacksswb?$AA@ 00000000711262f0     decode_table.c.obj
 0002:00038300       ??_C@_08OMPEMDNN@packsswb?$AA@ 0000000071126300     decode_table.c.obj
 0002:00038310       ??_C@_0L@IPBDOPFL@vpunpckldq?$AA@ 0000000071126310     decode_table.c.obj
 0002:00038320       ??_C@_09BBIJKOHB@punpckldq?$AA@ 0000000071126320     decode_table.c.obj
 0002:00038330       ??_C@_0L@KGMGBEGG@vpunpcklwd?$AA@ 0000000071126330     decode_table.c.obj
 0002:00038340       ??_C@_09DIFMFFEM@punpcklwd?$AA@ 0000000071126340     decode_table.c.obj
 0002:00038350       ??_C@_0L@NNMEDEGP@vpunpcklbw?$AA@ 0000000071126350     decode_table.c.obj
 0002:00038360       ??_C@_09EDFOHFEF@punpcklbw?$AA@ 0000000071126360     decode_table.c.obj
 0002:0003836c       ??_C@_06ELOHHDA@vmaxsd?$AA@ 000000007112636c     decode_table.c.obj
 0002:00038374       ??_C@_06GPIMJGJ@vmaxpd?$AA@ 0000000071126374     decode_table.c.obj
 0002:0003837c       ??_C@_06BDNPDKG@vmaxss?$AA@ 000000007112637c     decode_table.c.obj
 0002:00038384       ??_C@_06DHLENPP@vmaxps?$AA@ 0000000071126384     decode_table.c.obj
 0002:0003838c       ??_C@_05KHKIOMPM@maxsd?$AA@ 000000007112638c     decode_table.c.obj
 0002:00038394       ??_C@_05KFOOFCKF@maxpd?$AA@ 0000000071126394     decode_table.c.obj
 0002:0003839c       ??_C@_05KCCLGIGK@maxss?$AA@ 000000007112639c     decode_table.c.obj
 0002:000383a4       ??_C@_05KAGNNGDD@maxps?$AA@ 00000000711263a4     decode_table.c.obj
 0002:000383ac       ??_C@_06PDBOBKAK@vdivsd?$AA@ 00000000711263ac     decode_table.c.obj
 0002:000383b4       ??_C@_06PBFIKEFD@vdivpd?$AA@ 00000000711263b4     decode_table.c.obj
 0002:000383bc       ??_C@_06PGJNJOJM@vdivss?$AA@ 00000000711263bc     decode_table.c.obj
 0002:000383c4       ??_C@_06PENLCAMF@vdivps?$AA@ 00000000711263c4     decode_table.c.obj
 0002:000383cc       ??_C@_05FAAIIBMG@divsd?$AA@ 00000000711263cc     decode_table.c.obj
 0002:000383d4       ??_C@_05FCEODPJP@divpd?$AA@ 00000000711263d4     decode_table.c.obj
 0002:000383dc       ??_C@_05FFILAFFA@divss?$AA@ 00000000711263dc     decode_table.c.obj
 0002:000383e4       ??_C@_05FHMNLLAJ@divps?$AA@ 00000000711263e4     decode_table.c.obj
 0002:000383ec       ??_C@_06EBLMDELC@vminsd?$AA@ 00000000711263ec     decode_table.c.obj
 0002:000383f4       ??_C@_06EDPKIKOL@vminpd?$AA@ 00000000711263f4     decode_table.c.obj
 0002:000383fc       ??_C@_06EEDPLACE@vminss?$AA@ 00000000711263fc     decode_table.c.obj
 0002:00038404       ??_C@_06EGHJAOHN@vminps?$AA@ 0000000071126404     decode_table.c.obj
 0002:0003840c       ??_C@_05OCKKKPHO@minsd?$AA@ 000000007112640c     decode_table.c.obj
 0002:00038414       ??_C@_05OAOMBBCH@minpd?$AA@ 0000000071126414     decode_table.c.obj
 0002:0003841c       ??_C@_05OHCJCLOI@minss?$AA@ 000000007112641c     decode_table.c.obj
 0002:00038424       ??_C@_05OFGPJFLB@minps?$AA@ 0000000071126424     decode_table.c.obj
 0002:0003842c       ??_C@_06JHKGJCGC@vsubsd?$AA@ 000000007112642c     decode_table.c.obj
 0002:00038434       ??_C@_06JFOACMDL@vsubpd?$AA@ 0000000071126434     decode_table.c.obj
 0002:0003843c       ??_C@_06JCCFBGPE@vsubss?$AA@ 000000007112643c     decode_table.c.obj
 0002:00038444       ??_C@_06JAGDKIKN@vsubps?$AA@ 0000000071126444     decode_table.c.obj
 0002:0003844c       ??_C@_05DELAAJKO@subsd?$AA@ 000000007112644c     decode_table.c.obj
 0002:00038454       ??_C@_05DGPGLHPH@subpd?$AA@ 0000000071126454     decode_table.c.obj
 0002:0003845c       ??_C@_05DBDDINDI@subss?$AA@ 000000007112645c     decode_table.c.obj
 0002:00038464       ??_C@_05DDHFDDGB@subps?$AA@ 0000000071126464     decode_table.c.obj
 0002:00038470       ??_C@_09GGFMDPKH@vcvtps2dq?$AA@ 0000000071126470     decode_table.c.obj
 0002:00038480       ??_C@_0L@JNDDDEGC@vcvttps2dq?$AA@ 0000000071126480     decode_table.c.obj
 0002:00038490       ??_C@_09KNMCEFGE@vcvtdq2ps?$AA@ 0000000071126490     decode_table.c.obj
 0002:000384a0       ??_C@_08JIIILGKA@cvtps2dq?$AA@ 00000000711264a0     decode_table.c.obj
 0002:000384b0       ??_C@_09DKJHFEI@cvttps2dq?$AA@ 00000000711264b0     decode_table.c.obj
 0002:000384c0       ??_C@_08FDBGMMGD@cvtdq2ps?$AA@ 00000000711264c0     decode_table.c.obj
 0002:000384d0       ??_C@_09BJFHNBOM@vcvtsd2ss?$AA@ 00000000711264d0     decode_table.c.obj
 0002:000384e0       ??_C@_09JNIFBNBL@vcvtpd2ps?$AA@ 00000000711264e0     decode_table.c.obj
 0002:000384f0       ??_C@_09MOBEBOOI@vcvtss2sd?$AA@ 00000000711264f0     decode_table.c.obj
 0002:00038500       ??_C@_09EKMGNCBP@vcvtps2pd?$AA@ 0000000071126500     decode_table.c.obj
 0002:00038510       ??_C@_08OHIDFIOL@cvtsd2ss?$AA@ 0000000071126510     decode_table.c.obj
 0002:00038520       ??_C@_08GDFBJEBM@cvtpd2ps?$AA@ 0000000071126520     decode_table.c.obj
 0002:00038530       ??_C@_08DAMAJHOP@cvtss2sd?$AA@ 0000000071126530     decode_table.c.obj
 0002:00038540       ??_C@_08LEBCFLBI@cvtps2pd?$AA@ 0000000071126540     decode_table.c.obj
 0002:0003854c       ??_C@_06EOKFIGLK@vmulsd?$AA@ 000000007112654c     decode_table.c.obj
 0002:00038554       ??_C@_06EMODDIOD@vmulpd?$AA@ 0000000071126554     decode_table.c.obj
 0002:0003855c       ??_C@_06ELCGACCM@vmulss?$AA@ 000000007112655c     decode_table.c.obj
 0002:00038564       ??_C@_06EJGALMHF@vmulps?$AA@ 0000000071126564     decode_table.c.obj
 0002:0003856c       ??_C@_05ONLDBNHG@mulsd?$AA@ 000000007112656c     decode_table.c.obj
 0002:00038574       ??_C@_05OPPFKDCP@mulpd?$AA@ 0000000071126574     decode_table.c.obj
 0002:0003857c       ??_C@_05OIDAJJOA@mulss?$AA@ 000000007112657c     decode_table.c.obj
 0002:00038584       ??_C@_05OKHGCHLJ@mulps?$AA@ 0000000071126584     decode_table.c.obj
 0002:0003858c       ??_C@_06KBFDNABM@vaddsd?$AA@ 000000007112658c     decode_table.c.obj
 0002:00038594       ??_C@_06KDBFGOEF@vaddpd?$AA@ 0000000071126594     decode_table.c.obj
 0002:0003859c       ??_C@_06KENAFEIK@vaddss?$AA@ 000000007112659c     decode_table.c.obj
 0002:000385a4       ??_C@_06KGJGOKND@vaddps?$AA@ 00000000711265a4     decode_table.c.obj
 0002:000385ac       ??_C@_05CEFELNA@addsd?$AA@ 00000000711265ac     decode_table.c.obj
 0002:000385b4       ??_C@_05DPFIJ@addpd?$AA@   00000000711265b4     decode_table.c.obj
 0002:000385bc       ??_C@_05HMGMPEG@addss?$AA@ 00000000711265bc     decode_table.c.obj
 0002:000385c4       ??_C@_05FIAHBBP@addps?$AA@ 00000000711265c4     decode_table.c.obj
 0002:000385cc       ??_C@_06IFGOAEEE@vxorpd?$AA@ 00000000711265cc     decode_table.c.obj
 0002:000385d4       ??_C@_06IAONIANC@vxorps?$AA@ 00000000711265d4     decode_table.c.obj
 0002:000385dc       ??_C@_05CGHIJPII@xorpd?$AA@ 00000000711265dc     decode_table.c.obj
 0002:000385e4       ??_C@_05CDPLBLBO@xorps?$AA@ 00000000711265e4     decode_table.c.obj
 0002:000385ec       ??_C@_05BMHCPOPI@vorpd?$AA@ 00000000711265ec     decode_table.c.obj
 0002:000385f4       ??_C@_05BJPBHKGO@vorps?$AA@ 00000000711265f4     decode_table.c.obj
 0002:000385fc       ??_C@_04LGOJEGJK@orpd?$AA@ 00000000711265fc     decode_table.c.obj
 0002:00038604       ??_C@_04LDGKMCAM@orps?$AA@ 0000000071126604     decode_table.c.obj
 0002:00038610       ??_C@_07NPGAGLE@vandnpd?$AA@ 0000000071126610     decode_table.c.obj
 0002:00038618       ??_C@_07IHFICCC@vandnps?$AA@ 0000000071126618     decode_table.c.obj
 0002:00038620       ??_C@_06JPIHJOLE@andnpd?$AA@ 0000000071126620     decode_table.c.obj
 0002:00038628       ??_C@_06JKAEBKCC@andnps?$AA@ 0000000071126628     decode_table.c.obj
 0002:00038630       ??_C@_06OJKFHGOE@vandpd?$AA@ 0000000071126630     decode_table.c.obj
 0002:00038638       ??_C@_06OMCGPCHC@vandps?$AA@ 0000000071126638     decode_table.c.obj
 0002:00038640       ??_C@_05EKLDONCI@andpd?$AA@ 0000000071126640     decode_table.c.obj
 0002:00038648       ??_C@_05EPDAGJLO@andps?$AA@ 0000000071126648     decode_table.c.obj
 0002:00038650       ??_C@_06EMMJDIGH@vrcpss?$AA@ 0000000071126650     decode_table.c.obj
 0002:00038658       ??_C@_06EOIPIGDO@vrcpps?$AA@ 0000000071126658     decode_table.c.obj
 0002:00038660       ??_C@_05OPNPKDKL@rcpss?$AA@ 0000000071126660     decode_table.c.obj
 0002:00038668       ??_C@_05ONJJBNPC@rcpps?$AA@ 0000000071126668     decode_table.c.obj
 0002:00038670       ??_C@_08FMCOKLGJ@vrsqrtss?$AA@ 0000000071126670     decode_table.c.obj
 0002:00038680       ??_C@_08FOGIBFDA@vrsqrtps?$AA@ 0000000071126680     decode_table.c.obj
 0002:00038690       ??_C@_07FMLMNKPB@rsqrtss?$AA@ 0000000071126690     decode_table.c.obj
 0002:00038698       ??_C@_07FOPKGEKI@rsqrtps?$AA@ 0000000071126698     decode_table.c.obj
 0002:000386a0       ??_C@_07NNHFFAJN@vsqrtsd?$AA@ 00000000711266a0     decode_table.c.obj
 0002:000386a8       ??_C@_07NPDDOOME@vsqrtpd?$AA@ 00000000711266a8     decode_table.c.obj
 0002:000386b0       ??_C@_07NIPGNEAL@vsqrtss?$AA@ 00000000711266b0     decode_table.c.obj
 0002:000386b8       ??_C@_07NKLAGKFC@vsqrtps?$AA@ 00000000711266b8     decode_table.c.obj
 0002:000386c0       ??_C@_06EPAEMIJN@sqrtsd?$AA@ 00000000711266c0     decode_table.c.obj
 0002:000386c8       ??_C@_06ENECHGME@sqrtpd?$AA@ 00000000711266c8     decode_table.c.obj
 0002:000386d0       ??_C@_06EKIHEMAL@sqrtss?$AA@ 00000000711266d0     decode_table.c.obj
 0002:000386d8       ??_C@_06EIMBPCFC@sqrtps?$AA@ 00000000711266d8     decode_table.c.obj
 0002:000386e0       ??_C@_09HPCCGDMJ@vmovmskpd?$AA@ 00000000711266e0     decode_table.c.obj
 0002:000386f0       ??_C@_09HKKBOHFP@vmovmskps?$AA@ 00000000711266f0     decode_table.c.obj
 0002:00038700       ??_C@_08IBPGOKMO@movmskpd?$AA@ 0000000071126700     decode_table.c.obj
 0002:00038710       ??_C@_08IEHFGOFI@movmskps?$AA@ 0000000071126710     decode_table.c.obj
 0002:00038720       ??_C@_07MDLECAKJ@vcomisd?$AA@ 0000000071126720     decode_table.c.obj
 0002:00038728       ??_C@_07MGDHKEDP@vcomiss?$AA@ 0000000071126728     decode_table.c.obj
 0002:00038730       ??_C@_06FBMFLIKJ@comisd?$AA@ 0000000071126730     decode_table.c.obj
 0002:00038738       ??_C@_06FEEGDMDP@comiss?$AA@ 0000000071126738     decode_table.c.obj
 0002:00038740       ??_C@_08ENKJFGNC@vucomisd?$AA@ 0000000071126740     decode_table.c.obj
 0002:00038750       ??_C@_08EICKNCEE@vucomiss?$AA@ 0000000071126750     decode_table.c.obj
 0002:00038760       ??_C@_07ENDLCHEK@ucomisd?$AA@ 0000000071126760     decode_table.c.obj
 0002:00038768       ??_C@_07EILIKDNM@ucomiss?$AA@ 0000000071126768     decode_table.c.obj
 0002:00038770       ??_C@_09KJHKCLDH@vcvtsd2si?$AA@ 0000000071126770     decode_table.c.obj
 0002:00038780       ??_C@_09HLLKGAKF@vcvtss2si?$AA@ 0000000071126780     decode_table.c.obj
 0002:00038790       ??_C@_08FHKOKCDA@cvtsd2si?$AA@ 0000000071126790     decode_table.c.obj
 0002:000387a0       ??_C@_08NDHMGOMH@cvtpd2pi?$AA@ 00000000711267a0     decode_table.c.obj
 0002:000387b0       ??_C@_08IFGOOJKC@cvtss2si?$AA@ 00000000711267b0     decode_table.c.obj
 0002:000387c0       ??_C@_08BLMCFFF@cvtps2pi?$AA@ 00000000711267c0     decode_table.c.obj
 0002:000387d0       ??_C@_0L@FCBFCAPC@vcvttsd2si?$AA@ 00000000711267d0     decode_table.c.obj
 0002:000387e0       ??_C@_0L@IANFGLGA@vcvttss2si?$AA@ 00000000711267e0     decode_table.c.obj
 0002:000387f0       ??_C@_09MMIPGBNI@cvttsd2si?$AA@ 00000000711267f0     decode_table.c.obj
 0002:00038800       ??_C@_09EIFNKNCP@cvttpd2pi?$AA@ 0000000071126800     decode_table.c.obj
 0002:00038810       ??_C@_09BOEPCKEK@cvttss2si?$AA@ 0000000071126810     decode_table.c.obj
 0002:00038820       ??_C@_09JKJNOGLN@cvttps2pi?$AA@ 0000000071126820     decode_table.c.obj
 0002:00038830       ??_C@_08OGBLAOKA@vmovntpd?$AA@ 0000000071126830     decode_table.c.obj
 0002:00038840       ??_C@_08ODJIIKDG@vmovntps?$AA@ 0000000071126840     decode_table.c.obj
 0002:00038850       ??_C@_07OEMPMBGB@movntsd?$AA@ 0000000071126850     decode_table.c.obj
 0002:00038858       ??_C@_07OGIJHPDI@movntpd?$AA@ 0000000071126858     decode_table.c.obj
 0002:00038860       ??_C@_07OBEMEFPH@movntss?$AA@ 0000000071126860     decode_table.c.obj
 0002:00038868       ??_C@_07ODAKPLKO@movntps?$AA@ 0000000071126868     decode_table.c.obj
 0002:00038870       ??_C@_09OEEEJBML@vcvtsi2sd?$AA@ 0000000071126870     decode_table.c.obj
 0002:00038880       ??_C@_09OBMHBFFN@vcvtsi2ss?$AA@ 0000000071126880     decode_table.c.obj
 0002:00038890       ??_C@_08BKJABIMM@cvtsi2sd?$AA@ 0000000071126890     decode_table.c.obj
 0002:000388a0       ??_C@_08JOECNEDL@cvtpi2pd?$AA@ 00000000711268a0     decode_table.c.obj
 0002:000388b0       ??_C@_08BPBDJMFK@cvtsi2ss?$AA@ 00000000711268b0     decode_table.c.obj
 0002:000388c0       ??_C@_08JLMBFAKN@cvtpi2ps?$AA@ 00000000711268c0     decode_table.c.obj
 0002:000388d0       ??_C@_07EDEJGLNB@vmovapd?$AA@ 00000000711268d0     decode_table.c.obj
 0002:000388d8       ??_C@_07EGMKOPEH@vmovaps?$AA@ 00000000711268d8     decode_table.c.obj
 0002:000388e0       ??_C@_06NBDIPDNB@movapd?$AA@ 00000000711268e0     decode_table.c.obj
 0002:000388e8       ??_C@_06NELLHHEH@movaps?$AA@ 00000000711268e8     decode_table.c.obj
 0002:000388f0       ??_C@_07DOEBCEFL@vmovhpd?$AA@ 00000000711268f0     decode_table.c.obj
 0002:000388f8       ??_C@_09CBMIKDFJ@vmovshdup?$AA@ 00000000711268f8     decode_table.c.obj
 0002:00038908       ??_C@_07DLMCKAMN@vmovhps?$AA@ 0000000071126908     decode_table.c.obj
 0002:00038910       ??_C@_06KMDALMFL@movhpd?$AA@ 0000000071126910     decode_table.c.obj
 0002:00038918       ??_C@_08NPBMCKFO@movshdup?$AA@ 0000000071126918     decode_table.c.obj
 0002:00038924       ??_C@_06KJLDDIMN@movhps?$AA@ 0000000071126924     decode_table.c.obj
 0002:00038930       ??_C@_09LPGPKENJ@vunpckhpd?$AA@ 0000000071126930     decode_table.c.obj
 0002:00038940       ??_C@_09LKOMCAEP@vunpckhps?$AA@ 0000000071126940     decode_table.c.obj
 0002:00038950       ??_C@_08EBLLCNNO@unpckhpd?$AA@ 0000000071126950     decode_table.c.obj
 0002:00038960       ??_C@_08EEDIKJEI@unpckhps?$AA@ 0000000071126960     decode_table.c.obj
 0002:00038970       ??_C@_09DAANDDIO@vunpcklpd?$AA@ 0000000071126970     decode_table.c.obj
 0002:00038980       ??_C@_09DFIOLHBI@vunpcklps?$AA@ 0000000071126980     decode_table.c.obj
 0002:00038990       ??_C@_08MONJLKIJ@unpcklpd?$AA@ 0000000071126990     decode_table.c.obj
 0002:000389a0       ??_C@_08MLFKDOBP@unpcklps?$AA@ 00000000711269a0     decode_table.c.obj
 0002:000389b0       ??_C@_08NENHFECA@vmovddup?$AA@ 00000000711269b0     decode_table.c.obj
 0002:000389c0       ??_C@_07LBCDLDAM@vmovlpd?$AA@ 00000000711269c0     decode_table.c.obj
 0002:000389c8       ??_C@_09NEEIAFJJ@vmovsldup?$AA@ 00000000711269c8     decode_table.c.obj
 0002:000389d8       ??_C@_07LEKADHJK@vmovlps?$AA@ 00000000711269d8     decode_table.c.obj
 0002:000389e0       ??_C@_07NEEFCFLI@movddup?$AA@ 00000000711269e0     decode_table.c.obj
 0002:000389e8       ??_C@_06CDFCCLAM@movlpd?$AA@ 00000000711269e8     decode_table.c.obj
 0002:000389f0       ??_C@_08CKJMIMJO@movsldup?$AA@ 00000000711269f0     decode_table.c.obj
 0002:000389fc       ??_C@_06CGNBKPJK@movlps?$AA@ 00000000711269fc     decode_table.c.obj
 0002:00038a08       ??_C@_0N@JFMNHJM@?$CImod?5ext?511?$CJ?$AA@ 0000000071126a08     decode_table.c.obj
 0002:00038a18       ??_C@_0N@IJOLNKL@?$CImod?5ext?510?$CJ?$AA@ 0000000071126a18     decode_table.c.obj
 0002:00038a28       ??_C@_05PIEHCFKO@movsd?$AA@ 0000000071126a28     decode_table.c.obj
 0002:00038a30       ??_C@_05PNMEKBDI@movss?$AA@ 0000000071126a30     decode_table.c.obj
 0002:00038a38       ??_C@_0M@CECBOGIB@?$CImod?5ext?59?$CJ?$AA@ 0000000071126a38     decode_table.c.obj
 0002:00038a48       ??_C@_07JMDCKLBJ@vmovupd?$AA@ 0000000071126a48     decode_table.c.obj
 0002:00038a50       ??_C@_0M@CFODIMLG@?$CImod?5ext?58?$CJ?$AA@ 0000000071126a50     decode_table.c.obj
 0002:00038a60       ??_C@_07JJLBCPIP@vmovups?$AA@ 0000000071126a60     decode_table.c.obj
 0002:00038a68       ??_C@_0N@HEPIGCE@?$CImod?5ext?519?$CJ?$AA@ 0000000071126a68     decode_table.c.obj
 0002:00038a78       ??_C@_06OEDDDBJ@movupd?$AA@ 0000000071126a78     decode_table.c.obj
 0002:00038a80       ??_C@_0N@GINOMBD@?$CImod?5ext?518?$CJ?$AA@ 0000000071126a80     decode_table.c.obj
 0002:00038a90       ??_C@_06LMALHIP@movups?$AA@ 0000000071126a90     decode_table.c.obj
 0002:00038a98       ??_C@_06HJOBFOMK@vex?$CL1b?$AA@ 0000000071126a98     decode_table.c.obj
 0002:00038aa0       ??_C@_03OEIHCBJB@lds?$AA@  0000000071126aa0     decode_table.c.obj
 0002:00038aa4       ??_C@_06HLKHOAJD@vex?$CL2b?$AA@ 0000000071126aa4     decode_table.c.obj
 0002:00038aac       ??_C@_03OFEFELKG@les?$AA@  0000000071126aac     decode_table.c.obj
 0002:00038ab0       ??_C@_06CFDLDNHN@movsxd?$AA@ 0000000071126ab0     decode_table.c.obj
 0002:00038ab8       ??_C@_04MBAAHCPD@arpl?$AA@ 0000000071126ab8     decode_table.c.obj
 0002:00038ac0       ??_C@_08DKGEDANC@rex?4wrxb?$AA@ 0000000071126ac0     decode_table.c.obj
 0002:00038ad0       ??_C@_07HCNNBMBF@rex?4wrx?$AA@ 0000000071126ad0     decode_table.c.obj
 0002:00038ad8       ??_C@_07MCPAOGMO@rex?4wrb?$AA@ 0000000071126ad8     decode_table.c.obj
 0002:00038ae0       ??_C@_06IEKFGJMI@rex?4wr?$AA@ 0000000071126ae0     decode_table.c.obj
 0002:00038ae8       ??_C@_07MPGHGDBI@rex?4wxb?$AA@ 0000000071126ae8     decode_table.c.obj
 0002:00038af0       ??_C@_06HOEKIBEC@rex?4wx?$AA@ 0000000071126af0     decode_table.c.obj
 0002:00038af8       ??_C@_06MOGHHLJJ@rex?4wb?$AA@ 0000000071126af8     decode_table.c.obj
 0002:00038b00       ??_C@_05KFCDAGAD@rex?4w?$AA@ 0000000071126b00     decode_table.c.obj
 0002:00038b08       ??_C@_07PILJJDCK@rex?4rxb?$AA@ 0000000071126b08     decode_table.c.obj
 0002:00038b10       ??_C@_06HIIBEDKJ@rex?4rx?$AA@ 0000000071126b10     decode_table.c.obj
 0002:00038b18       ??_C@_06MIKMLJHC@rex?4rb?$AA@ 0000000071126b18     decode_table.c.obj
 0002:00038b20       ??_C@_05NIFEPCEG@rex?4r?$AA@ 0000000071126b20     decode_table.c.obj
 0002:00038b28       ??_C@_06MFDLDMKE@rex?4xb?$AA@ 0000000071126b28     decode_table.c.obj
 0002:00038b30       ??_C@_05CCLLBKMM@rex?4x?$AA@ 0000000071126b30     decode_table.c.obj
 0002:00038b38       ??_C@_05JCJGOABH@rex?4b?$AA@ 0000000071126b38     decode_table.c.obj
 0002:00038b40       ??_C@_03LGHHLCMB@rex?$AA@  0000000071126b40     decode_table.c.obj
 0002:00038b48       ??_C@_09IPJPPJDC@?$CIgroup?55?$CJ?$AA@ 0000000071126b48     decode_table.c.obj
 0002:00038b58       ??_C@_09IOFNJDAF@?$CIgroup?54?$CJ?$AA@ 0000000071126b58     decode_table.c.obj
 0002:00038b64       ??_C@_03PFFIEBLO@std?$AA@  0000000071126b64     decode_table.c.obj
 0002:00038b68       ??_C@_03LHHEOEOJ@cld?$AA@  0000000071126b68     decode_table.c.obj
 0002:00038b6c       ??_C@_03EAPGDPPD@sti?$AA@  0000000071126b6c     decode_table.c.obj
 0002:00038b70       ??_C@_03CNKJKKE@cli?$AA@   0000000071126b70     decode_table.c.obj
 0002:00038b74       ??_C@_03LKBJNHHJ@stc?$AA@  0000000071126b74     decode_table.c.obj
 0002:00038b78       ??_C@_03PIDFHCCO@clc?$AA@  0000000071126b78     decode_table.c.obj
 0002:00038b80       ??_C@_0L@NFLKGMGP@?$CIgroup?53b?$CJ?$AA@ 0000000071126b80     decode_table.c.obj
 0002:00038b90       ??_C@_0L@NHPMNCDG@?$CIgroup?53a?$CJ?$AA@ 0000000071126b90     decode_table.c.obj
 0002:00038b9c       ??_C@_03PJPHBIBJ@cmc?$AA@  0000000071126b9c     decode_table.c.obj
 0002:00038ba0       ??_C@_03CKLHHBLJ@hlt?$AA@  0000000071126ba0     decode_table.c.obj
 0002:00038ba4       ??_C@_03HOKODIMJ@rep?$AA@  0000000071126ba4     decode_table.c.obj
 0002:00038ba8       ??_C@_05GIPJNDPP@repne?$AA@ 0000000071126ba8     decode_table.c.obj
 0002:00038bb0       ??_C@_04ODKDFKNA@int1?$AA@ 0000000071126bb0     decode_table.c.obj
 0002:00038bb8       ??_C@_04MKMCLCOO@lock?$AA@ 0000000071126bb8     decode_table.c.obj
 0002:00038bc0       ??_C@_03KEJHNBPP@out?$AA@  0000000071126bc0     decode_table.c.obj
 0002:00038bc4       ??_C@_02LMMGJAGL@in?$AA@   0000000071126bc4     decode_table.c.obj
 0002:00038bc8       ??_C@_05BACBHKCE@jecxz?$AA@ 0000000071126bc8     decode_table.c.obj
 0002:00038bd0       ??_C@_04GKOOIABA@loop?$AA@ 0000000071126bd0     decode_table.c.obj
 0002:00038bd8       ??_C@_05FFHGBAG@loope?$AA@ 0000000071126bd8     decode_table.c.obj
 0002:00038be0       ??_C@_06PNLJICFH@loopne?$AA@ 0000000071126be0     decode_table.c.obj
 0002:00038be8       ??_C@_07KIFIMABG@?$CIfloat?$CJ?$AA@ 0000000071126be8     decode_table.c.obj
 0002:00038bf0       ??_C@_04IDMJPGLC@xlat?$AA@ 0000000071126bf0     decode_table.c.obj
 0002:00038bf8       ??_C@_04LCIAILL@salc?$AA@  0000000071126bf8     decode_table.c.obj
 0002:00038c00       ??_C@_03BFKFLPDB@aad?$AA@  0000000071126c00     decode_table.c.obj
 0002:00038c04       ??_C@_03MEGHAEHI@aam?$AA@  0000000071126c04     decode_table.c.obj
 0002:00038c08       ??_C@_0L@GKAPKDNG@?$CIgroup?52f?$CJ?$AA@ 0000000071126c08     decode_table.c.obj
 0002:00038c18       ??_C@_0L@GIEJBNIP@?$CIgroup?52e?$CJ?$AA@ 0000000071126c18     decode_table.c.obj
 0002:00038c28       ??_C@_0L@GJILHHLI@?$CIgroup?52d?$CJ?$AA@ 0000000071126c28     decode_table.c.obj
 0002:00038c38       ??_C@_0L@GMMEGBDN@?$CIgroup?52c?$CJ?$AA@ 0000000071126c38     decode_table.c.obj
 0002:00038c44       ??_C@_04GJIGMAPA@iret?$AA@ 0000000071126c44     decode_table.c.obj
 0002:00038c4c       ??_C@_04MHJLCKAK@into?$AA@ 0000000071126c4c     decode_table.c.obj
 0002:00038c54       ??_C@_03JBIPMCLC@int?$AA@  0000000071126c54     decode_table.c.obj
 0002:00038c58       ??_C@_04NBJFDIFC@int3?$AA@ 0000000071126c58     decode_table.c.obj
 0002:00038c60       ??_C@_04KBGGEPIA@lret?$AA@ 0000000071126c60     decode_table.c.obj
 0002:00038c68       ??_C@_05KLLFHCCG@leave?$AA@ 0000000071126c68     decode_table.c.obj
 0002:00038c70       ??_C@_05IHEOCMON@enter?$AA@ 0000000071126c70     decode_table.c.obj
 0002:00038c78       ??_C@_0M@EGCJMIED@?$CIgroup?511b?$CJ?$AA@ 0000000071126c78     decode_table.c.obj
 0002:00038c88       ??_C@_0M@EEGPHGBK@?$CIgroup?511a?$CJ?$AA@ 0000000071126c88     decode_table.c.obj
 0002:00038c98       ??_C@_0BD@BNEBECNA@?$CIvex_prefix_ext?51?$CJ?$AA@ 0000000071126c98     decode_table.c.obj
 0002:00038cb0       ??_C@_0BD@BMIDCIOH@?$CIvex_prefix_ext?50?$CJ?$AA@ 0000000071126cb0     decode_table.c.obj
 0002:00038cc8       ??_C@_0L@GNAGALAK@?$CIgroup?52b?$CJ?$AA@ 0000000071126cc8     decode_table.c.obj
 0002:00038cd8       ??_C@_0L@GPEALFFD@?$CIgroup?52a?$CJ?$AA@ 0000000071126cd8     decode_table.c.obj
 0002:00038ce8       ??_C@_0BA@CLMGFNHO@?$CI?$CIrep?1ne?$CJ?5scas?$CJ?$AA@ 0000000071126ce8     decode_table.c.obj
 0002:00038cf8       ??_C@_0N@ININCNNK@?$CI?$CIrep?$CJ?5lods?$CJ?$AA@ 0000000071126cf8     decode_table.c.obj
 0002:00038d08       ??_C@_0N@LPDMLMAG@?$CI?$CIrep?$CJ?5stos?$CJ?$AA@ 0000000071126d08     decode_table.c.obj
 0002:00038d18       ??_C@_0BA@HPIFNBHO@?$CI?$CIrep?1ne?$CJ?5cmps?$CJ?$AA@ 0000000071126d18     decode_table.c.obj
 0002:00038d28       ??_C@_0N@LMMBGBGL@?$CI?$CIrep?$CJ?5movs?$CJ?$AA@ 0000000071126d28     decode_table.c.obj
 0002:00038d38       ??_C@_04JDOGFEHB@lahf?$AA@ 0000000071126d38     decode_table.c.obj
 0002:00038d40       ??_C@_04HBFGFECC@sahf?$AA@ 0000000071126d40     decode_table.c.obj
 0002:00038d48       ??_C@_04MEBMKLAJ@popf?$AA@ 0000000071126d48     decode_table.c.obj
 0002:00038d50       ??_C@_05HIMEGFOJ@pushf?$AA@ 0000000071126d50     decode_table.c.obj
 0002:00038d58       ??_C@_05FEKNFCPP@fwait?$AA@ 0000000071126d58     decode_table.c.obj
 0002:00038d60       ??_C@_03IONCFDEF@cdq?$AA@  0000000071126d60     decode_table.c.obj
 0002:00038d64       ??_C@_04EGPDGBEE@cwde?$AA@ 0000000071126d64     decode_table.c.obj
 0002:00038d70       ??_C@_0BB@OPPLLLEP@?$CIprefix?5ext?5103?$CJ?$AA@ 0000000071126d70     decode_table.c.obj
 0002:00038d88       ??_C@_0BD@EEJBHKHI@?$CIxop_prefix_ext?50?$CJ?$AA@ 0000000071126d88     decode_table.c.obj
 0002:00038d9c       ??_C@_03JNLBDLHF@lea?$AA@  0000000071126d9c     decode_table.c.obj
 0002:00038da0       ??_C@_04LFJEJMPJ@xchg?$AA@ 0000000071126da0     decode_table.c.obj
 0002:00038da8       ??_C@_0L@HOHBMOND@?$CIgroup?51c?$CJ?$AA@ 0000000071126da8     decode_table.c.obj
 0002:00038db8       ??_C@_0M@FJKENDBC@?$CIgroup?51c?$CK?$CJ?$AA@ 0000000071126db8     decode_table.c.obj
 0002:00038dc8       ??_C@_0L@HPLDKEOE@?$CIgroup?51b?$CJ?$AA@ 0000000071126dc8     decode_table.c.obj
 0002:00038dd8       ??_C@_0L@HNPFBKLN@?$CIgroup?51a?$CJ?$AA@ 0000000071126dd8     decode_table.c.obj
 0002:00038de8       ??_C@_0N@HBFAIHMI@?$CI?$CIrep?$CJ?5outs?$CJ?$AA@ 0000000071126de8     decode_table.c.obj
 0002:00038df8       ??_C@_0M@OOPDFPEN@?$CI?$CIrep?$CJ?5ins?$CJ?$AA@ 0000000071126df8     decode_table.c.obj
 0002:00038e08       ??_C@_09LCJFBCOI@addr?5size?$AA@ 0000000071126e08     decode_table.c.obj
 0002:00038e18       ??_C@_09DEKGCLJL@data?5size?$AA@ 0000000071126e18     decode_table.c.obj
 0002:00038e28       ??_C@_0N@NFFDCBI@?$CIx64_ext?516?$CJ?$AA@ 0000000071126e28     decode_table.c.obj
 0002:00038e38       ??_C@_05PFKAILG@bound?$AA@ 0000000071126e38     decode_table.c.obj
 0002:00038e40       ??_C@_04ILFNDNMO@popa?$AA@ 0000000071126e40     decode_table.c.obj
 0002:00038e48       ??_C@_05DHIFPDCO@pusha?$AA@ 0000000071126e48     decode_table.c.obj
 0002:00038e50       ??_C@_0N@PBDIMEB@?$CIx64_ext?515?$CJ?$AA@ 0000000071126e50     decode_table.c.obj
 0002:00038e60       ??_C@_0N@ONBOGHG@?$CIx64_ext?514?$CJ?$AA@ 0000000071126e60     decode_table.c.obj
 0002:00038e70       ??_C@_0N@LJOPAPD@?$CIx64_ext?513?$CJ?$AA@ 0000000071126e70     decode_table.c.obj
 0002:00038e80       ??_C@_0N@KFMJKME@?$CIx64_ext?512?$CJ?$AA@ 0000000071126e80     decode_table.c.obj
 0002:00038e90       ??_C@_0N@IBKCEJN@?$CIx64_ext?511?$CJ?$AA@ 0000000071126e90     decode_table.c.obj
 0002:00038ea0       ??_C@_0N@JNIEOKK@?$CIx64_ext?510?$CJ?$AA@ 0000000071126ea0     decode_table.c.obj
 0002:00038eb0       ??_C@_0M@LJKDOBMA@?$CIx64_ext?59?$CJ?$AA@ 0000000071126eb0     decode_table.c.obj
 0002:00038ec0       ??_C@_0M@LIGBILPH@?$CIx64_ext?58?$CJ?$AA@ 0000000071126ec0     decode_table.c.obj
 0002:00038ed0       ??_C@_0M@LDDNMMMK@?$CIx64_ext?57?$CJ?$AA@ 0000000071126ed0     decode_table.c.obj
 0002:00038ee0       ??_C@_0M@LCPPKGPN@?$CIx64_ext?56?$CJ?$AA@ 0000000071126ee0     decode_table.c.obj
 0002:00038ef0       ??_C@_0M@LALJBIKE@?$CIx64_ext?55?$CJ?$AA@ 0000000071126ef0     decode_table.c.obj
 0002:00038f00       ??_C@_0M@LBHLHCJD@?$CIx64_ext?54?$CJ?$AA@ 0000000071126f00     decode_table.c.obj
 0002:00038f10       ??_C@_0M@LEDEGEBG@?$CIx64_ext?53?$CJ?$AA@ 0000000071126f10     decode_table.c.obj
 0002:00038f20       ??_C@_0M@LFPGAOCB@?$CIx64_ext?52?$CJ?$AA@ 0000000071126f20     decode_table.c.obj
 0002:00038f30       ??_C@_0M@LHLALAHI@?$CIx64_ext?51?$CJ?$AA@ 0000000071126f30     decode_table.c.obj
 0002:00038f40       ??_C@_0M@LGHCNKEP@?$CIx64_ext?50?$CJ?$AA@ 0000000071126f40     decode_table.c.obj
 0002:00038f4c       ??_C@_03BACGDLKH@aas?$AA@  0000000071126f4c     decode_table.c.obj
 0002:00038f50       ??_C@_03GINCELHE@aaa?$AA@  0000000071126f50     decode_table.c.obj
 0002:00038f54       ??_C@_03CHPIMLJF@das?$AA@  0000000071126f54     decode_table.c.obj
 0002:00038f58       ??_C@_03FPAMLLEG@daa?$AA@  0000000071126f58     decode_table.c.obj
 0002:00038f60       ??_C@_08COADLKDG@?$CIescape?$CJ?$AA@ 0000000071126f60     decode_table.c.obj
 0002:00038f6c       ??_C@_04EJFHGCJD@blsi?$AA@ 0000000071126f6c     decode_table.c.obj
 0002:00038f74       ??_C@_06KGAMGDMI@blsmsk?$AA@ 0000000071126f74     decode_table.c.obj
 0002:00038f7c       ??_C@_04OAGBKJAJ@blsr?$AA@ 0000000071126f7c     decode_table.c.obj
 0002:00038f84       ??_C@_06PHJKBFK@lwpval?$AA@ 0000000071126f84     decode_table.c.obj
 0002:00038f8c       ??_C@_06MBAFKPDA@lwpins?$AA@ 0000000071126f8c     decode_table.c.obj
 0002:00038f94       ??_C@_06PNLCMFAJ@slwpcb?$AA@ 0000000071126f94     decode_table.c.obj
 0002:00038f9c       ??_C@_06GMCECJCO@llwpcb?$AA@ 0000000071126f9c     decode_table.c.obj
 0002:00038fa4       ??_C@_04FFHBMBOD@blci?$AA@ 0000000071126fa4     decode_table.c.obj
 0002:00038fac       ??_C@_06MGOMPEEK@blcmsk?$AA@ 0000000071126fac     decode_table.c.obj
 0002:00038fb4       ??_C@_06KHOIKAJK@t1mskc?$AA@ 0000000071126fb4     decode_table.c.obj
 0002:00038fbc       ??_C@_05CHJPKNPI@blsic?$AA@ 0000000071126fbc     decode_table.c.obj
 0002:00038fc4       ??_C@_05HHIGPKGH@blcic?$AA@ 0000000071126fc4     decode_table.c.obj
 0002:00038fcc       ??_C@_05HEBOKCFO@tzmsk?$AA@ 0000000071126fcc     decode_table.c.obj
 0002:00038fd4       ??_C@_04OFFMDLDI@blcs?$AA@ 0000000071126fd4     decode_table.c.obj
 0002:00038fe0       ??_C@_07BBGKPCCF@blsfill?$AA@ 0000000071126fe0     decode_table.c.obj
 0002:00038fe8       ??_C@_07BCLMPALO@blcfill?$AA@ 0000000071126fe8     decode_table.c.obj
 0002:00038ff0       ??_C@_09BPEGNLOA@prefetchw?$AA@ 0000000071126ff0     decode_table.c.obj
 0002:00039000       ??_C@_0L@EPCDEOIL@prefetcht2?$AA@ 0000000071127000     decode_table.c.obj
 0002:00039010       ??_C@_0L@GEAOBNEI@prefetcht1?$AA@ 0000000071127010     decode_table.c.obj
 0002:00039020       ??_C@_0L@HNBFCMAJ@prefetcht0?$AA@ 0000000071127020     decode_table.c.obj
 0002:00039030       ??_C@_0M@ENHAGFIJ@prefetchnta?$AA@ 0000000071127030     decode_table.c.obj
 0002:00039040       ??_C@_0BF@JPOJPDBE@?$CIgroup?515?5mod?5ext?53?$CJ?$AA@ 0000000071127040     decode_table.c.obj
 0002:00039058       ??_C@_0BF@JIOAFLMI@?$CIgroup?515?5mod?5ext?57?$CJ?$AA@ 0000000071127058     decode_table.c.obj
 0002:00039070       ??_C@_0BF@JJCCDBPP@?$CIgroup?515?5mod?5ext?56?$CJ?$AA@ 0000000071127070     decode_table.c.obj
 0002:00039088       ??_C@_0O@DDNHNFFE@?$CIrex?4w?5ext?52?$CJ?$AA@ 0000000071127088     decode_table.c.obj
 0002:00039098       ??_C@_0BG@OCLCOEJE@?$CIgroup?515?5mod?5ext?517?$CJ?$AA@ 0000000071127098     decode_table.c.obj
 0002:000390b0       ??_C@_0BG@ODHAIOKD@?$CIgroup?515?5mod?5ext?516?$CJ?$AA@ 00000000711270b0     decode_table.c.obj
 0002:000390c8       ??_C@_0BG@OBDGDAPK@?$CIgroup?515?5mod?5ext?515?$CJ?$AA@ 00000000711270c8     decode_table.c.obj
 0002:000390e0       ??_C@_0BG@OAPEFKMN@?$CIgroup?515?5mod?5ext?514?$CJ?$AA@ 00000000711270e0     decode_table.c.obj
 0002:000390f8       ??_C@_0BB@OODJNBHI@?$CIprefix?5ext?5102?$CJ?$AA@ 00000000711270f8     decode_table.c.obj
 0002:00039110       ??_C@_0BB@FEMDAIEE@?$CIprefix?5ext?5111?$CJ?$AA@ 0000000071127110     decode_table.c.obj
 0002:00039128       ??_C@_0BB@OMHPGPCB@?$CIprefix?5ext?5101?$CJ?$AA@ 0000000071127128     decode_table.c.obj
 0002:00039140       ??_C@_0BB@FFABGCHD@?$CIprefix?5ext?5110?$CJ?$AA@ 0000000071127140     decode_table.c.obj
 0002:00039158       ??_C@_0BB@OCGMDOJJ@?$CIprefix?5ext?5109?$CJ?$AA@ 0000000071127158     decode_table.c.obj
 0002:00039170       ??_C@_0BB@ODKOFEKO@?$CIprefix?5ext?5108?$CJ?$AA@ 0000000071127170     decode_table.c.obj
 0002:00039188       ??_C@_0BB@OIPCBDJD@?$CIprefix?5ext?5107?$CJ?$AA@ 0000000071127188     decode_table.c.obj
 0002:000391a0       ??_C@_0BB@OJDAHJKE@?$CIprefix?5ext?5106?$CJ?$AA@ 00000000711271a0     decode_table.c.obj
 0002:000391b8       ??_C@_0BB@OLHGMHPN@?$CIprefix?5ext?5105?$CJ?$AA@ 00000000711271b8     decode_table.c.obj
 0002:000391d0       ??_C@_0BB@OKLEKNMK@?$CIprefix?5ext?5104?$CJ?$AA@ 00000000711271d0     decode_table.c.obj
 0002:000391e4       ??_C@_06LDHDJBJN@xbegin?$AA@ 00000000711271e4     decode_table.c.obj
 0002:000391ec       ??_C@_06OCCNKBIG@xabort?$AA@ 00000000711271ec     decode_table.c.obj
 0002:000391f8       ??_C@_0N@KNIADPC@?$CImod?5ext?513?$CJ?$AA@ 00000000711271f8     decode_table.c.obj
 0002:00039208       ??_C@_0BF@LMOEJMPC@?$CIgroup?59?5mod?5ext?512?$CJ?$AA@ 0000000071127208     decode_table.c.obj
 0002:00039220       ??_C@_09EDOHCBK@cmpxchg8b?$AA@ 0000000071127220     decode_table.c.obj
 0002:00039230       ??_C@_0BE@JBDLAJKO@?$CIgroup?57?5mod?5ext?52?$CJ?$AA@ 0000000071127230     decode_table.c.obj
 0002:00039244       ??_C@_04JKJKIEEI@lmsw?$AA@ 0000000071127244     decode_table.c.obj
 0002:0003924c       ??_C@_04HICKIEBL@smsw?$AA@ 000000007112724c     decode_table.c.obj
 0002:00039258       ??_C@_0BE@JFLGHFBM@?$CIgroup?57?5mod?5ext?54?$CJ?$AA@ 0000000071127258     decode_table.c.obj
 0002:00039270       ??_C@_0BE@JEHEBPCL@?$CIgroup?57?5mod?5ext?55?$CJ?$AA@ 0000000071127270     decode_table.c.obj
 0002:00039288       ??_C@_0BE@JDHNLHPH@?$CIgroup?57?5mod?5ext?51?$CJ?$AA@ 0000000071127288     decode_table.c.obj
 0002:000392a0       ??_C@_0BE@JCLPNNMA@?$CIgroup?57?5mod?5ext?50?$CJ?$AA@ 00000000711272a0     decode_table.c.obj
 0002:000392b4       ??_C@_04HELMEJLD@verw?$AA@ 00000000711272b4     decode_table.c.obj
 0002:000392bc       ??_C@_04JMLLNPG@verr?$AA@  00000000711272bc     decode_table.c.obj
 0002:000392c4       ??_C@_03OBLKLDKA@ltr?$AA@  00000000711272c4     decode_table.c.obj
 0002:000392c8       ??_C@_04BAGCAFBL@lldt?$AA@ 00000000711272c8     decode_table.c.obj
 0002:000392d0       ??_C@_03OJMAPEGJ@str?$AA@  00000000711272d0     decode_table.c.obj
 0002:000392d4       ??_C@_04PCNCAFEI@sldt?$AA@ 00000000711272d4     decode_table.c.obj
 0002:000392dc       ??_C@_04FOLEKEEM@ljmp?$AA@ 00000000711272dc     decode_table.c.obj
 0002:000392e4       ??_C@_05OEIGBKGJ@lcall?$AA@ 00000000711272e4     decode_table.c.obj
 0002:000392ec       ??_C@_03GKDDHBBI@dec?$AA@  00000000711272ec     decode_table.c.obj
 0002:000392f0       ??_C@_03JEAMEGCE@inc?$AA@  00000000711272f0     decode_table.c.obj
 0002:000392f4       ??_C@_04CHNIFDFF@idiv?$AA@ 00000000711272f4     decode_table.c.obj
 0002:000392fc       ??_C@_03FEJMGOGI@div?$AA@  00000000711272fc     decode_table.c.obj
 0002:00039300       ??_C@_0BB@ONLNAFBG@?$CIprefix?5ext?5100?$CJ?$AA@ 0000000071127300     decode_table.c.obj
 0002:00039318       ??_C@_0BA@BGFBBEJE@?$CIprefix?5ext?599?$CJ?$AA@ 0000000071127318     decode_table.c.obj
 0002:00039328       ??_C@_0BA@BHJDHOKD@?$CIprefix?5ext?598?$CJ?$AA@ 0000000071127328     decode_table.c.obj
 0002:00039338       ??_C@_0BA@BMMPDJJO@?$CIprefix?5ext?597?$CJ?$AA@ 0000000071127338     decode_table.c.obj
 0002:00039348       ??_C@_0BA@BNANFDKJ@?$CIprefix?5ext?596?$CJ?$AA@ 0000000071127348     decode_table.c.obj
 0002:00039358       ??_C@_0BA@BPELONPA@?$CIprefix?5ext?595?$CJ?$AA@ 0000000071127358     decode_table.c.obj
 0002:00039368       ??_C@_0BA@BOIJIHMH@?$CIprefix?5ext?594?$CJ?$AA@ 0000000071127368     decode_table.c.obj
 0002:00039378       ??_C@_0BA@BLMGJBEC@?$CIprefix?5ext?593?$CJ?$AA@ 0000000071127378     decode_table.c.obj
 0002:00039388       ??_C@_0BA@BKAEPLHF@?$CIprefix?5ext?592?$CJ?$AA@ 0000000071127388     decode_table.c.obj
 0002:00039398       ??_C@_0BA@BIECEFCM@?$CIprefix?5ext?591?$CJ?$AA@ 0000000071127398     decode_table.c.obj
 0002:000393a8       ??_C@_0BA@BJIACPBL@?$CIprefix?5ext?590?$CJ?$AA@ 00000000711273a8     decode_table.c.obj
 0002:000393b8       ??_C@_0BA@KOONHDPB@?$CIprefix?5ext?589?$CJ?$AA@ 00000000711273b8     decode_table.c.obj
 0002:000393c8       ??_C@_0BA@KPCPBJMG@?$CIprefix?5ext?588?$CJ?$AA@ 00000000711273c8     decode_table.c.obj
 0002:000393d8       ??_C@_0BA@KEHDFOPL@?$CIprefix?5ext?587?$CJ?$AA@ 00000000711273d8     decode_table.c.obj
 0002:000393e8       ??_C@_0BB@FAEOHEPG@?$CIprefix?5ext?5117?$CJ?$AA@ 00000000711273e8     decode_table.c.obj
 0002:00039400       ??_C@_0BA@KFLBDEMM@?$CIprefix?5ext?586?$CJ?$AA@ 0000000071127400     decode_table.c.obj
 0002:00039410       ??_C@_0BA@KHPHIKJF@?$CIprefix?5ext?585?$CJ?$AA@ 0000000071127410     decode_table.c.obj
 0002:00039420       ??_C@_0BA@KGDFOAKC@?$CIprefix?5ext?584?$CJ?$AA@ 0000000071127420     decode_table.c.obj
 0002:00039430       ??_C@_0BA@KDHKPGCH@?$CIprefix?5ext?583?$CJ?$AA@ 0000000071127430     decode_table.c.obj
 0002:00039440       ??_C@_0BA@KCLIJMBA@?$CIprefix?5ext?582?$CJ?$AA@ 0000000071127440     decode_table.c.obj
 0002:00039450       ??_C@_0BA@KAPOCCEJ@?$CIprefix?5ext?581?$CJ?$AA@ 0000000071127450     decode_table.c.obj
 0002:00039460       ??_C@_0BA@KBDMEIHO@?$CIprefix?5ext?580?$CJ?$AA@ 0000000071127460     decode_table.c.obj
 0002:00039470       ??_C@_0BA@PGIOGDKH@?$CIprefix?5ext?579?$CJ?$AA@ 0000000071127470     decode_table.c.obj
 0002:00039480       ??_C@_0BA@PHEMAJJA@?$CIprefix?5ext?578?$CJ?$AA@ 0000000071127480     decode_table.c.obj
 0002:00039490       ??_C@_0BA@PMBAEOKN@?$CIprefix?5ext?577?$CJ?$AA@ 0000000071127490     decode_table.c.obj
 0002:000394a0       ??_C@_0BA@PNNCCEJK@?$CIprefix?5ext?576?$CJ?$AA@ 00000000711274a0     decode_table.c.obj
 0002:000394b0       ??_C@_0BA@PPJEJKMD@?$CIprefix?5ext?575?$CJ?$AA@ 00000000711274b0     decode_table.c.obj
 0002:000394c0       ??_C@_0BA@POFGPAPE@?$CIprefix?5ext?574?$CJ?$AA@ 00000000711274c0     decode_table.c.obj
 0002:000394d0       ??_C@_0BA@PLBJOGHB@?$CIprefix?5ext?573?$CJ?$AA@ 00000000711274d0     decode_table.c.obj
 0002:000394e0       ??_C@_0BA@PKNLIMEG@?$CIprefix?5ext?572?$CJ?$AA@ 00000000711274e0     decode_table.c.obj
 0002:000394f0       ??_C@_0BA@PIJNDCBP@?$CIprefix?5ext?571?$CJ?$AA@ 00000000711274f0     decode_table.c.obj
 0002:00039500       ??_C@_0BA@PJFPFICI@?$CIprefix?5ext?570?$CJ?$AA@ 0000000071127500     decode_table.c.obj
 0002:00039510       ??_C@_0BA@EODCAEMC@?$CIprefix?5ext?569?$CJ?$AA@ 0000000071127510     decode_table.c.obj
 0002:00039520       ??_C@_0BA@EPPAGOPF@?$CIprefix?5ext?568?$CJ?$AA@ 0000000071127520     decode_table.c.obj
 0002:00039530       ??_C@_0BA@EEKMCJMI@?$CIprefix?5ext?567?$CJ?$AA@ 0000000071127530     decode_table.c.obj
 0002:00039540       ??_C@_0BA@EFGOEDPP@?$CIprefix?5ext?566?$CJ?$AA@ 0000000071127540     decode_table.c.obj
 0002:00039550       ??_C@_0BA@EHCIPNKG@?$CIprefix?5ext?565?$CJ?$AA@ 0000000071127550     decode_table.c.obj
 0002:00039560       ??_C@_0BA@EGOKJHJB@?$CIprefix?5ext?564?$CJ?$AA@ 0000000071127560     decode_table.c.obj
 0002:00039570       ??_C@_0BA@EDKFIBBE@?$CIprefix?5ext?563?$CJ?$AA@ 0000000071127570     decode_table.c.obj
 0002:00039580       ??_C@_0BA@ECGHOLCD@?$CIprefix?5ext?562?$CJ?$AA@ 0000000071127580     decode_table.c.obj
 0002:00039590       ??_C@_0BA@EACBFFHK@?$CIprefix?5ext?561?$CJ?$AA@ 0000000071127590     decode_table.c.obj
 0002:000395a0       ??_C@_0BA@EBODDPEN@?$CIprefix?5ext?560?$CJ?$AA@ 00000000711275a0     decode_table.c.obj
 0002:000395b0       ??_C@_0BA@FMIHKLCM@?$CIprefix?5ext?559?$CJ?$AA@ 00000000711275b0     decode_table.c.obj
 0002:000395c0       ??_C@_0BA@FNEFMBBL@?$CIprefix?5ext?558?$CJ?$AA@ 00000000711275c0     decode_table.c.obj
 0002:000395d0       ??_C@_0BA@FGBJIGCG@?$CIprefix?5ext?557?$CJ?$AA@ 00000000711275d0     decode_table.c.obj
 0002:000395e0       ??_C@_0BA@FHNLOMBB@?$CIprefix?5ext?556?$CJ?$AA@ 00000000711275e0     decode_table.c.obj
 0002:000395f0       ??_C@_0BB@FBIMBOMB@?$CIprefix?5ext?5116?$CJ?$AA@ 00000000711275f0     decode_table.c.obj
 0002:00039604       ??_C@_05CFLBCKNG@bswap?$AA@ 0000000071127604     decode_table.c.obj
 0002:00039610       ??_C@_09IGIFAAFG@?$CIgroup?59?$CJ?$AA@ 0000000071127610     decode_table.c.obj
 0002:00039620       ??_C@_0BA@FFJNFCEI@?$CIprefix?5ext?555?$CJ?$AA@ 0000000071127620     decode_table.c.obj
 0002:00039630       ??_C@_0BA@FEFPDIHP@?$CIprefix?5ext?554?$CJ?$AA@ 0000000071127630     decode_table.c.obj
 0002:00039640       ??_C@_0BA@FBBACOPK@?$CIprefix?5ext?553?$CJ?$AA@ 0000000071127640     decode_table.c.obj
 0002:00039650       ??_C@_06DLPMDFBG@movnti?$AA@ 0000000071127650     decode_table.c.obj
 0002:00039658       ??_C@_0BA@FANCEEMN@?$CIprefix?5ext?552?$CJ?$AA@ 0000000071127658     decode_table.c.obj
 0002:00039668       ??_C@_04DNKKPONF@xadd?$AA@ 0000000071127668     decode_table.c.obj
 0002:00039670       ??_C@_05BODAHIPD@movsx?$AA@ 0000000071127670     decode_table.c.obj
 0002:00039678       ??_C@_0BB@PLIFNGEK@?$CIprefix?5ext?5136?$CJ?$AA@ 0000000071127678     decode_table.c.obj
 0002:00039690       ??_C@_0BB@GCNPJCEB@?$CIprefix?5ext?5140?$CJ?$AA@ 0000000071127690     decode_table.c.obj
 0002:000396a4       ??_C@_03FCLMOHID@btc?$AA@  00000000711276a4     decode_table.c.obj
 0002:000396a8       ??_C@_09IHEHGKGB@?$CIgroup?58?$CJ?$AA@ 00000000711276a8     decode_table.c.obj
 0002:000396b4       ??_C@_04MMIPDPNC@ud2b?$AA@ 00000000711276b4     decode_table.c.obj
 0002:000396bc       ??_C@_06KOACKPNP@popcnt?$AA@ 00000000711276bc     decode_table.c.obj
 0002:000396c4       ??_C@_05BBOBEDHM@movzx?$AA@ 00000000711276c4     decode_table.c.obj
 0002:000396cc       ??_C@_03OGMBJPMI@lgs?$AA@  00000000711276cc     decode_table.c.obj
 0002:000396d0       ??_C@_03OHADPFPP@lfs?$AA@  00000000711276d0     decode_table.c.obj
 0002:000396d4       ??_C@_03BGFMEJD@btr?$AA@   00000000711276d4     decode_table.c.obj
 0002:000396d8       ??_C@_03PNOOJEGE@lss?$AA@  00000000711276d8     decode_table.c.obj
 0002:000396e0       ??_C@_07KJLDDDDB@cmpxchg?$AA@ 00000000711276e0     decode_table.c.obj
 0002:000396e8       ??_C@_0L@BGEAJMNB@?$CIgroup?515?$CJ?$AA@ 00000000711276e8     decode_table.c.obj
 0002:000396f4       ??_C@_04CPNJFPIM@shrd?$AA@ 00000000711276f4     decode_table.c.obj
 0002:000396fc       ??_C@_03BIHOPFNC@bts?$AA@  00000000711276fc     decode_table.c.obj
 0002:00039700       ??_C@_03JJGJILBH@rsm?$AA@  0000000071127700     decode_table.c.obj
 0002:00039704       ??_C@_04DJGBNBPG@shld?$AA@ 0000000071127704     decode_table.c.obj
 0002:0003970c       ??_C@_02LOIFFB@bt?$AA@     000000007112770c     decode_table.c.obj
 0002:00039710       ??_C@_05CDPJMNMF@cpuid?$AA@ 0000000071127710     decode_table.c.obj
 0002:00039718       ??_C@_03NJDAHFJE@pop?$AA@  0000000071127718     decode_table.c.obj
 0002:0003971c       ??_C@_04GHHNIPCF@push?$AA@ 000000007112771c     decode_table.c.obj
 0002:00039724       ??_C@_06GJMGBPEH@setnle?$AA@ 0000000071127724     decode_table.c.obj
 0002:0003972c       ??_C@_05CPEDEDGD@setle?$AA@ 000000007112772c     decode_table.c.obj
 0002:00039734       ??_C@_05PNAFCMEE@setnl?$AA@ 0000000071127734     decode_table.c.obj
 0002:0003973c       ??_C@_04BBOHHBOL@setl?$AA@ 000000007112773c     decode_table.c.obj
 0002:00039744       ??_C@_05BLHCHBBJ@setnp?$AA@ 0000000071127744     decode_table.c.obj
 0002:0003974c       ??_C@_04PHJACMLG@setp?$AA@ 000000007112774c     decode_table.c.obj
 0002:00039754       ??_C@_05DAFPCCNK@setns?$AA@ 0000000071127754     decode_table.c.obj
 0002:0003975c       ??_C@_04NMLNHPHF@sets?$AA@ 000000007112775c     decode_table.c.obj
 0002:00039764       ??_C@_06GDFIDCEN@setnbe?$AA@ 0000000071127764     decode_table.c.obj
 0002:0003976c       ??_C@_05CFNNGOGJ@setbe?$AA@ 000000007112776c     decode_table.c.obj
 0002:00039774       ??_C@_05OBJNJJJD@setnz?$AA@ 0000000071127774     decode_table.c.obj
 0002:0003977c       ??_C@_04NHPMEDM@setz?$AA@  000000007112777c     decode_table.c.obj
 0002:00039784       ??_C@_05GDIGABMK@setnb?$AA@ 0000000071127784     decode_table.c.obj
 0002:0003978c       ??_C@_04IPGEFMGF@setb?$AA@ 000000007112778c     decode_table.c.obj
 0002:00039794       ??_C@_05NGCIHPIH@setno?$AA@ 0000000071127794     decode_table.c.obj
 0002:0003979c       ??_C@_04DKMKCCCI@seto?$AA@ 000000007112779c     decode_table.c.obj
 0002:000397a4       ??_C@_04GIOBEKJI@jnle?$AA@ 00000000711277a4     decode_table.c.obj
 0002:000397ac       ??_C@_03NDGHJKCC@jle?$AA@  00000000711277ac     decode_table.c.obj
 0002:000397b0       ??_C@_03BCBPFAF@jnl?$AA@   00000000711277b0     decode_table.c.obj
 0002:000397b4       ??_C@_02IMLGEMLA@jl?$AA@   00000000711277b4     decode_table.c.obj
 0002:000397b8       ??_C@_03OHFGKIFI@jnp?$AA@  00000000711277b8     decode_table.c.obj
 0002:000397bc       ??_C@_02GKMBBBON@jp?$AA@   00000000711277bc     decode_table.c.obj
 0002:000397c0       ??_C@_03MMHLPLJL@jns?$AA@  00000000711277c0     decode_table.c.obj
 0002:000397c4       ??_C@_02EBOMECCO@js?$AA@   00000000711277c4     decode_table.c.obj
 0002:000397c8       ??_C@_04GCHPGHJC@jnbe?$AA@ 00000000711277c8     decode_table.c.obj
 0002:000397d0       ??_C@_03NJPJLHCI@jbe?$AA@  00000000711277d0     decode_table.c.obj
 0002:000397d4       ??_C@_03BNLJEANC@jnz?$AA@  00000000711277d4     decode_table.c.obj
 0002:000397d8       ??_C@_02JACOPJGH@jz?$AA@   00000000711277d8     decode_table.c.obj
 0002:000397dc       ??_C@_03JPKCNIIL@jnb?$AA@  00000000711277dc     decode_table.c.obj
 0002:000397e0       ??_C@_02BCDFGBDO@jb?$AA@   00000000711277e0     decode_table.c.obj
 0002:000397e4       ??_C@_03CKAMKGMG@jno?$AA@  00000000711277e4     decode_table.c.obj
 0002:000397e8       ??_C@_02KHJLBPHD@jo?$AA@   00000000711277e8     decode_table.c.obj
 0002:000397f0       ??_C@_0BB@FHEHNMCK@?$CIprefix?5ext?5113?$CJ?$AA@ 00000000711277f0     decode_table.c.obj
 0002:00039808       ??_C@_0BA@FCJEPKJE@?$CIprefix?5ext?551?$CJ?$AA@ 0000000071127808     decode_table.c.obj
 0002:00039818       ??_C@_0BB@FDMKKAJI@?$CIprefix?5ext?5115?$CJ?$AA@ 0000000071127818     decode_table.c.obj
 0002:00039830       ??_C@_0BB@FCAIMKKP@?$CIprefix?5ext?5114?$CJ?$AA@ 0000000071127830     decode_table.c.obj
 0002:00039848       ??_C@_0BB@PJMDGIBD@?$CIprefix?5ext?5135?$CJ?$AA@ 0000000071127848     decode_table.c.obj
 0002:00039860       ??_C@_0BB@PIABACCE@?$CIprefix?5ext?5134?$CJ?$AA@ 0000000071127860     decode_table.c.obj
 0002:00039878       ??_C@_0O@ECEHAFBA@?$CIvex?5L?5ext?50?$CJ?$AA@ 0000000071127878     decode_table.c.obj
 0002:00039888       ??_C@_0BA@FDFGJAKD@?$CIprefix?5ext?550?$CJ?$AA@ 0000000071127888     decode_table.c.obj
 0002:00039898       ??_C@_0BA@OEDLMMEJ@?$CIprefix?5ext?549?$CJ?$AA@ 0000000071127898     decode_table.c.obj
 0002:000398a8       ??_C@_0BA@OFPJKGHO@?$CIprefix?5ext?548?$CJ?$AA@ 00000000711278a8     decode_table.c.obj
 0002:000398b8       ??_C@_0L@BHICPGOG@?$CIgroup?514?$CJ?$AA@ 00000000711278b8     decode_table.c.obj
 0002:000398c8       ??_C@_0L@BCMNOAGD@?$CIgroup?513?$CJ?$AA@ 00000000711278c8     decode_table.c.obj
 0002:000398d8       ??_C@_0L@BDAPIKFE@?$CIgroup?512?$CJ?$AA@ 00000000711278d8     decode_table.c.obj
 0002:000398e8       ??_C@_0BA@OOKFOBED@?$CIprefix?5ext?547?$CJ?$AA@ 00000000711278e8     decode_table.c.obj
 0002:000398f8       ??_C@_0BB@FGIFLGBN@?$CIprefix?5ext?5112?$CJ?$AA@ 00000000711278f8     decode_table.c.obj
 0002:00039910       ??_C@_0BA@OPGHILHE@?$CIprefix?5ext?546?$CJ?$AA@ 0000000071127910     decode_table.c.obj
 0002:00039920       ??_C@_0BA@ONCBDFCN@?$CIprefix?5ext?545?$CJ?$AA@ 0000000071127920     decode_table.c.obj
 0002:00039930       ??_C@_0BA@OMODFPBK@?$CIprefix?5ext?544?$CJ?$AA@ 0000000071127930     decode_table.c.obj
 0002:00039940       ??_C@_0BA@OJKMEJJP@?$CIprefix?5ext?543?$CJ?$AA@ 0000000071127940     decode_table.c.obj
 0002:00039950       ??_C@_0BA@OIGOCDKI@?$CIprefix?5ext?542?$CJ?$AA@ 0000000071127950     decode_table.c.obj
 0002:00039960       ??_C@_0BA@OKCIJNPB@?$CIprefix?5ext?541?$CJ?$AA@ 0000000071127960     decode_table.c.obj
 0002:00039970       ??_C@_0BA@OLOKPHMG@?$CIprefix?5ext?540?$CJ?$AA@ 0000000071127970     decode_table.c.obj
 0002:00039980       ??_C@_0BA@HJOMPEPA@?$CIprefix?5ext?539?$CJ?$AA@ 0000000071127980     decode_table.c.obj
 0002:00039990       ??_C@_0BA@HICOJOMH@?$CIprefix?5ext?538?$CJ?$AA@ 0000000071127990     decode_table.c.obj
 0002:000399a0       ??_C@_0BA@HDHCNJPK@?$CIprefix?5ext?537?$CJ?$AA@ 00000000711279a0     decode_table.c.obj
 0002:000399b0       ??_C@_0BA@HCLALDMN@?$CIprefix?5ext?536?$CJ?$AA@ 00000000711279b0     decode_table.c.obj
 0002:000399c0       ??_C@_0BA@HAPGANJE@?$CIprefix?5ext?535?$CJ?$AA@ 00000000711279c0     decode_table.c.obj
 0002:000399d0       ??_C@_0BA@HBDEGHKD@?$CIprefix?5ext?534?$CJ?$AA@ 00000000711279d0     decode_table.c.obj
 0002:000399e0       ??_C@_0BA@HEHLHBCG@?$CIprefix?5ext?533?$CJ?$AA@ 00000000711279e0     decode_table.c.obj
 0002:000399f0       ??_C@_0BA@HFLJBLBB@?$CIprefix?5ext?532?$CJ?$AA@ 00000000711279f0     decode_table.c.obj
 0002:00039a00       ??_C@_0BA@HHPPKFEI@?$CIprefix?5ext?531?$CJ?$AA@ 0000000071127a00     decode_table.c.obj
 0002:00039a10       ??_C@_0BA@HGDNMPHP@?$CIprefix?5ext?530?$CJ?$AA@ 0000000071127a10     decode_table.c.obj
 0002:00039a20       ??_C@_0BA@MBFAJDJF@?$CIprefix?5ext?529?$CJ?$AA@ 0000000071127a20     decode_table.c.obj
 0002:00039a30       ??_C@_0BA@MAJCPJKC@?$CIprefix?5ext?528?$CJ?$AA@ 0000000071127a30     decode_table.c.obj
 0002:00039a40       ??_C@_0BA@MLMOLOJP@?$CIprefix?5ext?527?$CJ?$AA@ 0000000071127a40     decode_table.c.obj
 0002:00039a50       ??_C@_0BA@MKAMNEKI@?$CIprefix?5ext?526?$CJ?$AA@ 0000000071127a50     decode_table.c.obj
 0002:00039a60       ??_C@_0BA@MIEKGKPB@?$CIprefix?5ext?525?$CJ?$AA@ 0000000071127a60     decode_table.c.obj
 0002:00039a70       ??_C@_0BA@MJIIAAMG@?$CIprefix?5ext?524?$CJ?$AA@ 0000000071127a70     decode_table.c.obj
 0002:00039a80       ??_C@_0BA@MMMHBGED@?$CIprefix?5ext?523?$CJ?$AA@ 0000000071127a80     decode_table.c.obj
 0002:00039a90       ??_C@_0BA@MNAFHMHE@?$CIprefix?5ext?522?$CJ?$AA@ 0000000071127a90     decode_table.c.obj
 0002:00039aa0       ??_C@_0BA@MPEDMCCN@?$CIprefix?5ext?521?$CJ?$AA@ 0000000071127aa0     decode_table.c.obj
 0002:00039ab0       ??_C@_0BA@MOIBKIBK@?$CIprefix?5ext?520?$CJ?$AA@ 0000000071127ab0     decode_table.c.obj
 0002:00039ac0       ??_C@_0BA@NDOFDMHL@?$CIprefix?5ext?519?$CJ?$AA@ 0000000071127ac0     decode_table.c.obj
 0002:00039ad0       ??_C@_0BA@NCCHFGEM@?$CIprefix?5ext?518?$CJ?$AA@ 0000000071127ad0     decode_table.c.obj
 0002:00039ae0       ??_C@_0BA@NJHLBBHB@?$CIprefix?5ext?517?$CJ?$AA@ 0000000071127ae0     decode_table.c.obj
 0002:00039af0       ??_C@_0BA@NILJHLEG@?$CIprefix?5ext?516?$CJ?$AA@ 0000000071127af0     decode_table.c.obj
 0002:00039b00       ??_C@_07CDFGCPJN@cmovnle?$AA@ 0000000071127b00     decode_table.c.obj
 0002:00039b08       ??_C@_06GANGNIAH@cmovle?$AA@ 0000000071127b08     decode_table.c.obj
 0002:00039b10       ??_C@_06LCJALHCA@cmovnl?$AA@ 0000000071127b10     decode_table.c.obj
 0002:00039b18       ??_C@_05FLIOEHEI@cmovl?$AA@ 0000000071127b18     decode_table.c.obj
 0002:00039b20       ??_C@_06FEOHOKHN@cmovnp?$AA@ 0000000071127b20     decode_table.c.obj
 0002:00039b28       ??_C@_05LNPJBKBF@cmovp?$AA@ 0000000071127b28     decode_table.c.obj
 0002:00039b30       ??_C@_06HPMKLJLO@cmovns?$AA@ 0000000071127b30     decode_table.c.obj
 0002:00039b38       ??_C@_05JGNEEJNG@cmovs?$AA@ 0000000071127b38     decode_table.c.obj
 0002:00039b40       ??_C@_07CJMIACJH@cmovnbe?$AA@ 0000000071127b40     decode_table.c.obj
 0002:00039b48       ??_C@_06GKEIPFAN@cmovbe?$AA@ 0000000071127b48     decode_table.c.obj
 0002:00039b50       ??_C@_06KOAIACPH@cmovnz?$AA@ 0000000071127b50     decode_table.c.obj
 0002:00039b58       ??_C@_05EHBGPCJP@cmovz?$AA@ 0000000071127b58     decode_table.c.obj
 0002:00039b60       ??_C@_06CMBDJKKO@cmovnb?$AA@ 0000000071127b60     decode_table.c.obj
 0002:00039b68       ??_C@_05MFANGKMG@cmovb?$AA@ 0000000071127b68     decode_table.c.obj
 0002:00039b70       ??_C@_06JJLNOEOD@cmovno?$AA@ 0000000071127b70     decode_table.c.obj
 0002:00039b78       ??_C@_05HAKDBEIL@cmovo?$AA@ 0000000071127b78     decode_table.c.obj
 0002:00039b80       ??_C@_0L@IEHLBGEF@?$CI3byte?53a?$CJ?$AA@ 0000000071127b80     decode_table.c.obj
 0002:00039b90       ??_C@_0L@OHBGADHK@?$CI3byte?538?$CJ?$AA@ 0000000071127b90     decode_table.c.obj
 0002:00039ba0       ??_C@_0P@NFIMNCF@?$DMgetsec?5cont?8d?$AA@ 0000000071127ba0     decode_table.c.obj
 0002:00039bb0       ??_C@_0BD@FPEHMAGK@?$DMvpcmpestri?5cont?8d?$AA@ 0000000071127bb0     decode_table.c.obj
 0002:00039bc8       ??_C@_0BD@CKLJBGG@?$DMvpcmpestrm?5cont?8d?$AA@ 0000000071127bc8     decode_table.c.obj
 0002:00039be0       ??_C@_0BA@MEAKKHON@?$DMrdtscp?5cont?8d?$DO?$AA@ 0000000071127be0     decode_table.c.obj
 0002:00039bf0       ??_C@_0BC@JPFDCONO@?$DMpcmpestri?5cont?8d?$AA@ 0000000071127bf0     decode_table.c.obj
 0002:00039c08       ??_C@_0BC@MCLPHPNC@?$DMpcmpestrm?5cont?8d?$AA@ 0000000071127c08     decode_table.c.obj
 0002:00039c20       ??_C@_0BD@JJFJKJHD@?$DMcmpxchg8b?5cont?8d?$DO?$AA@ 0000000071127c20     decode_table.c.obj
 0002:00039c38       ??_C@_0P@IHDAGNM@?$DMcpuid?5cont?8d?$DO?$AA@ 0000000071127c38     decode_table.c.obj
 0002:00039c48       ??_C@_0P@FFPMIAH@?$DMenter?5cont?8d?$DO?$AA@ 0000000071127c48     decode_table.c.obj
 0002:00039c58       ??_C@_0O@CDGLDPDF@?$DMpopa?5cont?8d?$DO?$AA@ 0000000071127c58     decode_table.c.obj
 0002:00039c68       ??_C@_0P@MHBFBNBM@?$DMpusha?5cont?8d?$DO?$AA@ 0000000071127c68     decode_table.c.obj
 0002:00039c78       ??_C@_06BKPLENB@getsec?$AA@ 0000000071127c78     decode_table.c.obj
 0002:00039c80       ??_C@_07LPEIGAGB@sysexit?$AA@ 0000000071127c80     decode_table.c.obj
 0002:00039c88       ??_C@_08HHDECGPN@sysenter?$AA@ 0000000071127c88     decode_table.c.obj
 0002:00039c94       ??_C@_05BIFODJA@rdpmc?$AA@ 0000000071127c94     decode_table.c.obj
 0002:00039c9c       ??_C@_05OGJHMBLI@rdmsr?$AA@ 0000000071127c9c     decode_table.c.obj
 0002:00039ca4       ??_C@_05JIFPPKLN@rdtsc?$AA@ 0000000071127ca4     decode_table.c.obj
 0002:00039cac       ??_C@_05FJPKDCCJ@wrmsr?$AA@ 0000000071127cac     decode_table.c.obj
 0002:00039cb8       ??_C@_0BA@NKPPMFBP@?$CIprefix?5ext?515?$CJ?$AA@ 0000000071127cb8     decode_table.c.obj
 0002:00039cc8       ??_C@_0BA@NLDNKPCI@?$CIprefix?5ext?514?$CJ?$AA@ 0000000071127cc8     decode_table.c.obj
 0002:00039cd8       ??_C@_0BA@NOHCLJKN@?$CIprefix?5ext?513?$CJ?$AA@ 0000000071127cd8     decode_table.c.obj
 0002:00039ce8       ??_C@_0BA@NPLANDJK@?$CIprefix?5ext?512?$CJ?$AA@ 0000000071127ce8     decode_table.c.obj
 0002:00039cf8       ??_C@_0BA@NNPGGNMD@?$CIprefix?5ext?511?$CJ?$AA@ 0000000071127cf8     decode_table.c.obj
 0002:00039d08       ??_C@_0BA@NMDEAHPE@?$CIprefix?5ext?510?$CJ?$AA@ 0000000071127d08     decode_table.c.obj
 0002:00039d18       ??_C@_0P@DFKLFLOC@?$CIprefix?5ext?59?$CJ?$AA@ 0000000071127d18     decode_table.c.obj
 0002:00039d28       ??_C@_0P@DEGJDBNF@?$CIprefix?5ext?58?$CJ?$AA@ 0000000071127d28     decode_table.c.obj
 0002:00039d38       ??_C@_03CNBJFNFA@mov?$AA@  0000000071127d38     decode_table.c.obj
 0002:00039d3c       ??_C@_03GJPGFFDI@nop?$AA@  0000000071127d3c     decode_table.c.obj
 0002:00039d40       ??_C@_0L@BEAGCCII@?$CIgroup?516?$CJ?$AA@ 0000000071127d40     decode_table.c.obj
 0002:00039d50       ??_C@_0P@DPDFHGOI@?$CIprefix?5ext?57?$CJ?$AA@ 0000000071127d50     decode_table.c.obj
 0002:00039d60       ??_C@_0P@DOPHBMNP@?$CIprefix?5ext?56?$CJ?$AA@ 0000000071127d60     decode_table.c.obj
 0002:00039d70       ??_C@_0P@DMLBKCIG@?$CIprefix?5ext?55?$CJ?$AA@ 0000000071127d70     decode_table.c.obj
 0002:00039d80       ??_C@_0P@DNHDMILB@?$CIprefix?5ext?54?$CJ?$AA@ 0000000071127d80     decode_table.c.obj
 0002:00039d90       ??_C@_0P@DIDMNODE@?$CIprefix?5ext?53?$CJ?$AA@ 0000000071127d90     decode_table.c.obj
 0002:00039da0       ??_C@_0P@DJPOLEAD@?$CIprefix?5ext?52?$CJ?$AA@ 0000000071127da0     decode_table.c.obj
 0002:00039db0       ??_C@_0P@DLLIAKFK@?$CIprefix?5ext?51?$CJ?$AA@ 0000000071127db0     decode_table.c.obj
 0002:00039dc0       ??_C@_0P@DKHKGAGN@?$CIprefix?5ext?50?$CJ?$AA@ 0000000071127dc0     decode_table.c.obj
 0002:00039dd0       ??_C@_0P@ODMEENLJ@?$CIgroup?53DNow?$CB?$CJ?$AA@ 0000000071127dd0     decode_table.c.obj
 0002:00039de0       ??_C@_05EMBDBHLO@femms?$AA@ 0000000071127de0     decode_table.c.obj
 0002:00039de8       ??_C@_0M@PLGMMLCA@?$CIgroup?5amd?$CJ?$AA@ 0000000071127de8     decode_table.c.obj
 0002:00039df4       ??_C@_04OHKCGMBB@ud2a?$AA@ 0000000071127df4     decode_table.c.obj
 0002:00039dfc       ??_C@_06BAFGEPDI@wbinvd?$AA@ 0000000071127dfc     decode_table.c.obj
 0002:00039e04       ??_C@_04CHOLCHKP@invd?$AA@ 0000000071127e04     decode_table.c.obj
 0002:00039e0c       ??_C@_06OJDFPBAP@sysret?$AA@ 0000000071127e0c     decode_table.c.obj
 0002:00039e14       ??_C@_04MBFFKHHN@clts?$AA@ 0000000071127e14     decode_table.c.obj
 0002:00039e20       ??_C@_07JJMJNHGG@syscall?$AA@ 0000000071127e20     decode_table.c.obj
 0002:00039e28       ??_C@_03DALEJKPK@lsl?$AA@  0000000071127e28     decode_table.c.obj
 0002:00039e2c       ??_C@_03PLFHNCDL@lar?$AA@  0000000071127e2c     decode_table.c.obj
 0002:00039e30       ??_C@_09IMBLCNFM@?$CIgroup?57?$CJ?$AA@ 0000000071127e30     decode_table.c.obj
 0002:00039e40       ??_C@_09INNJEHGL@?$CIgroup?56?$CJ?$AA@ 0000000071127e40     decode_table.c.obj
 0002:00039e4c       ??_C@_04PPMBLMBA@imul?$AA@ 0000000071127e4c     decode_table.c.obj
 0002:00039e54       ??_C@_03IMIFIBCN@mul?$AA@  0000000071127e54     decode_table.c.obj
 0002:00039e58       ??_C@_03GBOCFEHI@neg?$AA@  0000000071127e58     decode_table.c.obj
 0002:00039e5c       ??_C@_03NJKJADM@not?$AA@   0000000071127e5c     decode_table.c.obj
 0002:00039e60       ??_C@_04CEJDCDCH@test?$AA@ 0000000071127e60     decode_table.c.obj
 0002:00039e68       ??_C@_03PDCNJFPC@sar?$AA@  0000000071127e68     decode_table.c.obj
 0002:00039e6c       ??_C@_03PMPMKOHN@shr?$AA@  0000000071127e6c     decode_table.c.obj
 0002:00039e70       ??_C@_03CILNJBKC@shl?$AA@  0000000071127e70     decode_table.c.obj
 0002:00039e74       ??_C@_03EIBFCGPJ@rcr?$AA@  0000000071127e74     decode_table.c.obj
 0002:00039e78       ??_C@_03JMFEBJCG@rcl?$AA@  0000000071127e78     decode_table.c.obj
 0002:00039e7c       ??_C@_03EBAPNPJN@ror?$AA@  0000000071127e7c     decode_table.c.obj
 0002:00039e80       ??_C@_03JFEOOAEC@rol?$AA@  0000000071127e80     decode_table.c.obj
 0002:00039e84       ??_C@_03JIBIFJIL@cmp?$AA@  0000000071127e84     decode_table.c.obj
 0002:00039e88       ??_C@_03COLCDPPJ@xor?$AA@  0000000071127e88     decode_table.c.obj
 0002:00039e8c       ??_C@_03KCMAIMAP@sub?$AA@  0000000071127e8c     decode_table.c.obj
 0002:00039e90       ??_C@_03BOPJPIAM@and?$AA@  0000000071127e90     decode_table.c.obj
 0002:00039e94       ??_C@_03LLKJDJPK@sbb?$AA@  0000000071127e94     decode_table.c.obj
 0002:00039e98       ??_C@_03FMCPOLBN@adc?$AA@  0000000071127e98     decode_table.c.obj
 0002:00039e9c       ??_C@_02FODMLBIE@or?$AA@   0000000071127e9c     decode_table.c.obj
 0002:00039ea0       ??_C@_03BDGOHNNK@add?$AA@  0000000071127ea0     decode_table.c.obj
 0002:0003b2b0       ??_C@_09EPECJPIA@?7deleting?$AA@ 00000000711292b0     interp.c.obj
 0002:0003b2c0       ??_C@_0CJ@NKCEECEL@Warning?3?5Encountered?5Illegal?5Ins@ 00000000711292c0     interp.c.obj
 0002:0003b2f0       ??_C@_07CIFAGBMG@unknown?$AA@ 00000000711292f0     proc_shared.c.obj
 0002:0003b2f8       ??_C@_04PIADHPCO@2?5MB?$AA@ 00000000711292f8     proc_shared.c.obj
 0002:0003b300       ??_C@_04LPKDAFPO@1?5MB?$AA@ 0000000071129300     proc_shared.c.obj
 0002:0003b308       ??_C@_06JCLNHFAC@512?5KB?$AA@ 0000000071129308     proc_shared.c.obj
 0002:0003b310       ??_C@_06DJALKPFK@256?5KB?$AA@ 0000000071129310     proc_shared.c.obj
 0002:0003b318       ??_C@_06KKNGDLBO@128?5KB?$AA@ 0000000071129318     proc_shared.c.obj
 0002:0003b320       ??_C@_05NGANEEDC@64?5KB?$AA@ 0000000071129320     proc_shared.c.obj
 0002:0003b328       ??_C@_05JIACACB@32?5KB?$AA@ 0000000071129328     proc_shared.c.obj
 0002:0003b330       ??_C@_05LBMICHOK@16?5KB?$AA@ 0000000071129330     proc_shared.c.obj
 0002:0003b338       ??_C@_04LGDOBLDN@8?5KB?$AA@ 0000000071129338     proc_shared.c.obj
 0002:0003b340       ??_C@_0FM@NKPIMCJA@Application?5?$CFs?5?$CI?$CFs?$CJ?4?5Unsupported@ 0000000071129340     proc.c.obj
 0002:0003b3b0       ??_C@_1CI@GDJEBBOF@?$AAC?$AAa?$AAt?$AAe?$AAg?$AAo?$AAr?$AAy?$AAM?$AAe?$AAs?$AAs?$AAa?$AAg?$AAe?$AAF?$AAi?$AAl?$AAe?$AA?$AA@ 00000000711293b0     eventlog.c.obj
 0002:0003b3d8       ??_C@_1CC@JONFAEOP@?$AAE?$AAv?$AAe?$AAn?$AAt?$AAM?$AAe?$AAs?$AAs?$AAa?$AAg?$AAe?$AAF?$AAi?$AAl?$AAe?$AA?$AA@ 00000000711293d8     eventlog.c.obj
 0002:0003b400       ??_C@_1BM@ONAKAGDM@?$AAC?$AAa?$AAt?$AAe?$AAg?$AAo?$AAr?$AAy?$AAC?$AAo?$AAu?$AAn?$AAt?$AA?$AA@ 0000000071129400     eventlog.c.obj
 0002:0003b420       ??_C@_1BO@CHOLPGLN@?$AAT?$AAy?$AAp?$AAe?$AAs?$AAS?$AAu?$AAp?$AAp?$AAo?$AAr?$AAt?$AAe?$AAd?$AA?$AA@ 0000000071129420     eventlog.c.obj
 0002:0003b440       ??_C@_1KC@CDCPBKAC@?$AA?2?$AAR?$AAe?$AAg?$AAi?$AAs?$AAt?$AAr?$AAy?$AA?2?$AAM?$AAa?$AAc?$AAh?$AAi?$AAn?$AAe?$AA?2?$AAS?$AAy?$AAs?$AAt?$AAe?$AAm?$AA?2?$AAC?$AAu?$AAr?$AAr?$AAe?$AAn?$AAt@ 0000000071129440     eventlog.c.obj
 0002:0003b4e8       ??_C@_1BE@NIHHGDIE@?$AAD?$AAy?$AAn?$AAa?$AAm?$AAo?$AAR?$AAI?$AAO?$AA?$AA@ 00000000711294e8     eventlog.c.obj
 0002:0003b500       ??_C@_1HK@PIJOMPJE@?$AA?2?$AAR?$AAe?$AAg?$AAi?$AAs?$AAt?$AAr?$AAy?$AA?2?$AAM?$AAa?$AAc?$AAh?$AAi?$AAn?$AAe?$AA?2?$AAS?$AAy?$AAs?$AAt?$AAe?$AAm?$AA?2?$AAC?$AAu?$AAr?$AAr?$AAe?$AAn?$AAt@ 0000000071129500     eventlog.c.obj
 0002:0003b580       ??_C@_1IO@FOJHJLID@?$AA?2?$AAR?$AAe?$AAg?$AAi?$AAs?$AAt?$AAr?$AAy?$AA?2?$AAM?$AAa?$AAc?$AAh?$AAi?$AAn?$AAe?$AA?2?$AAS?$AAy?$AAs?$AAt?$AAe?$AAm?$AA?2?$AAC?$AAu?$AAr?$AAr?$AAe?$AAn?$AAt@ 0000000071129580     eventlog.c.obj
 0002:0003b610       ??_C@_08LFBFELDC@?$AF?$AA?$AA?$AD?$BA?$AA?$AA?$AA?$AA@ 0000000071129610     eventlog.c.obj
 0002:0003b620       ??_C@_0M@NJALGCHB@Application?$AA@ 0000000071129620     eventlog.c.obj
 0002:0003b630       ??_C@_1CE@INNKOFCM@?$AA?2?$AA?$DP?$AA?$DP?$AA?2?$AAP?$AAI?$AAP?$AAE?$AA?2?$AAE?$AAV?$AAE?$AAN?$AAT?$AAL?$AAO?$AAG?$AA?$AA@ 0000000071129630     eventlog.c.obj
 0002:0003b654       ??_C@_04LKKMPPLN@?$CF?$CKls?$AA@ 0000000071129654     eventlog.c.obj
 0002:0003b660       ??_C@_1KG@EOFJGAPB@?$AA?2?$AAR?$AAe?$AAg?$AAi?$AAs?$AAt?$AAr?$AAy?$AA?2?$AAM?$AAa?$AAc?$AAh?$AAi?$AAn?$AAe?$AA?2?$AAS?$AAy?$AAs?$AAt?$AAe?$AAm?$AA?2?$AAC?$AAu?$AAr?$AAr?$AAe?$AAn?$AAt@ 0000000071129660     eventlog.c.obj
 0002:0003b708       ??_C@_1BK@OADCIHHB@?$AAC?$AAo?$AAm?$AAp?$AAu?$AAt?$AAe?$AAr?$AAN?$AAa?$AAm?$AAe?$AA?$AA@ 0000000071129708     eventlog.c.obj
 0002:0003b768       ??_C@_04CGFJFPFD@none?$AA@ 0000000071129768     os.c.obj
 0002:0003b770       ??_C@_06IBPPMFNL@COMMIT?$AA@ 0000000071129770     os.c.obj
 0002:0003b778       ??_C@_07FNPANPI@RESERVE?$AA@ 0000000071129778     os.c.obj
 0002:0003b780       ??_C@_04HEDFJGEJ@FREE?$AA@ 0000000071129780     os.c.obj
 0002:0003b788       ??_C@_07NMEOOBNC@?$CIerror?$CJ?$AA@ 0000000071129788     os.c.obj
 0002:0003b790       ??_C@_07CBKGEIHF@PRIVATE?$AA@ 0000000071129790     os.c.obj
 0002:0003b798       ??_C@_06JCBBOILC@MAPPED?$AA@ 0000000071129798     os.c.obj
 0002:0003b7a0       ??_C@_05BNHKIGFN@IMAGE?$AA@ 00000000711297a0     os.c.obj
 0002:0003b7a8       ??_C@_04FIBFCCOE@rwxc?$AA@ 00000000711297a8     os.c.obj
 0002:0003b7b0       ??_C@_04DGOPEAGP@rwx?9?$AA@ 00000000711297b0     os.c.obj
 0002:0003b7b8       ??_C@_04JCFPKPKJ@r?9x?9?$AA@ 00000000711297b8     os.c.obj
 0002:0003b7c0       ??_C@_04CIBMPHLD@?9?9x?9?$AA@ 00000000711297c0     os.c.obj
 0002:0003b7c8       ??_C@_04DCGCMOLP@rw?9c?$AA@ 00000000711297c8     os.c.obj
 0002:0003b7d0       ??_C@_04FMJIKMDE@rw?9?9?$AA@ 00000000711297d0     os.c.obj
 0002:0003b7d8       ??_C@_04PICIEDPC@r?9?9?9?$AA@ 00000000711297d8     os.c.obj
 0002:0003b7e0       ??_C@_04ECGLBLOI@?9?9?9?9?$AA@ 00000000711297e0     os.c.obj
 0002:0003b7f0       ??_C@_0ML@ENOFAPFN@BaseAddress?3?5?5?5?5?5?5?50x?$CF016I64x?6Al@ 00000000711297f0     os.c.obj
 0002:0003b8c0       ??_C@_0PF@CGAJMJJM@?7?7BaseAddress?$DN?5?5?5?5?5?5?5?5?5?$CC0x?$CF016I6@ 00000000711298c0     os.c.obj
 0002:0003b9b8       ??_C@_0CI@NILECFJO@Unable?5to?5dump?5mbi?5for?5addr?50x?$CF0@ 00000000711299b8     os.c.obj
 0002:0003b9e0       ??_C@_0DA@LPAPPGHA@?$DM?9?9?5Unable?5to?5dump?5mbi?5for?5addr?5@ 00000000711299e0     os.c.obj
 0002:0003ba10       ??_C@_05MENJHLOO@?4pexe?$AA@ 0000000071129a10     os.c.obj
 0002:0003ba18       ??_C@_0BH@DKPJNAEC@Finished?5Profile?5Dump?6?$AA@ 0000000071129a18     os.c.obj
 0002:0003ba30       ??_C@_0BB@BHPPGLGK@0x?$CF016I64x?5?$CF10d?6?$AA@ 0000000071129a30     os.c.obj
 0002:0003ba50       ??_C@_0EC@IIJFECJI@Profile?5Dump?6Range?50x?$CF016I64x?90x@ 0000000071129a50     os.c.obj
 0002:0003ba98       ??_C@_1CK@JPHGDDHM@?$AA?$CF?$AAh?$AAs?$AA?5?$AAN?$AAo?$AAt?$AAi?$AAc?$AAe?$AA?3?$AA?5?$AA?$CF?$AAh?$AAs?$AA?$CI?$AA?$CF?$AAh?$AAs?$AA?$CJ?$AA?$AA@ 0000000071129a98     os.c.obj
 0002:0003bac8       ??_C@_17LGGGMOOB@?$AA?$CF?$AAh?$AAs?$AA?$AA@ 0000000071129ac8     os.c.obj
 0002:0003bad0       ??_C@_19LJDFFCJJ@?$AA?$CF?$AAs?$AA?$CF?$AAs?$AA?$AA@ 0000000071129ad0     os.c.obj
 0002:0003bae0       ??_C@_17MFDAJLJA@?$AA?2?$AA?$DP?$AA?$DP?$AA?$AA@ 0000000071129ae0     os.c.obj
 0002:0003bae8       ??_C@_19JDDPIMDB@?$AA?2?$AA?2?$AA?$CF?$AAs?$AA?$AA@ 0000000071129ae8     os.c.obj
 0002:0003baf8       ??_C@_1DE@DIPAKJOG@?$AA?2?$AAD?$AAe?$AAv?$AAi?$AAc?$AAe?$AA?2?$AAL?$AAa?$AAn?$AAm?$AAa?$AAn?$AAR?$AAe?$AAd?$AAi?$AAr?$AAe?$AAc?$AAt?$AAo?$AAr?$AA?2?$AA?$AA@ 0000000071129af8     os.c.obj
 0002:0003bb30       ??_C@_17DLOIEBPL@?$AAU?$AAN?$AAC?$AA?$AA@ 0000000071129b30     os.c.obj
 0002:0003bb38       ??_C@_1CA@COGOPDFM@?$AA?2?$AA?$DP?$AA?$DP?$AA?2?$AA?$CF?$AAs?$AA?$CF?$AA?4?$AA?$CK?$AAh?$AAs?$AA?$CF?$AAs?$AA?$CF?$AAs?$AA?$AA@ 0000000071129b38     os.c.obj
 0002:0003bb58       ??_C@_13FPGAJAPJ@?$AA?2?$AA?$AA@ 0000000071129b58     os.c.obj
 0002:0003bb5c       ??_C@_11LOCGONAA@?$AA?$AA@ 0000000071129b5c     os.c.obj
 0002:0003bb60       ??_C@_1CG@OBNNJPJN@?$AA?2?$AA?$DP?$AA?$DP?$AA?2?$AA?$CF?$AAl?$AAs?$AA?$CF?$AA?4?$AA?$CK?$AAh?$AAs?$AA?$CF?$AAl?$AAs?$AA?$CF?$AAh?$AAs?$AA?$AA@ 0000000071129b60     os.c.obj
 0002:0003bb88       ??_C@_1BA@GIFDHOIA@?$AA?2?$AA?$DP?$AA?$DP?$AA?2?$AA?$CF?$AAh?$AAs?$AA?$AA@ 0000000071129b88     os.c.obj
 0002:0003bb98       ??_C@_0L@NCPNCLDO@?$CFs?$DN0x?$CF04x?6?$AA@ 0000000071129b98     os.c.obj
 0002:0003bba8       ??_C@_0BL@ECLJENFM@?$CFs?$DN0x?$CF04x?5?$CI0x?$CF08x?50x?$CF08x?$CJ?6?$AA@ 0000000071129ba8     os.c.obj
 0002:0003bbc8       ??_C@_0BL@JFEMCKNI@Win32StartAddr?$DN0x?$CF016I64x?6?$AA@ 0000000071129bc8     os.c.obj
 0002:0003bbe4       ??_C@_02HBHJJHJN@Gs?$AA@   0000000071129be4     os.c.obj
 0002:0003bbe8       ??_C@_02HALLPNKK@Fs?$AA@   0000000071129be8     os.c.obj
 0002:0003bbec       ??_C@_02HCPNEDPD@Es?$AA@   0000000071129bec     os.c.obj
 0002:0003bbf0       ??_C@_02HDDPCJME@Ds?$AA@   0000000071129bf0     os.c.obj
 0002:0003bbf4       ??_C@_02GKFGJMDB@Ss?$AA@   0000000071129bf4     os.c.obj
 0002:0003bbf8       ??_C@_02HGHADPEB@Cs?$AA@   0000000071129bf8     os.c.obj
 0002:0003bc00       ??_C@_0NG@JAGCANJP@Thread?$DN0x?$CF016I64x?6TEB?$DN0x?$CF016I64x@ 0000000071129c00     os.c.obj
 0002:0003bcd8       ??_C@_0CD@POGBPFIO@Detaching?5from?5application?5?$CFs?5?$CI?$CF@ 0000000071129cd8     os.c.obj
 0002:0003bd00       ??_C@_0EG@IIOJODCC@Timeout?5expired?5?9?52nd?5wait?0?5poss@ 0000000071129d00     os.c.obj
 0002:0003bd50       ??_C@_0EG@LKABOGBD@Timeout?5expired?5?9?51st?5wait?0?5poss@ 0000000071129d50     os.c.obj
 0002:0003bd98       ??_C@_1BE@GJOFHIHD@?$AAn?$AAt?$AAd?$AAl?$AAl?$AA?4?$AAd?$AAl?$AAl?$AA?$AA@ 0000000071129d98     os.c.obj
 0002:0003bdb0       ??_C@_1BM@DNKLLFPM@?$AAd?$AAy?$AAn?$AAa?$AAm?$AAo?$AAr?$AAi?$AAo?$AA?4?$AAd?$AAl?$AAl?$AA?$AA@ 0000000071129db0     os.c.obj
 0002:0003bdd0       ??_C@_0O@FPJCBJJC@Interval?5?$CFd?6?6?$AA@ 0000000071129dd0     os.c.obj
 0002:0003bde0       ??_C@_08HENLMILP@?4profile?$AA@ 0000000071129de0     os.c.obj
 0002:0003bdf0       ??_C@_0DC@FHBEOACG@?6Dumping?5?$CFs?5profile?6?$CFd?5hits?5out?5@ 0000000071129df0     os.c.obj
 0002:0003be28       ??_C@_0CB@KBOCGOAE@?6Dumping?5global?5profile?6?$CFd?5hits?6@ 0000000071129e28     os.c.obj
 0002:0003be50       ??_C@_09FLKFJBLM@ntdll?4dll?$AA@ 0000000071129e50     os.c.obj
 0002:0003be60       ??_C@_0CE@DNMLDGGD@?6Finished?5dumping?5all?5profile?5in@ 0000000071129e60     os.c.obj
 0002:0003be88       ??_C@_0DF@JLHBIDGP@Core?5dump?5file?5for?5application?5?$CF@ 0000000071129e88     os.c.obj
 0002:0003bec0       ??_C@_0JC@GICBJBOH@?6BaseAddress?$DN0x?$CF016I64x?6Allocati@ 0000000071129ec0     os.c.obj
 0002:0003bf58       ??_C@_0CK@JHPKKIDE@?$DMerror?5all?5threads?5list?5is?5alrea@ 0000000071129f58     os.c.obj
 0002:0003bf90       ??_C@_0EP@NAOJOOCP@Thread?$DN0x?$CF08x?6TEB?$DN0x?$CF016I64x?6Han@ 0000000071129f90     os.c.obj
 0002:0003bfe0       ??_C@_0BK@BMEADHNH@dynamorio?4dll?$DN0x?$CF016I64x?6?$AA@ 0000000071129fe0     os.c.obj
 0002:0003c000       ??_C@_0BA@EOMIOBFM@PEB?$DN0x?$CF016I64x?6?$AA@ 000000007112a000     os.c.obj
 0002:0003c010       ??_C@_0M@IABNPPJ@0x?$CF016I64x?6?$AA@ 000000007112a010     os.c.obj
 0002:0003c01c       ??_C@_05PECNOBIH@?4ldmp?$AA@ 000000007112a01c     os.c.obj
 0002:0003c024       ??_C@_04CDPLFOEF@?$CFc?$CFs?$AA@ 000000007112a024     os.c.obj
 0002:0003c02c       ??_C@_06EMHLCMIC@Win32s?$AA@ 000000007112a02c     os.c.obj
 0002:0003c038       ??_C@_0L@KINKMMPO@Windows?5ME?$AA@ 000000007112a038     os.c.obj
 0002:0003c048       ??_C@_0CA@HHANDPOC@this?5unknown?5version?5of?5Windows?$AA@ 000000007112a048     os.c.obj
 0002:0003c068       ??_C@_0BD@LOKJBKDO@Windows?53?41?5?1?5WfWg?$AA@ 000000007112a068     os.c.obj
 0002:0003c080       ??_C@_0L@GBLDALMJ@Windows?598?$AA@ 000000007112a080     os.c.obj
 0002:0003c090       ??_C@_0CK@FBBHEJDH@Application?5?$CFs?5?$CI?$CFs?$CJ?5?$CFs?5does?5not?5@ 000000007112a090     os.c.obj
 0002:0003c0c0       ??_C@_0CG@NFHBNIHH@Microsoft?5Windows?5NT?5SP4?0?55?0?56?0?5@ 000000007112a0c0     os.c.obj
 0002:0003c0e8       ??_C@_0BJ@EJNFNDJB@Microsoft?5Windows?5NT?5SP0?$AA@ 000000007112a0e8     os.c.obj
 0002:0003c108       ??_C@_0BJ@GCPIIAFC@Microsoft?5Windows?5NT?5SP3?$AA@ 000000007112a108     os.c.obj
 0002:0003c128       ??_C@_0BC@PNINPEHO@NtReadFileScatter?$AA@ 000000007112a128     os.c.obj
 0002:0003c140       ??_C@_09KKNPHFOF@NtW32Call?$AA@ 000000007112a140     os.c.obj
 0002:0003c150       ??_C@_0BH@EDKEFLPL@Microsoft?5Windows?52000?$AA@ 000000007112a150     os.c.obj
 0002:0003c168       ??_C@_0BF@GDPDOODI@Microsoft?5Windows?5XP?$AA@ 000000007112a168     os.c.obj
 0002:0003c180       ??_C@_0BO@DDNKAKIL@Microsoft?5Windows?5x64?5XP?12003?$AA@ 000000007112a180     os.c.obj
 0002:0003c1a0       ??_C@_0BH@GIIJAIDI@Microsoft?5Windows?52003?$AA@ 000000007112a1a0     os.c.obj
 0002:0003c1b8       ??_C@_0CA@CAHPCKLO@Microsoft?5Windows?5Vista?5x64?5SP0?$AA@ 000000007112a1b8     os.c.obj
 0002:0003c1d8       ??_C@_0BM@FPENIMCC@Microsoft?5Windows?5Vista?5SP0?$AA@ 000000007112a1d8     os.c.obj
 0002:0003c1f8       ??_C@_0CA@DJGEBLPP@Microsoft?5Windows?5Vista?5x64?5SP1?$AA@ 000000007112a1f8     os.c.obj
 0002:0003c218       ??_C@_0BM@EGFGLNGD@Microsoft?5Windows?5Vista?5SP1?$AA@ 000000007112a218     os.c.obj
 0002:0003c238       ??_C@_0BM@MBOELHHC@Microsoft?5Windows?57?5x64?5SP0?$AA@ 000000007112a238     os.c.obj
 0002:0003c258       ??_C@_0BI@KEADCMMA@Microsoft?5Windows?57?5SP0?$AA@ 000000007112a258     os.c.obj
 0002:0003c270       ??_C@_0BM@NIPPIGDD@Microsoft?5Windows?57?5x64?5SP1?$AA@ 000000007112a270     os.c.obj
 0002:0003c290       ??_C@_0BI@LNBIBNIB@Microsoft?5Windows?57?5SP1?$AA@ 000000007112a290     os.c.obj
 0002:0003c2a8       ??_C@_0BE@PLBENLEO@Microsoft?5Windows?58?$AA@ 000000007112a2a8     os.c.obj
 0002:0003c2c0       ??_C@_0BI@KFAMELM@Microsoft?5Windows?58?5x64?$AA@ 000000007112a2c0     os.c.obj
 0002:0003c2d8       ??_C@_0BG@ILHFPOJL@Microsoft?5Windows?58?41?$AA@ 000000007112a2d8     os.c.obj
 0002:0003c2f0       ??_C@_0BK@JLPCCMG@Microsoft?5Windows?58?41?5x64?$AA@ 000000007112a2f0     os.c.obj
 0002:0003c310       ??_C@_0CC@NFEBOGOP@Unknown?5Windows?5NT?9family?5versio@ 000000007112a310     os.c.obj
 0002:0003c338       ??_C@_0BM@MMMOKGBI@Unknown?5Windows?510?$CL?5version?$AA@ 000000007112a338     os.c.obj
 0002:0003c358       ??_C@_0BF@EBAIHFDA@Microsoft?5Windows?510?$AA@ 000000007112a358     os.c.obj
 0002:0003c370       ??_C@_0BJ@JPJFGELG@Microsoft?5Windows?510?5x64?$AA@ 000000007112a370     os.c.obj
 0002:0003c390       ??_C@_0BK@BJMDMAIM@Microsoft?5Windows?510?91511?$AA@ 000000007112a390     os.c.obj
 0002:0003c3b0       ??_C@_0BO@EGBKHOCM@Microsoft?5Windows?510?91511?5x64?$AA@ 000000007112a3b0     os.c.obj
 0002:0003c3d0       ??_C@_0BA@BNCPKENH@NtCreateEnclave?$AA@ 000000007112a3d0     os.c.obj
 0002:0003c3e0       ??_C@_0BK@FMOOKCND@Microsoft?5Windows?510?91607?$AA@ 000000007112a3e0     os.c.obj
 0002:0003c400       ??_C@_0BO@LILLJBGG@Microsoft?5Windows?510?91607?5x64?$AA@ 000000007112a400     os.c.obj
 0002:0003c420       ??_C@_0BM@GJHFCIDD@NtCreateRegistryTransaction?$AA@ 000000007112a420     os.c.obj
 0002:0003c440       ??_C@_0CG@ODNDPMFL@Unrecoverable?5error?5on?5TLS?5alloc@ 000000007112a440     os.c.obj
 0002:0003c468       ??_C@_0BB@JANLDJDP@KiFastSystemCall?$AA@ 000000007112a468     os.c.obj
 0002:0003c480       ??_C@_0BE@FEPJFGML@KiFastSystemCallRet?$AA@ 000000007112a480     os.c.obj
 0002:0003c4a0       ??_C@_0EH@OMNHLLDP@Application?5?$CFs?5?$CI?$CFs?$CJ?5is?5running?5o@ 000000007112a4a0     os.c.obj
 0002:0003c4e8       ??_C@_0BE@NAKDEJCI@DYNAMORIO_CONFIGDIR?$AA@ 000000007112a4e8     syscall.c.obj
 0002:0003c500       ??_C@_0O@OMDJGLHA@NtSetValueKey?$AA@ 000000007112a500     syscall.c.obj
 0002:0003c510       ??_C@_0BH@KPLDILJD@NtSetInformationThread?$AA@ 000000007112a510     syscall.c.obj
 0002:0003c528       ??_C@_0BF@HIJKNMCB@NtSetInformationFile?$AA@ 000000007112a528     syscall.c.obj
 0002:0003c540       ??_C@_0BK@KGDIPKDC@NtQueryFullAttributesFile?$AA@ 000000007112a540     syscall.c.obj
 0002:0003c560       ??_C@_0BG@OJBPGNEC@NtQueryAttributesFile?$AA@ 000000007112a560     syscall.c.obj
 0002:0003c578       ??_C@_0BE@OAKNBJJI@NtOpenThreadTokenEx?$AA@ 000000007112a578     syscall.c.obj
 0002:0003c590       ??_C@_0BC@PBPJBNCP@NtOpenThreadToken?$AA@ 000000007112a590     syscall.c.obj
 0002:0003c5a8       ??_C@_0N@EJDHLIH@NtOpenThread?$AA@ 000000007112a5a8     syscall.c.obj
 0002:0003c5b8       ??_C@_0BF@JCLEMGJN@NtOpenProcessTokenEx?$AA@ 000000007112a5b8     syscall.c.obj
 0002:0003c5d0       ??_C@_0BD@EIILLDLN@NtOpenProcessToken?$AA@ 000000007112a5d0     syscall.c.obj
 0002:0003c5e8       ??_C@_0O@JGCNKEPA@NtOpenProcess?$AA@ 000000007112a5e8     syscall.c.obj
 0002:0003c5f8       ??_C@_0M@HMNOCLMB@NtOpenKeyEx?$AA@ 000000007112a5f8     syscall.c.obj
 0002:0003c608       ??_C@_09KPFDHBKE@NtOpenKey?$AA@ 000000007112a608     syscall.c.obj
 0002:0003c618       ??_C@_0M@DAAEGBND@NtCreateKey?$AA@ 000000007112a618     syscall.c.obj
 0002:0003c628       ??_C@_0N@KPMLACHP@NtCreateFile?$AA@ 000000007112a628     syscall.c.obj
 0002:0003c638       ??_C@_0BB@KAHALOMK@NtRaiseException?$AA@ 000000007112a638     syscall.c.obj
 0002:0003c650       ??_C@_0M@HGILIOF@NtTestAlert?$AA@ 000000007112a650     syscall.c.obj
 0002:0003c660       ??_C@_0L@GBDFLBPA@NtOpenFile?$AA@ 000000007112a660     syscall.c.obj
 0002:0003c670       ??_C@_0BC@MDCBEKCC@NtDuplicateObject?$AA@ 000000007112a670     syscall.c.obj
 0002:0003c688       ??_C@_07EGJLEIEB@NtClose?$AA@ 000000007112a688     syscall.c.obj
 0002:0003c690       ??_C@_0BA@MANLHNBJ@NtCreateSection?$AA@ 000000007112a690     syscall.c.obj
 0002:0003c6a0       ??_C@_0O@LPFPADAK@NtOpenSection?$AA@ 000000007112a6a0     syscall.c.obj
 0002:0003c6b0       ??_C@_0BP@LIJANAEL@NtWow64AllocateVirtualMemory64?$AA@ 000000007112a6b0     syscall.c.obj
 0002:0003c6d0       ??_C@_0BO@IOKEIEFP@NtSetInformationVirtualMemory?$AA@ 000000007112a6d0     syscall.c.obj
 0002:0003c6f0       ??_C@_0BH@OHHEDCIB@NtMapUserPhysicalPages?$AA@ 000000007112a6f0     syscall.c.obj
 0002:0003c708       ??_C@_0BI@GAGFKGFE@NtFreeUserPhysicalPages?$AA@ 000000007112a708     syscall.c.obj
 0002:0003c720       ??_C@_0BI@NEMBHADC@NtFlushInstructionCache?$AA@ 000000007112a720     syscall.c.obj
 0002:0003c738       ??_C@_0BH@JJHGFE@NtUnmapViewOfSectionEx?$AA@ 000000007112a738     syscall.c.obj
 0002:0003c750       ??_C@_0BF@HJLDAPGE@NtUnmapViewOfSection?$AA@ 000000007112a750     syscall.c.obj
 0002:0003c768       ??_C@_0BD@OPIOPJOL@NtMapViewOfSection?$AA@ 000000007112a768     syscall.c.obj
 0002:0003c780       ??_C@_0BF@HCBMBPOD@NtWriteVirtualMemory?$AA@ 000000007112a780     syscall.c.obj
 0002:0003c798       ??_C@_0BF@MJPACJIK@NtQueryVirtualMemory?$AA@ 000000007112a798     syscall.c.obj
 0002:0003c7b0       ??_C@_0BH@EDMKDLIP@NtProtectVirtualMemory?$AA@ 000000007112a7b0     syscall.c.obj
 0002:0003c7c8       ??_C@_0BE@KBMHLKEP@NtFreeVirtualMemory?$AA@ 000000007112a7c8     syscall.c.obj
 0002:0003c7e0       ??_C@_0BI@BKMFFNKN@NtAllocateVirtualMemory?$AA@ 000000007112a7e0     syscall.c.obj
 0002:0003c7f8       ??_C@_0BJ@HKKELGGC@NtQueryInformationThread?$AA@ 000000007112a7f8     syscall.c.obj
 0002:0003c818       ??_C@_0P@JDJEHDNH@NtResumeThread?$AA@ 000000007112a818     syscall.c.obj
 0002:0003c828       ??_C@_0BA@MDECOLOI@NtSuspendThread?$AA@ 000000007112a828     syscall.c.obj
 0002:0003c838       ??_C@_0BC@ELJMEKPC@NtTerminateThread?$AA@ 000000007112a838     syscall.c.obj
 0002:0003c850       ??_C@_0BG@MEDPHOGD@NtCreateWorkerFactory?$AA@ 000000007112a850     syscall.c.obj
 0002:0003c868       ??_C@_0BB@KGGDNLNO@NtCreateThreadEx?$AA@ 000000007112a868     syscall.c.obj
 0002:0003c880       ??_C@_0P@OKOANDML@NtCreateThread?$AA@ 000000007112a880     syscall.c.obj
 0002:0003c890       ??_C@_0BD@LGANCOHC@NtTerminateProcess?$AA@ 000000007112a890     syscall.c.obj
 0002:0003c8a8       ??_C@_0BE@IIPCAPLK@NtCreateUserProcess?$AA@ 000000007112a8a8     syscall.c.obj
 0002:0003c8c0       ??_C@_0BC@ICOCMOJJ@NtCreateProcessEx?$AA@ 000000007112a8c0     syscall.c.obj
 0002:0003c8d8       ??_C@_0BA@OJKJNKOD@NtCreateProcess?$AA@ 000000007112a8d8     syscall.c.obj
 0002:0003c8e8       ??_C@_0BD@LHJBPAIN@NtGetContextThread?$AA@ 000000007112a8e8     syscall.c.obj
 0002:0003c900       ??_C@_0BD@NDMIEODP@NtSetContextThread?$AA@ 000000007112a900     syscall.c.obj
 0002:0003c918       ??_C@_0BB@JMFJJKDD@NtCallbackReturn?$AA@ 000000007112a918     syscall.c.obj
 0002:0003c930       ??_C@_0L@EPGBAMPH@NtContinue?$AA@ 000000007112a930     syscall.c.obj
 0002:0003c990       ??_C@_1M@IJNHNJIG@?$AA?$CF?$AAs?$AA?$DN?$AA?$CF?$AAS?$AA?$AA@ 000000007112a990     syscall.c.obj
 0002:0003c9a0       ??_C@_0FK@IBFKGGBK@Application?5?$CFs?5?$CI?$CFs?$CJ?4?5System?5libr@ 000000007112a9a0     callback.c.obj
 0002:0003ca00       ??_C@_1BI@FIGCNADM@?$AAc?$AAy?$AAg?$AAw?$AAi?$AAn?$AA1?$AA?4?$AAd?$AAl?$AAl?$AA?$AA@ 000000007112aa00     callback.c.obj
 0002:0003ca20       ??_C@_0EC@PHMFPHME@?6?$CFs?6Code?$DN0x?$CF08x?5Flags?$DN0x?$CF08x?5Par@ 000000007112aa20     callback.c.obj
 0002:0003ca70       ??_C@_0BHD@HOIHJHNO@?$CFs?5?$CFs?5at?5PC?50x?$CF016I64x?60x?$CF08x?50x@ 000000007112aa70     callback.c.obj
 0002:0003cbe8       ??_C@_0DA@NJAIEDAH@Warning?3?5Racy?5app?5execution?5?$CIdec@ 000000007112abe8     callback.c.obj
 0002:0003cc18       ??_C@_0CI@EICHMBBG@Exception?5occurred?5in?5applicatio@ 000000007112ac18     callback.c.obj
 0002:0003cc40       ??_C@_0CP@NEIKPOBI@Exception?5occurred?5in?5native?5app@ 000000007112ac40     callback.c.obj
 0002:0003cc70       ??_C@_0BB@GGFCNIKC@try?1except?5fault?$AA@ 000000007112ac70     callback.c.obj
 0002:0003cc88       ??_C@_1BG@PMIPDOHG@?$AAw?$AAz?$AAc?$AAs?$AAv?$AAc?$AA?4?$AAd?$AAl?$AAl?$AA?$AA@ 000000007112ac88     callback.c.obj
 0002:0003cca0       ??_C@_0BE@HFKDFCBF@svchost?4exe?9netsvcs?$AA@ 000000007112aca0     callback.c.obj
 0002:0003ccb8       ??_C@_0BD@BHKNPFBB@RtlUserThreadStart?$AA@ 000000007112acb8     callback.c.obj
 0002:0003ccd0       ??_C@_0BD@INALBIAL@LdrInitializeThunk?$AA@ 000000007112acd0     callback.c.obj
 0002:0003cce8       ??_C@_0BH@OADANMBG@RtlLocateLegacyContext?$AA@ 000000007112ace8     ntdll.c.obj
 0002:0003cd00       ??_C@_0BN@BINLFFKD@RtlInitializeExtendedContext?$AA@ 000000007112ad00     ntdll.c.obj
 0002:0003cd20       ??_C@_0BM@BLANBBMM@RtlGetExtendedContextLength?$AA@ 000000007112ad20     ntdll.c.obj
 0002:0003cd40       ??_C@_0BA@KFLOHNAA@NtGetNextThread?$AA@ 000000007112ad40     ntdll.c.obj
 0002:0003cd50       ??_C@_05OINFJHGD@?$CFI64u?$AA@ 000000007112ad50     ntdll.c.obj
 0002:0003cd58       ??_C@_1CO@FCIPMKBE@?$AA?2?$AAD?$AAy?$AAn?$AAa?$AAm?$AAo?$AAR?$AAI?$AAO?$AA?2?$AAS?$AAh?$AAa?$AAr?$AAe?$AAd?$AAC?$AAa?$AAc?$AAh?$AAe?$AA?$AA@ 000000007112ad58     ntdll.c.obj
 0002:0003cd88       ??_C@_1BG@PJNAJFGP@?$AA?2?$AAD?$AAy?$AAn?$AAa?$AAm?$AAo?$AAR?$AAI?$AAO?$AA?$AA@ 000000007112ad88     ntdll.c.obj
 0002:0003cdb8       ??_C@_0N@LOMLCOFC@LoadLibraryA?$AA@ 000000007112adb8     inject.c.obj
 0002:0003cdc8       ??_C@_0P@DGIDOA@GetProcAddress?$AA@ 000000007112adc8     inject.c.obj
 0002:0003cdd8       ??_C@_1BK@DBDEIDLH@?$AAK?$AAE?$AAR?$AAN?$AAE?$AAL?$AA3?$AA2?$AA?4?$AAD?$AAL?$AAL?$AA?$AA@ 000000007112add8     inject.c.obj
 0002:0003cdf8       ??_C@_0BC@CBLDKCHH@dynamo_auto_start?$AA@ 000000007112adf8     inject.c.obj
 0002:0003ce10       ??_C@_0CG@GHJEJPJH@dynamorio_app_init_and_early_tak@ 000000007112ae10     inject.c.obj
 0002:0003ce38       ??_C@_05ONPNAMJH@?$CF?4?$CKls?$AA@ 000000007112ae38     inject_shared.c.obj
 0002:0003ce40       ??_C@_0FM@PJJDLLJA@Application?5?$CFs?5?$CI?$CFs?$CJ?4?5Error?5readi@ 000000007112ae40     inject_shared.c.obj
 0002:0003cea0       ??_C@_09EKPEPMND@?$CFls?5?9?5?$CFls?$AA@ 000000007112aea0     inject_shared.c.obj
 0002:0003ceb0       ??_C@_1GA@KDFBDFLB@?$AA?2?$AAR?$AAe?$AAg?$AAi?$AAs?$AAt?$AAr?$AAy?$AA?2?$AAM?$AAa?$AAc?$AAh?$AAi?$AAn?$AAe?$AA?2?$AAS?$AAo?$AAf?$AAt?$AAw?$AAa?$AAr?$AAe?$AA?2?$AAD?$AAy?$AAn?$AAa?$AAm@ 000000007112aeb0     inject_shared.c.obj
 0002:0003cf10       ??_C@_1FO@JLEIFANI@?$AA?2?$AAR?$AAe?$AAg?$AAi?$AAs?$AAt?$AAr?$AAy?$AA?2?$AAM?$AAa?$AAc?$AAh?$AAi?$AAn?$AAe?$AA?2?$AAS?$AAo?$AAf?$AAt?$AAw?$AAa?$AAr?$AAe?$AA?2?$AAD?$AAy?$AAn?$AAa?$AAm@ 000000007112af10     inject_shared.c.obj
 0002:0003cf70       ??_C@_1GG@KMAKALDL@?$AA?2?$AAR?$AAe?$AAg?$AAi?$AAs?$AAt?$AAr?$AAy?$AA?2?$AAM?$AAa?$AAc?$AAh?$AAi?$AAn?$AAe?$AA?2?$AAS?$AAy?$AAs?$AAt?$AAe?$AAm?$AA?2?$AAC?$AAu?$AAr?$AAr?$AAe?$AAn?$AAt@ 000000007112af70     inject_shared.c.obj
 0002:0003cfd8       ??_C@_0N@GMNMHNA@DRPREI?$HO1?4DLL?$AA@ 000000007112afd8     inject_shared.c.obj
 0002:0003cfe8       ??_C@_0BA@NPELIOP@drpreinject?4dll?$AA@ 000000007112afe8     inject_shared.c.obj
 0002:0003d000       ??_C@_1IO@KEAHEJON@?$AA?2?$AAR?$AAe?$AAg?$AAi?$AAs?$AAt?$AAr?$AAy?$AA?2?$AAM?$AAa?$AAc?$AAh?$AAi?$AAn?$AAe?$AA?2?$AAS?$AAO?$AAF?$AAT?$AAW?$AAA?$AAR?$AAE?$AA?2?$AAM?$AAi?$AAc?$AAr?$AAo@ 000000007112b000     inject_shared.c.obj
 0002:0003d090       ??_C@_1BK@LNFEFIJC@?$AAA?$AAp?$AAp?$AAI?$AAn?$AAi?$AAt?$AA_?$AAD?$AAL?$AAL?$AAs?$AA?$AA@ 000000007112b090     inject_shared.c.obj
 0002:0003d0b0       ??_C@_0BP@LBNFODLA@LdrDisableThreadCalloutsForDll?$AA@ 000000007112b0b0     module.c.obj
 0002:0003d0d0       ??_C@_0BA@GMKCHBGF@RtlRbRemoveNode?$AA@ 000000007112b0d0     module.c.obj
 0002:0003d0e0       ??_C@_0BD@NPOFEIIG@?$DM?1loaded?9modules?$DO?6?$AA@ 000000007112b0e0     module.c.obj
 0002:0003d0f4       ??_C@_06OJHGLDPL@?$CInull?$CJ?$AA@ 000000007112b0f4     module.c.obj
 0002:0003d100       ??_C@_19HHIIBINK@?$AAn?$AAa?$AAm?$AAe?$AA?$AA@ 000000007112b100     module.c.obj
 0002:0003d110       ??_C@_19JIFMCCAP@?$AAp?$AAa?$AAt?$AAh?$AA?$AA@ 000000007112b110     module.c.obj
 0002:0003d120       ??_C@_0MH@MEICAFOI@?7?$DMdll?5range?$DN?$CC0x?$CF016I64x?90x?$CF016I6@ 000000007112b120     module.c.obj
 0002:0003d1f0       ??_C@_0JH@CBOHHJIP@?5?50x?$CF016I64x?90x?$CF016I64x?5?$CF?913ls?5e@ 000000007112b1f0     module.c.obj
 0002:0003d288       ??_C@_0BC@OMHLBNCL@?6Loaded?5modules?3?6?$AA@ 000000007112b288     module.c.obj
 0002:0003d2a0       ??_C@_0BC@HDNMJCKH@?$DMloaded?9modules?$DO?6?$AA@ 000000007112b2a0     module.c.obj
 0002:0003d2c0       ??_C@_0EG@GIFBPALH@Application?5?$CFs?5?$CI?$CFs?$CJ?5is?5not?5suppo@ 000000007112b2c0     module.c.obj
 0002:0003d308       ??_C@_1CA@FOECMPGO@?$AAV?$AAS?$AA_?$AAV?$AAE?$AAR?$AAS?$AAI?$AAO?$AAN?$AA_?$AAI?$AAN?$AAF?$AAO?$AA?$AA@ 000000007112b308     module.c.obj
 0002:0003d328       ??_C@_1BI@LJHFMFCG@?$AAV?$AAa?$AAr?$AAF?$AAi?$AAl?$AAe?$AAI?$AAn?$AAf?$AAo?$AA?$AA@ 000000007112b328     module.c.obj
 0002:0003d340       ??_C@_1BO@PBBNDBNF@?$AAS?$AAt?$AAr?$AAi?$AAn?$AAg?$AAF?$AAi?$AAl?$AAe?$AAI?$AAn?$AAf?$AAo?$AA?$AA@ 000000007112b340     module.c.obj
 0002:0003d360       ??_C@_1CC@CHBCEHAO@?$AAO?$AAr?$AAi?$AAg?$AAi?$AAn?$AAa?$AAl?$AAF?$AAi?$AAl?$AAe?$AAn?$AAa?$AAm?$AAe?$AA?$AA@ 000000007112b360     module.c.obj
 0002:0003d388       ??_C@_1BI@CJGIOPAN@?$AAP?$AAr?$AAo?$AAd?$AAu?$AAc?$AAt?$AAN?$AAa?$AAm?$AAe?$AA?$AA@ 000000007112b388     module.c.obj
 0002:0003d3a0       ??_C@_1BI@KBKGFMKH@?$AAC?$AAo?$AAm?$AAp?$AAa?$AAn?$AAy?$AAN?$AAa?$AAm?$AAe?$AA?$AA@ 000000007112b3a0     module.c.obj
 0002:0003d3b8       ??_C@_0BH@MLGNFJJM@?$DMprint_modules_safe?1?$DO?6?$AA@ 000000007112b3b8     module.c.obj
 0002:0003d3d0       ??_C@_04KIBKJBMP@?1?$DO?5?6?$AA@ 000000007112b3d0     module.c.obj
 0002:0003d3d8       ??_C@_0CE@EOGINGED@?7module_has_no_version_informati@ 000000007112b3d8     module.c.obj
 0002:0003d400       ??_C@_0BP@LINJCCGN@no_version_information?$DN?$CCtrue?$CC?5?$AA@ 000000007112b400     module.c.obj
 0002:0003d420       ??_C@_0GN@POCPIOPA@?7file_version?$DN?$CFd?4?$CFd?4?$CFd?4?$CFd?5produc@ 000000007112b420     module.c.obj
 0002:0003d490       ??_C@_19OEJGHIEG@?$AAn?$AAo?$AAn?$AAe?$AA?$AA@ 000000007112b490     module.c.obj
 0002:0003d49c       ??_C@_03ICICOMAL@yes?$AA@  000000007112b49c     module.c.obj
 0002:0003d4a0       ??_C@_02KAJCLHKP@no?$AA@   000000007112b4a0     module.c.obj
 0002:0003d4b0       ??_C@_0IB@KKIMFPEI@file_version?$DN?$CC?$CFd?4?$CFd?4?$CFd?4?$CFd?$CC?5produ@ 000000007112b4b0     module.c.obj
 0002:0003d540       ??_C@_0KJ@ODFHGKJJ@?5?50x?$CF016I64x?90x?$CF016I64x?5?$CF?913ls?5e@ 000000007112b540     module.c.obj
 0002:0003d5f0       ??_C@_0NN@FHHHLKOI@?7?$DMdll?5range?$DN?$CC0x?$CF016I64x?90x?$CF016I6@ 000000007112b5f0     module.c.obj
 0002:0003d6d0       ??_C@_0OL@HLHEICI@?7?7mod_base?$DN?5?5?5?5?5?5?5?5?5?5?5?5?$CC0x?$CF016I6@ 000000007112b6d0     module.c.obj
 0002:0003d7bc       ??_C@_03OCHKFGFI@dll?$AA@  000000007112b7bc     module_shared.c.obj
 0002:0003d7c0       ??_C@_03MKABNOCG@Dec?$AA@  000000007112b7c0     diagnost.c.obj
 0002:0003d7c4       ??_C@_03JPJOFNIA@Nov?$AA@  000000007112b7c4     diagnost.c.obj
 0002:0003d7c8       ??_C@_03BMAOKBAD@Oct?$AA@  000000007112b7c8     diagnost.c.obj
 0002:0003d7cc       ??_C@_03GGCAPAJC@Sep?$AA@  000000007112b7cc     diagnost.c.obj
 0002:0003d7d0       ??_C@_03IFJFEIGA@Aug?$AA@  000000007112b7d0     diagnost.c.obj
 0002:0003d7d4       ??_C@_03LBGABGKK@Jul?$AA@  000000007112b7d4     diagnost.c.obj
 0002:0003d7d8       ??_C@_03IDFGHECI@Jun?$AA@  000000007112b7d8     diagnost.c.obj
 0002:0003d7dc       ??_C@_03CNMDKL@May?$AA@    000000007112b7dc     diagnost.c.obj
 0002:0003d7e0       ??_C@_03LEOLGMJP@Apr?$AA@  000000007112b7e0     diagnost.c.obj
 0002:0003d7e4       ??_C@_03ODNJBKGA@Mar?$AA@  000000007112b7e4     diagnost.c.obj
 0002:0003d7e8       ??_C@_03HJBDCHOM@Feb?$AA@  000000007112b7e8     diagnost.c.obj
 0002:0003d7ec       ??_C@_03JIHJHPIE@Jan?$AA@  000000007112b7ec     diagnost.c.obj
 0002:0003d7f0       ??_C@_03BBKEAIF@?$DP?$DP?$DP?$AA@ 000000007112b7f0     diagnost.c.obj
 0002:0003d800       ??_C@_1HC@OLAEOJFJ@?$AAS?$AAO?$AAF?$AAT?$AAW?$AAA?$AAR?$AAE?$AA?2?$AAP?$AAo?$AAl?$AAi?$AAc?$AAi?$AAe?$AAs?$AA?2?$AAM?$AAi?$AAc?$AAr?$AAo?$AAs?$AAo?$AAf?$AAt?$AA?2?$AAW?$AAi?$AAn?$AAd@ 000000007112b800     diagnost.c.obj
 0002:0003d880       ??_C@_1GE@DONAIPPK@?$AAS?$AAO?$AAF?$AAT?$AAW?$AAA?$AAR?$AAE?$AA?2?$AAM?$AAi?$AAc?$AAr?$AAo?$AAs?$AAo?$AAf?$AAt?$AA?2?$AAW?$AAi?$AAn?$AAd?$AAo?$AAw?$AAs?$AA?2?$AAC?$AAu?$AAr?$AAr?$AAe@ 000000007112b880     diagnost.c.obj
 0002:0003d8f0       ??_C@_1FM@KNABEEEB@?$AAS?$AAO?$AAF?$AAT?$AAW?$AAA?$AAR?$AAE?$AA?2?$AAM?$AAi?$AAc?$AAr?$AAo?$AAs?$AAo?$AAf?$AAt?$AA?2?$AAW?$AAi?$AAn?$AAd?$AAo?$AAw?$AAs?$AA?2?$AAC?$AAu?$AAr?$AAr?$AAe@ 000000007112b8f0     diagnost.c.obj
 0002:0003d950       ??_C@_1IA@DBHDCKEC@?$AAS?$AAO?$AAF?$AAT?$AAW?$AAA?$AAR?$AAE?$AA?2?$AAM?$AAi?$AAc?$AAr?$AAo?$AAs?$AAo?$AAf?$AAt?$AA?2?$AAW?$AAi?$AAn?$AAd?$AAo?$AAw?$AAs?$AA?2?$AAC?$AAu?$AAr?$AAr?$AAe@ 000000007112b950     diagnost.c.obj
 0002:0003d9d0       ??_C@_1IA@PNCDEKMN@?$AAS?$AAO?$AAF?$AAT?$AAW?$AAA?$AAR?$AAE?$AA?2?$AAM?$AAi?$AAc?$AAr?$AAo?$AAs?$AAo?$AAf?$AAt?$AA?2?$AAW?$AAi?$AAn?$AAd?$AAo?$AAw?$AAs?$AA?2?$AAC?$AAu?$AAr?$AAr?$AAe@ 000000007112b9d0     diagnost.c.obj
 0002:0003da50       ??_C@_1HC@KNKIELKL@?$AAS?$AAO?$AAF?$AAT?$AAW?$AAA?$AAR?$AAE?$AA?2?$AAM?$AAi?$AAc?$AAr?$AAo?$AAs?$AAo?$AAf?$AAt?$AA?2?$AAW?$AAi?$AAn?$AAd?$AAo?$AAw?$AAs?$AA?5?$AAN?$AAT?$AA?2?$AAC?$AAu@ 000000007112ba50     diagnost.c.obj
 0002:0003dad0       ??_C@_1HE@DNPDBOKL@?$AAS?$AAO?$AAF?$AAT?$AAW?$AAA?$AAR?$AAE?$AA?2?$AAM?$AAi?$AAc?$AAr?$AAo?$AAs?$AAo?$AAf?$AAt?$AA?2?$AAW?$AAi?$AAn?$AAd?$AAo?$AAw?$AAs?$AA?5?$AAN?$AAT?$AA?2?$AAC?$AAu@ 000000007112bad0     diagnost.c.obj
 0002:0003db50       ??_C@_1GM@GIBHDOLK@?$AAS?$AAO?$AAF?$AAT?$AAW?$AAA?$AAR?$AAE?$AA?2?$AAM?$AAi?$AAc?$AAr?$AAo?$AAs?$AAo?$AAf?$AAt?$AA?2?$AAW?$AAi?$AAn?$AAd?$AAo?$AAw?$AAs?$AA?5?$AAN?$AAT?$AA?2?$AAC?$AAu@ 000000007112bb50     diagnost.c.obj
 0002:0003dbc0       ??_C@_1GI@PFFEDHKH@?$AAS?$AAO?$AAF?$AAT?$AAW?$AAA?$AAR?$AAE?$AA?2?$AAM?$AAi?$AAc?$AAr?$AAo?$AAs?$AAo?$AAf?$AAt?$AA?2?$AAI?$AAn?$AAt?$AAe?$AAr?$AAn?$AAe?$AAt?$AA?5?$AAE?$AAx?$AAp?$AAl@ 000000007112bbc0     diagnost.c.obj
 0002:0003dc30       ??_C@_1HA@IDBMHCOA@?$AAS?$AAO?$AAF?$AAT?$AAW?$AAA?$AAR?$AAE?$AA?2?$AAM?$AAi?$AAc?$AAr?$AAo?$AAs?$AAo?$AAf?$AAt?$AA?2?$AAI?$AAn?$AAt?$AAe?$AAr?$AAn?$AAe?$AAt?$AA?5?$AAE?$AAx?$AAp?$AAl@ 000000007112bc30     diagnost.c.obj
 0002:0003dca0       ??_C@_1CM@FDDKAFMM@?$AAC?$AAo?$AAn?$AAt?$AAr?$AAo?$AAl?$AA?5?$AAP?$AAa?$AAn?$AAe?$AAl?$AA?2?$AAD?$AAe?$AAs?$AAk?$AAt?$AAo?$AAp?$AA?$AA@ 000000007112bca0     diagnost.c.obj
 0002:0003dcd0       ??_C@_1GI@BMOGCKOI@?$AA?2?$AAR?$AAe?$AAg?$AAi?$AAs?$AAt?$AAr?$AAy?$AA?2?$AAM?$AAa?$AAc?$AAh?$AAi?$AAn?$AAe?$AA?2?$AAS?$AAY?$AAS?$AAT?$AAE?$AAM?$AA?2?$AAC?$AAu?$AAr?$AAr?$AAe?$AAn?$AAt@ 000000007112bcd0     diagnost.c.obj
 0002:0003dd40       ??_C@_1JK@JAKLGEBP@?$AA?2?$AAR?$AAe?$AAg?$AAi?$AAs?$AAt?$AAr?$AAy?$AA?2?$AAM?$AAa?$AAc?$AAh?$AAi?$AAn?$AAe?$AA?2?$AAS?$AAY?$AAS?$AAT?$AAE?$AAM?$AA?2?$AAC?$AAu?$AAr?$AAr?$AAe?$AAn?$AAt@ 000000007112bd40     diagnost.c.obj
 0002:0003dde0       ??_C@_1IG@EPMAHCPK@?$AA?2?$AAR?$AAe?$AAg?$AAi?$AAs?$AAt?$AAr?$AAy?$AA?2?$AAM?$AAa?$AAc?$AAh?$AAi?$AAn?$AAe?$AA?2?$AAS?$AAY?$AAS?$AAT?$AAE?$AAM?$AA?2?$AAC?$AAu?$AAr?$AAr?$AAe?$AAn?$AAt@ 000000007112bde0     diagnost.c.obj
 0002:0003de70       ??_C@_1IE@BODNDOBO@?$AA?2?$AAR?$AAe?$AAg?$AAi?$AAs?$AAt?$AAr?$AAy?$AA?2?$AAM?$AAa?$AAc?$AAh?$AAi?$AAn?$AAe?$AA?2?$AAS?$AAY?$AAS?$AAT?$AAE?$AAM?$AA?2?$AAC?$AAu?$AAr?$AAr?$AAe?$AAn?$AAt@ 000000007112be70     diagnost.c.obj
 0002:0003df00       ??_C@_1GO@IMPKFJCD@?$AA?2?$AAR?$AAe?$AAg?$AAi?$AAs?$AAt?$AAr?$AAy?$AA?2?$AAM?$AAa?$AAc?$AAh?$AAi?$AAn?$AAe?$AA?2?$AAS?$AAY?$AAS?$AAT?$AAE?$AAM?$AA?2?$AAC?$AAu?$AAr?$AAr?$AAe?$AAn?$AAt@ 000000007112bf00     diagnost.c.obj
 0002:0003df70       ??_C@_1JG@CDHFCFDJ@?$AA?2?$AAR?$AAe?$AAg?$AAi?$AAs?$AAt?$AAr?$AAy?$AA?2?$AAM?$AAa?$AAc?$AAh?$AAi?$AAn?$AAe?$AA?2?$AAS?$AAO?$AAF?$AAT?$AAW?$AAA?$AAR?$AAE?$AA?2?$AAP?$AAo?$AAl?$AAi?$AAc@ 000000007112bf70     diagnost.c.obj
 0002:0003e010       ??_C@_1LA@JOFDBICA@?$AA?2?$AAR?$AAe?$AAg?$AAi?$AAs?$AAt?$AAr?$AAy?$AA?2?$AAM?$AAa?$AAc?$AAh?$AAi?$AAn?$AAe?$AA?2?$AAS?$AAO?$AAF?$AAT?$AAW?$AAA?$AAR?$AAE?$AA?2?$AAM?$AAi?$AAc?$AAr?$AAo@ 000000007112c010     diagnost.c.obj
 0002:0003e0c0       ??_C@_1KM@IIFPPCD@?$AA?2?$AAR?$AAe?$AAg?$AAi?$AAs?$AAt?$AAr?$AAy?$AA?2?$AAM?$AAa?$AAc?$AAh?$AAi?$AAn?$AAe?$AA?2?$AAS?$AAO?$AAF?$AAT?$AAW?$AAA?$AAR?$AAE?$AA?2?$AAM?$AAi?$AAc?$AAr?$AAo@ 000000007112c0c0     diagnost.c.obj
 0002:0003e170       ??_C@_1IM@IHBAAEOC@?$AA?2?$AAR?$AAe?$AAg?$AAi?$AAs?$AAt?$AAr?$AAy?$AA?2?$AAM?$AAa?$AAc?$AAh?$AAi?$AAn?$AAe?$AA?2?$AAS?$AAO?$AAF?$AAT?$AAW?$AAA?$AAR?$AAE?$AA?2?$AAM?$AAi?$AAc?$AAr?$AAo@ 000000007112c170     diagnost.c.obj
 0002:0003e200       ??_C@_1II@HGALGHFC@?$AA?2?$AAR?$AAe?$AAg?$AAi?$AAs?$AAt?$AAr?$AAy?$AA?2?$AAM?$AAa?$AAc?$AAh?$AAi?$AAn?$AAe?$AA?2?$AAS?$AAO?$AAF?$AAT?$AAW?$AAA?$AAR?$AAE?$AA?2?$AAM?$AAi?$AAc?$AAr?$AAo@ 000000007112c200     diagnost.c.obj
 0002:0003e290       ??_C@_1IA@PHLJBDGJ@?$AA?2?$AAR?$AAe?$AAg?$AAi?$AAs?$AAt?$AAr?$AAy?$AA?2?$AAM?$AAa?$AAc?$AAh?$AAi?$AAn?$AAe?$AA?2?$AAS?$AAO?$AAF?$AAT?$AAW?$AAA?$AAR?$AAE?$AA?2?$AAM?$AAi?$AAc?$AAr?$AAo@ 000000007112c290     diagnost.c.obj
 0002:0003e310       ??_C@_1JI@NPCBHOFD@?$AA?2?$AAR?$AAe?$AAg?$AAi?$AAs?$AAt?$AAr?$AAy?$AA?2?$AAM?$AAa?$AAc?$AAh?$AAi?$AAn?$AAe?$AA?2?$AAS?$AAO?$AAF?$AAT?$AAW?$AAA?$AAR?$AAE?$AA?2?$AAM?$AAi?$AAc?$AAr?$AAo@ 000000007112c310     diagnost.c.obj
 0002:0003e3b0       ??_C@_1KE@FCCGMIAN@?$AA?2?$AAR?$AAe?$AAg?$AAi?$AAs?$AAt?$AAr?$AAy?$AA?2?$AAM?$AAa?$AAc?$AAh?$AAi?$AAn?$AAe?$AA?2?$AAS?$AAO?$AAF?$AAT?$AAW?$AAA?$AAR?$AAE?$AA?2?$AAM?$AAi?$AAc?$AAr?$AAo@ 000000007112c3b0     diagnost.c.obj
 0002:0003e460       ??_C@_1KO@CPFDJIJK@?$AA?2?$AAR?$AAe?$AAg?$AAi?$AAs?$AAt?$AAr?$AAy?$AA?2?$AAM?$AAa?$AAc?$AAh?$AAi?$AAn?$AAe?$AA?2?$AAS?$AAO?$AAF?$AAT?$AAW?$AAA?$AAR?$AAE?$AA?2?$AAM?$AAi?$AAc?$AAr?$AAo@ 000000007112c460     diagnost.c.obj
 0002:0003e510       ??_C@_1LC@KDJEBCAM@?$AA?2?$AAR?$AAe?$AAg?$AAi?$AAs?$AAt?$AAr?$AAy?$AA?2?$AAM?$AAa?$AAc?$AAh?$AAi?$AAn?$AAe?$AA?2?$AAS?$AAO?$AAF?$AAT?$AAW?$AAA?$AAR?$AAE?$AA?2?$AAM?$AAi?$AAc?$AAr?$AAo@ 000000007112c510     diagnost.c.obj
 0002:0003e5d0       ??_C@_1LI@DEPBONDM@?$AA?2?$AAR?$AAe?$AAg?$AAi?$AAs?$AAt?$AAr?$AAy?$AA?2?$AAM?$AAa?$AAc?$AAh?$AAi?$AAn?$AAe?$AA?2?$AAS?$AAO?$AAF?$AAT?$AAW?$AAA?$AAR?$AAE?$AA?2?$AAM?$AAi?$AAc?$AAr?$AAo@ 000000007112c5d0     diagnost.c.obj
 0002:0003e690       ??_C@_1JA@DBIKNFJH@?$AA?2?$AAR?$AAe?$AAg?$AAi?$AAs?$AAt?$AAr?$AAy?$AA?2?$AAM?$AAa?$AAc?$AAh?$AAi?$AAn?$AAe?$AA?2?$AAS?$AAO?$AAF?$AAT?$AAW?$AAA?$AAR?$AAE?$AA?2?$AAM?$AAi?$AAc?$AAr?$AAo@ 000000007112c690     diagnost.c.obj
 0002:0003e720       ??_C@_1KI@PPMLJGAE@?$AA?2?$AAR?$AAe?$AAg?$AAi?$AAs?$AAt?$AAr?$AAy?$AA?2?$AAM?$AAa?$AAc?$AAh?$AAi?$AAn?$AAe?$AA?2?$AAS?$AAO?$AAF?$AAT?$AAW?$AAA?$AAR?$AAE?$AA?2?$AAM?$AAi?$AAc?$AAr?$AAo@ 000000007112c720     diagnost.c.obj
 0002:0003e7d0       ??_C@_1HO@MKNPGEMK@?$AA?2?$AAR?$AAe?$AAg?$AAi?$AAs?$AAt?$AAr?$AAy?$AA?2?$AAM?$AAa?$AAc?$AAh?$AAi?$AAn?$AAe?$AA?2?$AAS?$AAO?$AAF?$AAT?$AAW?$AAA?$AAR?$AAE?$AA?2?$AAM?$AAi?$AAc?$AAr?$AAo@ 000000007112c7d0     diagnost.c.obj
 0002:0003e850       ??_C@_1IE@NILLBPIH@?$AA?2?$AAR?$AAe?$AAg?$AAi?$AAs?$AAt?$AAr?$AAy?$AA?2?$AAM?$AAa?$AAc?$AAh?$AAi?$AAn?$AAe?$AA?2?$AAS?$AAO?$AAF?$AAT?$AAW?$AAA?$AAR?$AAE?$AA?2?$AAM?$AAi?$AAc?$AAr?$AAo@ 000000007112c850     diagnost.c.obj
 0002:0003e8e0       ??_C@_1IO@FGLPJEKK@?$AA?2?$AAR?$AAe?$AAg?$AAi?$AAs?$AAt?$AAr?$AAy?$AA?2?$AAM?$AAa?$AAc?$AAh?$AAi?$AAn?$AAe?$AA?2?$AAS?$AAO?$AAF?$AAT?$AAW?$AAA?$AAR?$AAE?$AA?2?$AAM?$AAi?$AAc?$AAr?$AAo@ 000000007112c8e0     diagnost.c.obj
 0002:0003e970       ??_C@_1GK@CKILKIAF@?$AA?2?$AAR?$AAe?$AAg?$AAi?$AAs?$AAt?$AAr?$AAy?$AA?2?$AAM?$AAa?$AAc?$AAh?$AAi?$AAn?$AAe?$AA?2?$AAS?$AAO?$AAF?$AAT?$AAW?$AAA?$AAR?$AAE?$AA?2?$AAC?$AAl?$AAa?$AAs?$AAs@ 000000007112c970     diagnost.c.obj
 0002:0003e9e0       ??_C@_1GI@MPEPBHHO@?$AA?2?$AAR?$AAe?$AAg?$AAi?$AAs?$AAt?$AAr?$AAy?$AA?2?$AAM?$AAa?$AAc?$AAh?$AAi?$AAn?$AAe?$AA?2?$AAS?$AAO?$AAF?$AAT?$AAW?$AAA?$AAR?$AAE?$AA?2?$AAC?$AAl?$AAa?$AAs?$AAs@ 000000007112c9e0     diagnost.c.obj
 0002:0003ea50       ??_C@_1IC@GPDCCPFE@?$AA?2?$AAR?$AAe?$AAg?$AAi?$AAs?$AAt?$AAr?$AAy?$AA?2?$AAM?$AAa?$AAc?$AAh?$AAi?$AAn?$AAe?$AA?2?$AAS?$AAO?$AAF?$AAT?$AAW?$AAA?$AAR?$AAE?$AA?2?$AAC?$AAl?$AAa?$AAs?$AAs@ 000000007112ca50     diagnost.c.obj
 0002:0003eae0       ??_C@_0EJ@CLIFBJG@?9?9?9?9?9?9?9?9?9?9?9?9?9?9?9?9?9?9?9?9?9?9?9?9?9?9?9?9?9?9?9?9@ 000000007112cae0     diagnost.c.obj
 0002:0003ec58       ??_C@_03NNECAHIM@?$CFS?6?$AA@ 000000007112cc58     diagnost.c.obj
 0002:0003ec5c       ??_C@_05PCOJHGNM@?$CF?42x?5?$AA@ 000000007112cc5c     diagnost.c.obj
 0002:0003ec68       ??_C@_07HMJFOJGL@0x?$CF?48x?6?$AA@ 000000007112cc68     diagnost.c.obj
 0002:0003ec70       ??_C@_05DMDHGMIF@?$CF?4?$CKS?6?$AA@ 000000007112cc70     diagnost.c.obj
 0002:0003ec78       ??_C@_04GAOAGNCM@?4xml?$AA@ 000000007112cc78     diagnost.c.obj
 0002:0003ec80       ??_C@_04BECDPEPH@?$FN?$FN?$DO?6?$AA@ 000000007112cc80     diagnost.c.obj
 0002:0003ec88       ??_C@_0CI@KFCNHACH@Can?8t?5print?50x?$CF?48x?90x?$CF?48x?5?$CIunrea@ 000000007112cc88     diagnost.c.obj
 0002:0003ecb0       ??_C@_0L@EBPPBCKI@?$DM?$CB?$FLCDATA?$FL?6?$AA@ 000000007112ccb0     diagnost.c.obj
 0002:0003ecc0       ??_C@_0M@HIBAPICF@?$CFs?3?50x?$CF?48x?6?$AA@ 000000007112ccc0     diagnost.c.obj
 0002:0003ecd0       ??_C@_0O@CJPAIEKN@?7?7?$DM?1content?$DO?6?$AA@ 000000007112ccd0     diagnost.c.obj
 0002:0003ece0       ??_C@_0O@PCNPLIPI@?7?7?$DO?$DMcontent?$DO?6?$AA@ 000000007112cce0     diagnost.c.obj
 0002:0003ecf0       ??_C@_0HN@CFACMMBB@?7?7address?$DN?5?5?5?5?5?5?5?5?5?5?5?5?5?$CC0x?$CF?48x?$CC?6@ 000000007112ccf0     diagnost.c.obj
 0002:0003ed70       ??_C@_06GGPOMPNM@?$CInone?$CJ?$AA@ 000000007112cd70     diagnost.c.obj
 0002:0003ed78       ??_C@_0CG@JPCIODIK@?7?7?$DM?1cache?9content?$DO?6?7?$DM?1?$CFs?9propert@ 000000007112cd78     diagnost.c.obj
 0002:0003eda0       ??_C@_02BKJPHGNJ@pc?$AA@   000000007112cda0     diagnost.c.obj
 0002:0003eda4       ??_C@_02NEKEAGPN@?$DO?6?$AA@ 000000007112cda4     diagnost.c.obj
 0002:0003eda8       ??_C@_0N@MEPABMLE@?6?7?7?7tags?$DN?5?5?$CC?$AA@ 000000007112cda8     diagnost.c.obj
 0002:0003edb8       ??_C@_0CD@BMKBOOMF@?7?7?$DMcache?9content?6?7?7?7flags?$DN?5?$CC0x?$CF0@ 000000007112cdb8     diagnost.c.obj
 0002:0003eddc       ??_C@_06OEKOLKIL@source?$AA@ 000000007112cddc     diagnost.c.obj
 0002:0003ede8       ??_C@_0BC@KOJDNALE@?7?$DM?$CFs?9properties?5?6?$AA@ 000000007112cde8     diagnost.c.obj
 0002:0003ee00       ??_C@_0BD@IKPICAH@?7?$DM?1?$CFs?9properties?$DO?6?$AA@ 000000007112ce00     diagnost.c.obj
 0002:0003ee14       ??_C@_06JJLAMBGK@target?$AA@ 000000007112ce14     diagnost.c.obj
 0002:0003ee20       ??_C@_0BB@NNDGHNFI@preferred?9target?$AA@ 000000007112ce20     diagnost.c.obj
 0002:0003ee40       ??_C@_0GA@EHNIDNLL@?$DMvm?9counters?$DO?6?$CF?410d?5?$CF?410d?5?$CF?410d?5@ 000000007112ce40     diagnost.c.obj
 0002:0003eea0       ??_C@_0BI@IJGEEKFN@?7?7?$DM?1content?$DO?6?7?$DM?1stack?$DO?6?$AA@ 000000007112cea0     diagnost.c.obj
 0002:0003eeb8       ??_C@_05IHHHDFHJ@Stack?$AA@ 000000007112ceb8     diagnost.c.obj
 0002:0003eec0       ??_C@_0O@FHPKDHAN@Current?5Stack?$AA@ 000000007112cec0     diagnost.c.obj
 0002:0003eed0       ??_C@_0BG@EJLECFDF@?7?$DMstack?$DO?6?7?7?$DMcontent?$DO?6?$AA@ 000000007112ced0     diagnost.c.obj
 0002:0003eee8       ??_C@_0BM@PBNLGAAK@?7?$DMwhereami?$DO?5?$CFd?5?$DM?1whereami?$DO?6?$AA@ 000000007112cee8     diagnost.c.obj
 0002:0003ef08       ??_C@_0CE@BPMOKGPG@?7No?5thread?5specific?5data?5availab@ 000000007112cf08     diagnost.c.obj
 0002:0003ef30       ??_C@_0BN@FHKOOKMA@?$DM?1internal?9data?9structures?$DO?6?$AA@ 000000007112cf30     diagnost.c.obj
 0002:0003ef50       ??_C@_0BG@PDLPKPIF@option?5string?5?$DN?5?$CC?$CFs?$CC?6?$AA@ 000000007112cf50     diagnost.c.obj
 0002:0003ef68       ??_C@_08ILHMBPFI@DR?5Stack?$AA@ 000000007112cf68     diagnost.c.obj
 0002:0003ef78       ??_C@_0BP@LHILDCBA@ebp?$DN0x?$CF016I64x?5esp?$DN0x?$CF016I64x?6?$AA@ 000000007112cf78     diagnost.c.obj
 0002:0003ef98       ??_C@_0BF@ECGMCMNK@?6Call?5stack?5for?5DR?3?6?$AA@ 000000007112cf98     diagnost.c.obj
 0002:0003efb0       ??_C@_0BB@MEGCGFBK@current?5dcontext?$AA@ 000000007112cfb0     diagnost.c.obj
 0002:0003efc8       ??_C@_0N@NKIJENOI@Exec?5areas?3?6?$AA@ 000000007112cfc8     diagnost.c.obj
 0002:0003efe0       ??_C@_0LE@KDNBAFMI@?$DMinternal?9data?9structures?$DO?6autom@ 000000007112cfe0     diagnost.c.obj
 0002:0003f098       ??_C@_0BP@NGAIPHNO@?$FN?$FN?$DO?$DM?1ntdll?9file?9information?$DO?6?6?$AA@ 000000007112d098     diagnost.c.obj
 0002:0003f0c0       ??_C@_0FA@HFLMECDD@0x?$CF?411x?$CF?48x?50x?$CF?411x?$CF?48x?50x?$CF?411x?$CF@ 000000007112d0c0     diagnost.c.obj
 0002:0003f110       ??_C@_1BE@LADKIFIO@?$AA?2?$AA?$DP?$AA?$DP?$AA?2?$AA?$CF?$AAs?$AA?2?$AA?$CF?$AAs?$AA?$AA@ 000000007112d110     diagnost.c.obj
 0002:0003f128       ??_C@_1CG@JCAMCKJJ@?$AAS?$AAy?$AAs?$AAt?$AAe?$AAm?$AA3?$AA2?$AA?2?$AAN?$AAT?$AAD?$AAL?$AAL?$AA?4?$AAD?$AAL?$AAL?$AA?$AA@ 000000007112d128     diagnost.c.obj
 0002:0003f150       ??_C@_1HO@PKFMCJEM@?$AA?2?$AAR?$AAe?$AAg?$AAi?$AAs?$AAt?$AAr?$AAy?$AA?2?$AAM?$AAa?$AAc?$AAh?$AAi?$AAn?$AAe?$AA?2?$AAS?$AAo?$AAf?$AAt?$AAw?$AAa?$AAr?$AAe?$AA?2?$AAM?$AAi?$AAc?$AAr?$AAo@ 000000007112d150     diagnost.c.obj
 0002:0003f1d0       ??_C@_1BG@FIGGICF@?$AAS?$AAy?$AAs?$AAt?$AAe?$AAm?$AAR?$AAo?$AAo?$AAt?$AA?$AA@ 000000007112d1d0     diagnost.c.obj
 0002:0003f1e8       ??_C@_0CD@GPDLPDJH@?$DMntdll?9file?9information?$DO?$DM?$CB?$FLCDATA@ 000000007112d1e8     diagnost.c.obj
 0002:0003f210       ??_C@_0L@EBNNKHBA@?$DM?1thread?$DO?6?$AA@ 000000007112d210     diagnost.c.obj
 0002:0003f220       ??_C@_0DA@MGOAFPAE@?6?$DMthread?5id?$DN?$CC?$CFd?$CC?5current?9thread?$DN@ 000000007112d220     diagnost.c.obj
 0002:0003f250       ??_C@_0CE@JGPEHKJN@?$DM?1thread?9list?$DO?6?$DM?1current?9process@ 000000007112d250     diagnost.c.obj
 0002:0003f278       ??_C@_0P@DKODBBBB@?6?$DMthread?9list?$DO?$AA@ 000000007112d278     diagnost.c.obj
 0002:0003f290       ??_C@_0GH@MKCMKKLG@?$DMio?9counters?$DO?60x?$CF?411x?$CF?48x?50x?$CF?411@ 000000007112d290     diagnost.c.obj
 0002:0003f2f8       ??_C@_0BB@NKHLHNCF@?6?$FN?$FN?$DO?$DM?1dll?9path?$DO?6?$AA@ 000000007112d2f8     diagnost.c.obj
 0002:0003f310       ??_C@_07JDKBICDB@?$CF?42047S?$AA@ 000000007112d310     diagnost.c.obj
 0002:0003f318       ??_C@_0BK@MBOPIAFD@?$DMdll?9path?$DO?$DM?$CB?$FLCDATA?$FL?5?5?5?5?5?5?$AA@ 000000007112d318     diagnost.c.obj
 0002:0003f338       ??_C@_0DA@LOLAGPGJ@?$DO?$DMcommand?9line?$DO?$DM?$CB?$FLCDATA?$FL?5?$CFS?6?$FN?$FN?$DO?$DM@ 000000007112d338     diagnost.c.obj
 0002:0003f370       ??_C@_0MN@MPOEEHNO@thread?9count?$DN?5?5?5?5?5?5?5?5?5?5?5?5?$CC?$CFd?$CC?6ha@ 000000007112d370     diagnost.c.obj
 0002:0003f440       ??_C@_0CD@HNOCODCM@console?9flags?$DN?5?5?5?5?5?5?5?5?5?5?5?$CC0x?$CF?48x@ 000000007112d440     diagnost.c.obj
 0002:0003f468       ??_C@_0BP@HNLHCBBK@runtime?9info?$DN?5?5?5?5?5?5?5?5?5?5?5?5?$CC?$CFS?$CC?6?$AA@ 000000007112d468     diagnost.c.obj
 0002:0003f488       ??_C@_1O@CEDCILHN@?$AA?$CI?$AAn?$AAu?$AAl?$AAl?$AA?$CJ?$AA?$AA@ 000000007112d488     diagnost.c.obj
 0002:0003f498       ??_C@_0BP@GEKBJOCC@shell?9info?$DN?5?5?5?5?5?5?5?5?5?5?5?5?5?5?$CC?$CFS?$CC?6?$AA@ 000000007112d498     diagnost.c.obj
 0002:0003f4c0       ??_C@_0EB@LHEKEDKD@being?9debugged?$DN?5?5?5?5?5?5?5?5?5?5?$CC?$CFs?$CC?6im@ 000000007112d4c0     diagnost.c.obj
 0002:0003f508       ??_C@_0BP@IPKJHPEH@process?9id?$DN?5?5?5?5?5?5?5?5?5?5?5?5?5?5?$CC?$CFd?$CC?6?$AA@ 000000007112d508     diagnost.c.obj
 0002:0003f528       ??_C@_0BP@ECGHBAGB@process?9id?$DN?5?5?5?5?5?5?5?5?5?5?5?5?5?5?$CC?$CFs?$CC?6?$AA@ 000000007112d528     diagnost.c.obj
 0002:0003f548       ??_C@_0BP@MPPDIFCM@current?9directory?9path?$DN?5?5?$CC?$CFS?$CC?6?$AA@ 000000007112d548     diagnost.c.obj
 0002:0003f568       ??_C@_0BP@HHEPADPO@short?9qualified?9name?$DN?5?5?5?5?$CC?$CFS?$CC?6?$AA@ 000000007112d568     diagnost.c.obj
 0002:0003f588       ??_C@_0BP@DMFJLLLF@full?9qualified?9name?$DN?5?5?5?5?5?$CC?$CFs?$CC?6?$AA@ 000000007112d588     diagnost.c.obj
 0002:0003f5a8       ??_C@_0BP@GCGCOPBO@image?9path?$DN?5?5?5?5?5?5?5?5?5?5?5?5?5?5?$CC?$CFS?$CC?6?$AA@ 000000007112d5a8     diagnost.c.obj
 0002:0003f5c8       ??_C@_0BP@PBDPFOM@name?$DN?5?5?5?5?5?5?5?5?5?5?5?5?5?5?5?5?5?5?5?5?$CC?$CFS?$CC?6?$AA@ 000000007112d5c8     diagnost.c.obj
 0002:0003f5e8       ??_C@_0BP@KPCBFKNC@name?$DN?5?5?5?5?5?5?5?5?5?5?5?5?5?5?5?5?5?5?5?5?$CC?$CFs?$CC?6?$AA@ 000000007112d5e8     diagnost.c.obj
 0002:0003f608       ??_C@_0BC@JIMMHBIG@?$DMcurrent?9process?6?$AA@ 000000007112d608     diagnost.c.obj
 0002:0003f620       ??_C@_0BG@MNDFDLMF@?$FN?$FN?$DO?5?$DM?1process?9list?$DO?6?6?$AA@ 000000007112d620     diagnost.c.obj
 0002:0003f638       ??_C@_0BL@DEOBJOKA@?$DMprocess?9list?$DO?5?$DM?$CB?$FLCDATA?$FL?5?6?$AA@ 000000007112d638     diagnost.c.obj
 0002:0003f658       ??_C@_1BK@BFIEKNFP@?$AAF?$AAr?$AAi?$AAe?$AAn?$AAd?$AAl?$AAy?$AAN?$AAa?$AAm?$AAe?$AA?$AA@ 000000007112d658     diagnost.c.obj
 0002:0003f678       ??_C@_17FABJNEFH@?$AAM?$AAf?$AAg?$AA?$AA@ 000000007112d678     diagnost.c.obj
 0002:0003f680       ??_C@_1BG@NKLOKCD@?$AAD?$AAe?$AAv?$AAi?$AAc?$AAe?$AAD?$AAe?$AAs?$AAc?$AA?$AA@ 000000007112d680     diagnost.c.obj
 0002:0003f698       ??_C@_17LGLPFNOI@?$AA?2?$AA?$CF?$AAs?$AA?$AA@ 000000007112d698     diagnost.c.obj
 0002:0003f6a0       ??_C@_04BODMGFIG@?$CFS?6?6?$AA@ 000000007112d6a0     diagnost.c.obj
 0002:0003f6a8       ??_C@_0BK@FEAFJOIC@?$CFsRegistry?5Settings?6?$CFS?6?$CFs?$AA@ 000000007112d6a8     diagnost.c.obj
 0002:0003f6c8       ??_C@_0BH@KEDDMBJL@?$DM?1diagnostic?9report?$DO?6?6?$AA@ 000000007112d6c8     diagnost.c.obj
 0002:0003f6e0       ??_C@_0CI@JDAFACDN@?$DMthreat?9id?$DO?5Threat?5ID?3?5?$CFs?5?$DM?1thre@ 000000007112d6e0     diagnost.c.obj
 0002:0003f710       ??_C@_0EP@JBCAEKML@?$DMdescription?$DO?5?$DM?$CB?$FLCDATA?$FL?$FL?5?6Genera@ 000000007112d710     diagnost.c.obj
 0002:0003f760       ??_C@_0FG@MEOCGJJK@?6?$DMdiagnostic?9report?$DO?6?$DMdate?$DO?5?$CFs?5?$CF@ 000000007112d760     diagnost.c.obj
 0002:0003f7b8       ??_C@_0CF@FJHEDOOJ@Feature_bits?$DN?5?$CC?$CF?48x?5?$CF?48x?5?$CF?48x?5?$CF?4@ 000000007112d7b8     diagnost.c.obj
 0002:0003f7e0       ??_C@_0BE@HBBOOOJP@L2_cache?$DN?5?5?5?5?5?$CC?$CFs?$CC?6?$AA@ 000000007112d7e0     diagnost.c.obj
 0002:0003f7f8       ??_C@_0BE@IKPNHOCC@L1_dcache?$DN?5?5?5?5?$CC?$CFs?$CC?6?$AA@ 000000007112d7f8     diagnost.c.obj
 0002:0003f810       ??_C@_0BE@JIEDNNDA@L1_icache?$DN?5?5?5?5?$CC?$CFs?$CC?6?$AA@ 000000007112d810     diagnost.c.obj
 0002:0003f828       ??_C@_0BG@DODKLEEN@Stepping?$DN?5?5?5?5?5?$CC0x?$CFx?$CC?6?$AA@ 000000007112d828     diagnost.c.obj
 0002:0003f840       ??_C@_0BG@IENDFAFG@Model?$DN?5?5?5?5?5?5?5?5?$CC0x?$CFx?$CC?6?$AA@ 000000007112d840     diagnost.c.obj
 0002:0003f858       ??_C@_0BG@OHBBEMJ@Family?$DN?5?5?5?5?5?5?5?$CC0x?$CFx?$CC?6?$AA@ 000000007112d858     diagnost.c.obj
 0002:0003f870       ??_C@_0BG@OOCOKPHH@Type?$DN?5?5?5?5?5?5?5?5?5?$CC0x?$CFx?$CC?6?$AA@ 000000007112d870     diagnost.c.obj
 0002:0003f888       ??_C@_0BE@ENOBKFP@Brand?$DN?5?5?5?5?5?5?5?5?$CC?$CFs?$CC?6?$AA@ 000000007112d888     diagnost.c.obj
 0002:0003f8a0       ??_C@_0BI@JPJLGJIA@?$DMprocessor?9information?6?$AA@ 000000007112d8a0     diagnost.c.obj
 0002:0003f8b8       ??_C@_0BF@CDGBNLDL@?$DM?1system?9settings?$DO?6?6?$AA@ 000000007112d8b8     diagnost.c.obj
 0002:0003f8d0       ??_C@_0CF@DCINHBPG@?$DMglobal?9flag?$DO?50x?$CF?48x?5?$DM?1global?9fl@ 000000007112d8d0     diagnost.c.obj
 0002:0003f900       ??_C@_0GK@NJLDGICG@?$DMprocessor?9times?$DO?6?70x?$CF?411x?$CF?48x?50@ 000000007112d900     diagnost.c.obj
 0002:0003f970       ??_C@_0GB@DKMOJNMK@?$DMtime?9of?9day?9information?$DO?6?70x?$CF?41@ 000000007112d970     diagnost.c.obj
 0002:0003f9e0       ??_C@_0ON@JADFLHAP@?7?$CF?410d?5?$CF?410d?5?$CF?410d?5?$CF?410d?5?$CF?410d?5?$CF@ 000000007112d9e0     diagnost.c.obj
 0002:0003fad0       ??_C@_0NI@KDHFECAF@?7?$CF?410d?5?$CF?410d?5?$CF?410d?5?$CF?410d?5?$CF?410d?5?$CF@ 000000007112dad0     diagnost.c.obj
 0002:0003fbb0       ??_C@_0EM@LBJBKCOL@?$DMperformance?9information?$DO?6?70x?$CF?41@ 000000007112dbb0     diagnost.c.obj
 0002:0003fc00       ??_C@_0HB@FJOEMGCI@?$DMbasic?9information?$DO?6?7?$CF?410d?5?$CF?410d@ 000000007112dc00     diagnost.c.obj
 0002:0003fc78       ??_C@_0CK@MNGDKAND@?$DMsystem?9settings?$DO?6?$DMcomputer?5name@ 000000007112dc78     diagnost.c.obj
 0002:0003fcb0       ??_C@_0BDJ@EBLEIADC@?$DM?$DPxml?5version?$DN?$CC1?40?$CC?5encoding?$DN?$CCis@ 000000007112dcb0     diagnost.c.obj
 0002:0003fdf0       ??_C@_0BM@GIGFDLDB@?$FN?$FN?$DO?6?$DM?1autostart?9programs?$DO?6?6?$AA@ 000000007112ddf0     diagnost.c.obj
 0002:0003fe10       ??_C@_1CK@KDGPAPFG@?$AA?2?$AAR?$AAe?$AAg?$AAi?$AAs?$AAt?$AAr?$AAy?$AA?2?$AAU?$AAs?$AAe?$AAr?$AA?2?$AA?$CF?$AAs?$AA?2?$AA?$CF?$AAs?$AA?$AA@ 000000007112de10     diagnost.c.obj
 0002:0003fe40       ??_C@_0CA@GIBGNJIP@?$DMautostart?9programs?$DO?6?$DM?$CB?$FLCDATA?$FL?6?$AA@ 000000007112de40     diagnost.c.obj
 0002:0003fe60       ??_C@_0BL@HNDAEHCI@?$FN?$FN?$DO?6?$DM?1registry?9settings?$DO?6?6?$AA@ 000000007112de60     diagnost.c.obj
 0002:0003fe80       ??_C@_1IM@CCLBFEIJ@?$AA?2?$AAR?$AAe?$AAg?$AAi?$AAs?$AAt?$AAr?$AAy?$AA?2?$AAM?$AAa?$AAc?$AAh?$AAi?$AAn?$AAe?$AA?2?$AAS?$AAo?$AAf?$AAt?$AAw?$AAa?$AAr?$AAe?$AA?2?$AAM?$AAi?$AAc?$AAr?$AAo@ 000000007112de80     diagnost.c.obj
 0002:0003ff10       ??_C@_1GA@DLIBAMCH@?$AA?2?$AAR?$AAe?$AAg?$AAi?$AAs?$AAt?$AAr?$AAy?$AA?2?$AAM?$AAa?$AAc?$AAh?$AAi?$AAn?$AAe?$AA?2?$AAS?$AAy?$AAs?$AAt?$AAe?$AAm?$AA?2?$AAC?$AAu?$AAr?$AAr?$AAe?$AAn?$AAt@ 000000007112df10     diagnost.c.obj
 0002:0003ff70       ??_C@_1FM@BFBPAOJP@?$AA?2?$AAR?$AAe?$AAg?$AAi?$AAs?$AAt?$AAr?$AAy?$AA?2?$AAM?$AAa?$AAc?$AAh?$AAi?$AAn?$AAe?$AA?2?$AAH?$AAa?$AAr?$AAd?$AAw?$AAa?$AAr?$AAe?$AA?2?$AAD?$AAe?$AAs?$AAc?$AAr@ 000000007112df70     diagnost.c.obj
 0002:0003ffd0       ??_C@_1LI@NMHIMEAI@?$AA?2?$AAR?$AAe?$AAg?$AAi?$AAs?$AAt?$AAr?$AAy?$AA?2?$AAM?$AAa?$AAc?$AAh?$AAi?$AAn?$AAe?$AA?2?$AAS?$AAO?$AAF?$AAT?$AAW?$AAA?$AAR?$AAE?$AA?2?$AAM?$AAi?$AAc?$AAr?$AAo@ 000000007112dfd0     diagnost.c.obj
 0002:00040088       ??_C@_0BP@BLKLOMCK@?$DMregistry?9settings?$DO?6?$DM?$CB?$FLCDATA?$FL?6?$AA@ 000000007112e088     diagnost.c.obj
 0002:000400b0       ??_C@_0EL@HCKEOFCB@Forensics?5file?5for?5security?5viol@ 000000007112e0b0     diagnost.c.obj
 0002:00040100       ??_C@_0BE@KPEFFHAO@?$DM?1forensic?9report?$DO?6?$AA@ 000000007112e100     diagnost.c.obj
 0002:00040118       ??_C@_1CE@PHCIHMHN@?$AAu?$AAn?$AAi?$AAq?$AAu?$AAe?$AA?9?$AA7?$AAa?$AAb?$AAa?$AAb?$AAc?$AAd?$AA?9?$AA?$CF?$AAd?$AA?$AA@ 000000007112e118     aslr.c.obj
 0002:00040140       ??_C@_1BI@KBDMCBDE@?$AA?$CF?$AAs?$AA?9?$AA?$CF?$AA0?$AA1?$AA6?$AAI?$AA6?$AA4?$AAx?$AA?$AA@ 000000007112e140     aslr.c.obj
 0002:00040158       ??_C@_1BO@BEHAJFML@?$AA?$CF?$AAs?$AA?9?$AA?$CF?$AAd?$AA?9?$AA?$CF?$AA0?$AA1?$AA0?$AAu?$AA?9?$AA?$CF?$AAs?$AA?$AA@ 000000007112e158     aslr.c.obj
 0002:00040178       ??_C@_1BK@HNONDBBL@?$AAK?$AAn?$AAo?$AAw?$AAn?$AAD?$AAl?$AAl?$AAP?$AAa?$AAt?$AAh?$AA?$AA@ 000000007112e178     aslr.c.obj
 0002:00040198       ??_C@_19JHEHLFPM@?$AA?2?$AA?$DP?$AA?$DP?$AA?2?$AA?$AA@ 000000007112e198     aslr.c.obj
 0002:000401a8       ??_C@_1BG@MHCCONHN@?$AA?2?$AAK?$AAn?$AAo?$AAw?$AAn?$AAD?$AAl?$AAl?$AAs?$AA?$AA@ 000000007112e1a8     aslr.c.obj
 0002:000401c0       ??_C@_1M@DFKENGJN@?$AA?$CF?$AAs?$AA?2?$AA?$CF?$AAs?$AA?$AA@ 000000007112e1c0     aslr.c.obj
 0002:000401d0       ??_C@_17GNJCADOE@?$AAt?$AAm?$AAp?$AA?$AA@ 000000007112e1d0     aslr.c.obj
 0002:000401e8       ??_C@_0DF@OBBODHEF@Application?5?$CFs?5?$CI?$CFs?$CJ?4?5Library?5has@ 000000007112e1e8     loader.c.obj
 0002:00040220       ??_C@_06GMKELIII@kernel?$AA@ 000000007112e220     loader.c.obj
 0002:00040228       ??_C@_0L@EDJKJIEC@kernelbase?$AA@ 000000007112e228     loader.c.obj
 0002:00040238       ??_C@_0L@GGOPNPLL@msvcrt?4dll?$AA@ 000000007112e238     loader.c.obj
 0002:00040248       ??_C@_0M@CNNOBMIJ@sechost?4dll?$AA@ 000000007112e248     loader.c.obj
 0002:00040258       ??_C@_0P@OEFGOMJK@kernelbase?4dll?$AA@ 000000007112e258     loader.c.obj
 0002:00040268       ??_C@_0BN@JCHLDHGC@API?9MS?9Win?9Core?9Enclave?9L1?91?$AA@ 000000007112e268     loader.c.obj
 0002:00040288       ??_C@_0CC@NDNGBBEE@API?9MS?9Win?9Core?9LargeInteger?9L1?9@ 000000007112e288     loader.c.obj
 0002:000402b0       ??_C@_0BM@HKFNPMJF@API?9MS?9Win?9Core?9Fibers?9L2?91?$AA@ 000000007112e2b0     loader.c.obj
 0002:000402d0       ??_C@_0CF@DAJADNDL@API?9MS?9Win?9Core?9ProcessSnapshot?9@ 000000007112e2d0     loader.c.obj
 0002:000402f8       ??_C@_0CD@BKAHACCB@API?9MS?9Win?9Core?9LibraryLoader?9L2@ 000000007112e2f8     loader.c.obj
 0002:00040320       ??_C@_0BK@MMKGHAOK@API?9MS?9Win?9Core?9Heap?9L2?91?$AA@ 000000007112e320     loader.c.obj
 0002:00040340       ??_C@_0CC@MIPBHANN@API?9MS?9Win?9Eventing?9Provider?9L1?9@ 000000007112e340     loader.c.obj
 0002:00040368       ??_C@_0N@INAGJMNN@advapi32?4dll?$AA@ 000000007112e368     loader.c.obj
 0002:00040378       ??_C@_0CB@PGOAJJN@API?9MS?9WIN?9SECURITY?9LSAPOLICY?9L1@ 000000007112e378     loader.c.obj
 0002:000403a0       ??_C@_0BM@OAIMNBDP@API?9MS?9Win?9Core?9XState?9L2?91?$AA@ 000000007112e3a0     loader.c.obj
 0002:000403c0       ??_C@_0CF@JKDEBPK@API?9MS?9Win?9Core?9ProcessTopology?9@ 000000007112e3c0     loader.c.obj
 0002:000403e8       ??_C@_0CC@FKMKJINO@API?9MS?9Win?9Eventing?9Consumer?9L1?9@ 000000007112e3e8     loader.c.obj
 0002:00040410       ??_C@_0CE@MFFAEFJ@API?9MS?9Win?9Eventing?9Controller?9L@ 000000007112e410     loader.c.obj
 0002:00040438       ??_C@_0BP@NEJIFBJN@API?9MS?9Win?9Security?9Audit?9L1?91?$AA@ 000000007112e438     loader.c.obj
 0002:00040458       ??_C@_0CA@OLLKANCD@API?9MS?9Win?9Service?9Private?9L1?91?$AA@ 000000007112e458     loader.c.obj
 0002:00040478       ??_C@_0BJ@GCHABKKJ@API?9MS?9Win?9Core?9CRT?9L2?91?$AA@ 000000007112e478     loader.c.obj
 0002:00040498       ??_C@_0BJ@HAMFLFEH@API?9MS?9Win?9Core?9CRT?9L1?91?$AA@ 000000007112e498     loader.c.obj
 0002:000404b8       ??_C@_0CG@MAMFFNLG@API?9MS?9Win?9Security?9Base?9Private@ 000000007112e4b8     loader.c.obj
 0002:000404e0       ??_C@_0BJ@ODIGEACL@API?9MS?9Win?9Core?9BEM?9L1?91?$AA@ 000000007112e4e0     loader.c.obj
 0002:00040500       ??_C@_0CD@HPKFPNLM@API?9MS?9Win?9Core?9Heap?9Obsolete?9L1@ 000000007112e500     loader.c.obj
 0002:00040528       ??_C@_0CF@NBHFAGBC@API?9MS?9Win?9Core?9String?9Obsolete?9@ 000000007112e528     loader.c.obj
 0002:00040550       ??_C@_0CG@KCEEKCMN@API?9MS?9Win?9Security?9Appcontainer@ 000000007112e550     loader.c.obj
 0002:00040578       ??_C@_0CE@CJDMNCCI@API?9MS?9Win?9Core?9Psapi?9Obsolete?9L@ 000000007112e578     loader.c.obj
 0002:000405a0       ??_C@_0CA@PILCPNFH@API?9MS?9Win?9Core?9Psapi?9Ansi?9L1?91?$AA@ 000000007112e5a0     loader.c.obj
 0002:000405c0       ??_C@_0BL@ICDGBPIN@API?9MS?9Win?9Core?9Psapi?9L1?91?$AA@ 000000007112e5c0     loader.c.obj
 0002:000405e0       ??_C@_0BN@IDAGGKCN@API?9MS?9Win?9Core?9Console?9L2?91?$AA@ 000000007112e5e0     loader.c.obj
 0002:00040600       ??_C@_0CL@MGMFJHIL@API?9MS?9Win?9Core?9WindowsErrorRepo@ 000000007112e600     loader.c.obj
 0002:00040630       ??_C@_0BP@BLCFEDBH@API?9MS?9Win?9Core?9Appcompat?9L1?91?$AA@ 000000007112e630     loader.c.obj
 0002:00040650       ??_C@_0CA@IILMGPFC@API?9MS?9Win?9Core?9SideBySide?9L1?91?$AA@ 000000007112e650     loader.c.obj
 0002:00040670       ??_C@_0CD@LMNMOHDP@API?9MS?9Win?9Core?9Normalization?9L1@ 000000007112e670     loader.c.obj
 0002:00040698       ??_C@_0CC@BGHFOMEI@API?9MS?9Win?9Core?9Localization?9L2?9@ 000000007112e698     loader.c.obj
 0002:000406c0       ??_C@_0BK@JKLIBFPF@API?9MS?9Win?9Core?9File?9L2?91?$AA@ 000000007112e6c0     loader.c.obj
 0002:000406e0       ??_C@_0BP@OGINKELF@API?9MS?9Win?9Core?9Namespace?9L1?91?$AA@ 000000007112e6e0     loader.c.obj
 0002:00040700       ??_C@_0CF@CCIOBCDJ@API?9MS?9Win?9Core?9ProcessTopology?9@ 000000007112e700     loader.c.obj
 0002:00040728       ??_C@_0CE@BAHKMDJE@API?9MS?9Win?9Core?9SystemTopology?9L@ 000000007112e728     loader.c.obj
 0002:00040750       ??_C@_0BO@LGBIGGHE@API?9MS?9Win?9Core?9Realtime?9L1?91?$AA@ 000000007112e750     loader.c.obj
 0002:00040770       ??_C@_0BL@CJBJJCPN@API?9MS?9Win?9Core?9WOW64?9L1?91?$AA@ 000000007112e770     loader.c.obj
 0002:00040790       ??_C@_0BK@OCHLEGCM@API?9MS?9Win?9Core?9Comm?9L1?91?$AA@ 000000007112e790     loader.c.obj
 0002:000407b0       ??_C@_0CK@KMPMLCKE@API?9MS?9Win?9Core?9Localization?9Pri@ 000000007112e7b0     loader.c.obj
 0002:000407e0       ??_C@_0BO@EJHLKJOH@API?9MS?9Win?9Core?9Timezone?9L1?91?$AA@ 000000007112e7e0     loader.c.obj
 0002:00040800       ??_C@_0CI@LDKPOML@API?9MS?9Win?9Core?9Threadpool?9Priva@ 000000007112e800     loader.c.obj
 0002:00040828       ??_C@_0CH@OGPNELIC@API?9MS?9Win?9Core?9Threadpool?9Legac@ 000000007112e828     loader.c.obj
 0002:00040850       ??_C@_0BJ@JBNNFNI@API?9MS?9Win?9Core?9Job?9L1?91?$AA@ 000000007112e850     loader.c.obj
 0002:00040870       ??_C@_0BO@JCMEAELE@API?9MS?9Win?9Core?9Registry?9L1?91?$AA@ 000000007112e870     loader.c.obj
 0002:00040890       ??_C@_0CD@FNHLCKLE@API?9MS?9Win?9Core?9Kernel32?9Legacy?9@ 000000007112e890     loader.c.obj
 0002:000408b8       ??_C@_0BN@JDFAGKFM@API?9MS?9Win?9Service?9Winsvc?9L1?$AA@ 000000007112e8b8     loader.c.obj
 0002:000408d8       ??_C@_0CB@PANGKPDD@API?9MS?9Win?9Service?9Management?9L2@ 000000007112e8d8     loader.c.obj
 0002:00040900       ??_C@_0CB@NLPLPMPA@API?9MS?9Win?9Service?9Management?9L1@ 000000007112e900     loader.c.obj
 0002:00040928       ??_C@_0BL@JAGJOJPM@API?9MS?9Win?9Service?9Core?9L1?$AA@ 000000007112e928     loader.c.obj
 0002:00040948       ??_C@_0BM@KPCBBCFG@API?9MS?9Win?9Security?9SDDL?9L1?$AA@ 000000007112e948     loader.c.obj
 0002:00040968       ??_C@_0CB@IIHDHCNF@API?9MS?9Win?9Security?9LSALookup?9L1@ 000000007112e968     loader.c.obj
 0002:00040990       ??_C@_0BM@FHBLEPLI@API?9MS?9Win?9Security?9Base?9L1?$AA@ 000000007112e990     loader.c.obj
 0002:000409b0       ??_C@_0BI@MJFKPIH@API?9MS?9Win?9Core?9Util?9L1?$AA@ 000000007112e9b0     loader.c.obj
 0002:000409c8       ??_C@_0BK@OFOOBCPL@API?9MS?9Win?9Core?9XState?9L1?$AA@ 000000007112e9c8     loader.c.obj
 0002:000409e8       ??_C@_0BO@FDMGDFHP@API?9MS?9Win?9Core?9ThreadPool?9L1?$AA@ 000000007112e9e8     loader.c.obj
 0002:00040a08       ??_C@_0BL@GBMBBDCB@API?9MS?9Win?9Core?9SysInfo?9L1?$AA@ 000000007112ea08     loader.c.obj
 0002:00040a28       ??_C@_0BJ@CGMDNIMC@API?9MS?9Win?9Core?9Synch?9L1?$AA@ 000000007112ea28     loader.c.obj
 0002:00040a48       ??_C@_0BK@NGJDDDBL@API?9MS?9Win?9Core?9String?9L1?$AA@ 000000007112ea48     loader.c.obj
 0002:00040a68       ??_C@_0BO@MCMHNDOH@API?9MS?9Win?9Core?9RTLSupport?9L1?$AA@ 000000007112ea68     loader.c.obj
 0002:00040a88       ??_C@_0BL@EEONEKAB@API?9MS?9Win?9Core?9Profile?9L1?$AA@ 000000007112ea88     loader.c.obj
 0002:00040aa8       ??_C@_0CC@PEDIDANJ@API?9MS?9Win?9Core?9ProcessThreads?9L@ 000000007112eaa8     loader.c.obj
 0002:00040ad0       ??_C@_0CG@OPFMALBK@API?9MS?9Win?9Core?9ProcessEnvironme@ 000000007112ead0     loader.c.obj
 0002:00040af8       ??_C@_0BN@DEHAEMPK@API?9MS?9Win?9Core?9NamedPipe?9L1?$AA@ 000000007112eaf8     loader.c.obj
 0002:00040b18       ??_C@_0BI@IFNPMODL@API?9MS?9Win?9Core?9Misc?9L1?$AA@ 000000007112eb18     loader.c.obj
 0002:00040b30       ??_C@_0BK@DJMACJMM@API?9MS?9Win?9Core?9Memory?9L1?$AA@ 000000007112eb30     loader.c.obj
 0002:00040b50       ??_C@_0CB@LFNCNCOI@API?9MS?9Win?9Core?9LibraryLoader?9L1@ 000000007112eb50     loader.c.obj
 0002:00040b78       ??_C@_0CB@EKHOLMNO@API?9MS?9Win?9Core?9LocalRegistry?9L1@ 000000007112eb78     loader.c.obj
 0002:00040ba0       ??_C@_0CA@CBMJKBBB@API?9MS?9Win?9Core?9Localization?9L1?$AA@ 000000007112eba0     loader.c.obj
 0002:00040bc0       ??_C@_0BG@HKBLOGNN@API?9MS?9Win?9Core?9IO?9L1?$AA@ 000000007112ebc0     loader.c.obj
 0002:00040bd8       ??_C@_0BP@DNALAIPG@API?9MS?9Win?9Core?9Interlocked?9L1?$AA@ 000000007112ebd8     loader.c.obj
 0002:00040bf8       ??_C@_0BI@GDMBOEOJ@API?9MS?9Win?9Core?9Heap?9L1?$AA@ 000000007112ebf8     loader.c.obj
 0002:00040c10       ??_C@_0BK@JCEBPJPF@API?9MS?9Win?9Core?9Handle?9L1?$AA@ 000000007112ec10     loader.c.obj
 0002:00040c30       ??_C@_0BI@KFHFJHID@API?9MS?9Win?9Core?9File?9L1?$AA@ 000000007112ec30     loader.c.obj
 0002:00040c48       ??_C@_0BK@BAPEHEGM@API?9MS?9Win?9Core?9Fibers?9L1?$AA@ 000000007112ec48     loader.c.obj
 0002:00040c68       ??_C@_08PNLNEKOB@kernel32?$AA@ 000000007112ec68     loader.c.obj
 0002:00040c78       ??_C@_0CB@OPLMHAIB@API?9MS?9Win?9Core?9ErrorHandling?9L1@ 000000007112ec78     loader.c.obj
 0002:00040ca0       ??_C@_0BJ@FFAJMPDN@API?9MS?9Win?9Core?9Debug?9L1?$AA@ 000000007112eca0     loader.c.obj
 0002:00040cc0       ??_C@_0BN@CFONCCOP@API?9MS?9Win?9Core?9DelayLoad?9L1?$AA@ 000000007112ecc0     loader.c.obj
 0002:00040ce0       ??_C@_0BM@HIEEHLHG@API?9MS?9Win?9Core?9DateTime?9L1?$AA@ 000000007112ece0     loader.c.obj
 0002:00040d00       ??_C@_0BL@OBFJPMKF@API?9MS?9Win?9Core?9Console?9L1?$AA@ 000000007112ed00     loader.c.obj
 0002:00040d20       ??_C@_0BM@ECDPMCJN@API?9MS?9Win?9Core?9APIQuery?9L1?$AA@ 000000007112ed20     loader.c.obj
 0002:00040d40       ??_C@_0M@PDKKHDNM@API?9MS?9Win?9?$AA@ 000000007112ed40     loader.c.obj
 0002:00040d50       ??_C@_0BG@FAPOADHC@?6?7Cannot?5find?5library?$AA@ 000000007112ed50     loader.c.obj
 0002:00040d68       ??_C@_0P@BOEEOLCK@?$CFs?1system32?1?$CFs?$AA@ 000000007112ed68     loader.c.obj
 0002:00040d78       ??_C@_05GFOLEBJA@?$CFs?1?$CFs?$AA@ 000000007112ed78     loader.c.obj
 0002:00040d80       ??_C@_0O@IPKAKONF@AttachConsole?$AA@ 000000007112ed80     loader.c.obj
 0002:00040d90       ??_C@_0N@EBDGNADB@GetConsoleCP?$AA@ 000000007112ed90     loader.c.obj
 0002:00040da0       ??_C@_0M@LAGCIMKJ@FreeConsole?$AA@ 000000007112eda0     loader.c.obj
 0002:00040db0       ??_C@_0CO@EGDNAJEA@?$HN?$DL?6?4reload?5?1i?5?$CFs?$DN?$CF016I64x?$DL?4echo?5@ 000000007112edb0     loader.c.obj
 0002:00040de0       ??_C@_0BC@BNDLCNDM@?4block?$HL?4sympath?$CL?5?$AA@ 000000007112ede0     loader.c.obj
 0002:00040df8       ??_C@_0L@GMPLCCII@user32?4dll?$AA@ 000000007112edf8     loader.c.obj
 0002:00040e08       ??_C@_0P@JCCMDCHG@NtGetTickCount?$AA@ 000000007112ee08     loader.c.obj
 0002:00040e18       ??_C@_1BG@OILDLIOJ@?$AAu?$AAs?$AAe?$AAr?$AA3?$AA2?$AA?4?$AAd?$AAl?$AAl?$AA?$AA@ 000000007112ee18     loader.c.obj
 0002:00040e30       ??_C@_03PIADFGHL@sys?$AA@  000000007112ee30     loader.c.obj
 0002:00040e38       ??_C@_0BI@IOHNNNII@import?5?$CFs?5not?5found?5in?5?$AA@ 000000007112ee38     loader.c.obj
 0002:00040e50       ??_C@_09PGIHGLLA@?$DMordinal?$DO?$AA@ 000000007112ee50     loader.c.obj
 0002:00040e60       ??_C@_0L@IKBIFNGI@rpcrt4?4dll?$AA@ 000000007112ee60     drwinapi.c.obj
 0002:00040e70       ??_C@_0N@KCFDJLIF@LoadLibraryW?$AA@ 000000007112ee70     drwinapi.c.obj
 0002:00040e80       ??_C@_0BB@GBNBFCPM@GetModuleHandleW?$AA@ 000000007112ee80     drwinapi.c.obj
 0002:00040e98       ??_C@_0BB@HNEJOHCL@GetModuleHandleA?$AA@ 000000007112ee98     drwinapi.c.obj
 0002:00040eb0       ??_C@_0BC@KJGAHPBD@RtlProcessFlsData?$AA@ 000000007112eeb0     ntdll_redir.c.obj
 0002:00040ec8       ??_C@_0L@JPBOLMOH@RtlFlsFree?$AA@ 000000007112eec8     ntdll_redir.c.obj
 0002:00040ed8       ??_C@_0M@MCGLICAE@RtlFlsAlloc?$AA@ 000000007112eed8     ntdll_redir.c.obj
 0002:00040ee8       ??_C@_0BF@IPAHFEPJ@ZwUnmapViewOfSection?$AA@ 000000007112eee8     ntdll_redir.c.obj
 0002:00040f00       ??_C@_0BH@JHOFABAM@ZwSetInformationThread?$AA@ 000000007112ef00     ntdll_redir.c.obj
 0002:00040f18       ??_C@_0BF@IOCOIHLM@ZwSetInformationFile?$AA@ 000000007112ef18     ntdll_redir.c.obj
 0002:00040f30       ??_C@_0BK@BDBDIBMH@ZwQueryFullAttributesFile?$AA@ 000000007112ef30     ntdll_redir.c.obj
 0002:00040f50       ??_C@_0BG@GHFHDGOA@ZwQueryAttributesFile?$AA@ 000000007112ef50     ntdll_redir.c.obj
 0002:00040f68       ??_C@_0BE@ONNANPEN@ZwOpenThreadTokenEx?$AA@ 000000007112ef68     ntdll_redir.c.obj
 0002:00040f80       ??_C@_0BC@IHGIMNLF@ZwOpenThreadToken?$AA@ 000000007112ef80     ntdll_redir.c.obj
 0002:00040f98       ??_C@_0N@HLDGFDL@ZwOpenThread?$AA@ 000000007112ef98     ntdll_redir.c.obj
 0002:00040fa8       ??_C@_0BF@GEAAJNAA@ZwOpenProcessTokenEx?$AA@ 000000007112efa8     ntdll_redir.c.obj
 0002:00040fc0       ??_C@_0BD@FICHFIDH@ZwOpenProcessToken?$AA@ 000000007112efc0     ntdll_redir.c.obj
 0002:00040fd8       ??_C@_0O@FEPJHLEJ@ZwOpenProcess?$AA@ 000000007112efd8     ntdll_redir.c.obj
 0002:00040fe8       ??_C@_0M@OKCCJLED@ZwOpenKeyEx?$AA@ 000000007112efe8     ntdll_redir.c.obj
 0002:00040ff8       ??_C@_09LIJLGMPD@ZwOpenKey?$AA@ 000000007112eff8     ntdll_redir.c.obj
 0002:00041008       ??_C@_0L@JECNLNLK@ZwOpenFile?$AA@ 000000007112f008     ntdll_redir.c.obj
 0002:00041018       ??_C@_0BD@PPCCBCGB@ZwMapViewOfSection?$AA@ 000000007112f018     ntdll_redir.c.obj
 0002:00041030       ??_C@_0M@KGPINBFB@ZwCreateKey?$AA@ 000000007112f030     ntdll_redir.c.obj
 0002:00041040       ??_C@_0N@KMOLBMMD@ZwCreateFile?$AA@ 000000007112f040     ntdll_redir.c.obj
 0002:00041050       ??_C@_0BB@ELOKKEEC@RtlFreeOemString?$AA@ 000000007112f050     ntdll_redir.c.obj
 0002:00041068       ??_C@_0BC@DBMJHAHF@RtlFreeAnsiString?$AA@ 000000007112f068     ntdll_redir.c.obj
 0002:00041080       ??_C@_0BF@GENHDPCD@RtlFreeUnicodeString?$AA@ 000000007112f080     ntdll_redir.c.obj
 0002:00041098       ??_C@_0BJ@EPEACOEM@RtlDeleteCriticalSection?$AA@ 000000007112f098     ntdll_redir.c.obj
 0002:000410b8       ??_C@_0BP@DDGAOBPE@RtlInitializeCriticalSectionEx?$AA@ 000000007112f0b8     ntdll_redir.c.obj
 0002:000410d8       ??_C@_0CJ@MPODIBJB@RtlInitializeCriticalSectionAndS@ 000000007112f0d8     ntdll_redir.c.obj
 0002:00041108       ??_C@_0BN@PMMLABHK@RtlInitializeCriticalSection?$AA@ 000000007112f108     ntdll_redir.c.obj
 0002:00041128       ??_C@_0O@BAFDFOCI@RtlUnlockHeap?$AA@ 000000007112f128     ntdll_redir.c.obj
 0002:00041138       ??_C@_0M@DKBLBPDB@RtlLockHeap?$AA@ 000000007112f138     ntdll_redir.c.obj
 0002:00041148       ??_C@_0BG@HHCEJFIP@RtlSetHeapInformation?$AA@ 000000007112f148     ntdll_redir.c.obj
 0002:00041160       ??_C@_0BA@EEJAMNOM@RtlValidateHeap?$AA@ 000000007112f160     ntdll_redir.c.obj
 0002:00041170       ??_C@_0M@EHEBCDHL@RtlSizeHeap?$AA@ 000000007112f170     ntdll_redir.c.obj
 0002:00041180       ??_C@_0M@BBFBOFBP@RtlFreeHeap?$AA@ 000000007112f180     ntdll_redir.c.obj
 0002:00041190       ??_C@_0BC@KCCBPNDF@RtlReAllocateHeap?$AA@ 000000007112f190     ntdll_redir.c.obj
 0002:000411a8       ??_C@_0BA@HKDEHBAO@RtlAllocateHeap?$AA@ 000000007112f1a8     ntdll_redir.c.obj
 0002:000411b8       ??_C@_0P@HGJJNGEH@RtlDestroyHeap?$AA@ 000000007112f1b8     ntdll_redir.c.obj
 0002:000411c8       ??_C@_0O@EKNIFGJP@RtlCreateHeap?$AA@ 000000007112f1c8     ntdll_redir.c.obj
 0002:000411d8       ??_C@_0BH@EGOBOPMA@RtlCleanUpTEBLangLists?$AA@ 000000007112f1d8     ntdll_redir.c.obj
 0002:000411f0       ??_C@_0BP@HFHFAFCM@RtlSetUnhandledExceptionFilter?$AA@ 000000007112f1f0     ntdll_redir.c.obj
 0002:00041210       ??_C@_0BK@MNAIDIIL@RtlSetThreadPoolStartFunc?$AA@ 000000007112f210     ntdll_redir.c.obj
 0002:00041230       ??_C@_0BI@CPFBOAJB@LdrSetDllManifestProber?$AA@ 000000007112f230     ntdll_redir.c.obj
 0002:00041248       ??_C@_0BC@DAJMIJHM@RtlPcToFileHeader?$AA@ 000000007112f248     ntdll_redir.c.obj
 0002:00041260       ??_C@_0L@HOFGLFDL@LdrLoadDll?$AA@ 000000007112f260     ntdll_redir.c.obj
 0002:00041270       ??_C@_0BH@GKPJJDBO@LdrGetProcedureAddress?$AA@ 000000007112f270     ntdll_redir.c.obj
 0002:00041670       ??_C@_0N@MJEBPCH@SetLastError?$AA@ 000000007112f670     kernel32_redir.c.obj
 0002:00041680       ??_C@_0N@HICKNDGL@GetLastError?$AA@ 000000007112f680     kernel32_redir.c.obj
 0002:00041690       ??_C@_0BE@CLKLPNNG@WaitForSingleObject?$AA@ 000000007112f690     kernel32_redir.c.obj
 0002:000416a8       ??_C@_0BF@MKJKJEKG@InterlockedIncrement?$AA@ 000000007112f6a8     kernel32_redir.c.obj
 0002:000416c0       ??_C@_0BE@IONGHHBK@InterlockedExchange?$AA@ 000000007112f6c0     kernel32_redir.c.obj
 0002:000416d8       ??_C@_0BF@LNDBIBML@InterlockedDecrement?$AA@ 000000007112f6d8     kernel32_redir.c.obj
 0002:000416f0       ??_C@_0BM@CBNBFADA@InterlockedCompareExchange?5?$AA@ 000000007112f6f0     kernel32_redir.c.obj
 0002:00041710       ??_C@_0BF@PCHFPJFA@LeaveCriticalSection?$AA@ 000000007112f710     kernel32_redir.c.obj
 0002:00041728       ??_C@_0BF@KEABDKDM@EnterCriticalSection?$AA@ 000000007112f728     kernel32_redir.c.obj
 0002:00041740       ??_C@_0BG@LEFHBJFJ@DeleteCriticalSection?$AA@ 000000007112f740     kernel32_redir.c.obj
 0002:00041758       ??_C@_0BM@HCFOFFN@InitializeCriticalSectionEx?$AA@ 000000007112f758     kernel32_redir.c.obj
 0002:00041778       ??_C@_0CG@PKBDLMEO@InitializeCriticalSectionAndSpin@ 000000007112f778     kernel32_redir.c.obj
 0002:000417a0       ??_C@_0N@BKPPPGAL@GetStdHandle?$AA@ 000000007112f7a0     kernel32_redir.c.obj
 0002:000417b0       ??_C@_0M@PPCMHALN@GetFileType?$AA@ 000000007112f7b0     kernel32_redir.c.obj
 0002:000417c0       ??_C@_0M@BAICHOOE@GetFileSize?$AA@ 000000007112f7c0     kernel32_redir.c.obj
 0002:000417d0       ??_C@_0BL@JOCCKKDM@GetFileInformationByHandle?$AA@ 000000007112f7d0     kernel32_redir.c.obj
 0002:000417f0       ??_C@_0BD@CFFEJJPG@GetFileAttributesW?$AA@ 000000007112f7f0     kernel32_redir.c.obj
 0002:00041808       ??_C@_0BD@DJMMCMCB@GetFileAttributesA?$AA@ 000000007112f808     kernel32_redir.c.obj
 0002:00041820       ??_C@_0O@FKPIFBDG@GetDriveTypeW?$AA@ 000000007112f820     kernel32_redir.c.obj
 0002:00041830       ??_C@_0O@EGGAOEOB@GetDriveTypeA?$AA@ 000000007112f830     kernel32_redir.c.obj
 0002:00041840       ??_C@_0BC@BOCPGOAP@GetDiskFreeSpaceW?$AA@ 000000007112f840     kernel32_redir.c.obj
 0002:00041858       ??_C@_0BC@CLHNLNI@GetDiskFreeSpaceA?$AA@ 000000007112f858     kernel32_redir.c.obj
 0002:00041870       ??_C@_0BB@MOGECGEP@FlushFileBuffers?$AA@ 000000007112f870     kernel32_redir.c.obj
 0002:00041888       ??_C@_0O@EJBHELCO@FindNextFileW?$AA@ 000000007112f888     kernel32_redir.c.obj
 0002:00041898       ??_C@_0O@FFIPPOPJ@FindNextFileA?$AA@ 000000007112f898     kernel32_redir.c.obj
 0002:000418a8       ??_C@_0P@ENHAKBMH@FindFirstFileW?$AA@ 000000007112f8a8     kernel32_redir.c.obj
 0002:000418b8       ??_C@_0P@FBOIBEBA@FindFirstFileA?$AA@ 000000007112f8b8     kernel32_redir.c.obj
 0002:000418c8       ??_C@_09DNPPEBNO@FindClose?$AA@ 000000007112f8c8     kernel32_redir.c.obj
 0002:000418d8       ??_C@_0M@LENFMBIC@SetFileTime?$AA@ 000000007112f8d8     kernel32_redir.c.obj
 0002:000418e8       ??_C@_0M@LLMLBHAB@GetFileTime?$AA@ 000000007112f8e8     kernel32_redir.c.obj
 0002:000418f8       ??_C@_0BI@ENMDHCMK@GetSystemTimeAsFileTime?$AA@ 000000007112f8f8     kernel32_redir.c.obj
 0002:00041910       ??_C@_0BF@HBHGIPOG@SystemTimeToFileTime?$AA@ 000000007112f910     kernel32_redir.c.obj
 0002:00041928       ??_C@_0BF@KPJNHALE@FileTimeToSystemTime?$AA@ 000000007112f928     kernel32_redir.c.obj
 0002:00041940       ??_C@_0BI@DDKHAPML@LocalFileTimeToFileTime?$AA@ 000000007112f940     kernel32_redir.c.obj
 0002:00041958       ??_C@_0BI@EKFDIGHI@FileTimeToLocalFileTime?$AA@ 000000007112f958     kernel32_redir.c.obj
 0002:00041970       ??_C@_0BA@KKBHKMMH@DuplicateHandle?$AA@ 000000007112f970     kernel32_redir.c.obj
 0002:00041980       ??_C@_0M@JHJNLFGC@CloseHandle?$AA@ 000000007112f980     kernel32_redir.c.obj
 0002:00041990       ??_C@_0BA@DDPGCKOB@DeviceIoControl?$AA@ 000000007112f990     kernel32_redir.c.obj
 0002:000419a0       ??_C@_0L@FBIDOKLH@CreatePipe?$AA@ 000000007112f9a0     kernel32_redir.c.obj
 0002:000419b0       ??_C@_0BA@IHGACFIJ@FlushViewOfFile?$AA@ 000000007112f9b0     kernel32_redir.c.obj
 0002:000419c0       ??_C@_0BA@GLKNLELN@UnmapViewOfFile?$AA@ 000000007112f9c0     kernel32_redir.c.obj
 0002:000419d0       ??_C@_0BA@NCFKGNHK@MapViewOfFileEx?$AA@ 000000007112f9d0     kernel32_redir.c.obj
 0002:000419e0       ??_C@_0O@IGIELGBD@MapViewOfFile?$AA@ 000000007112f9e0     kernel32_redir.c.obj
 0002:000419f0       ??_C@_0BD@HFNFJDEE@CreateFileMappingW?$AA@ 000000007112f9f0     kernel32_redir.c.obj
 0002:00041a08       ??_C@_0BD@GJENCGJD@CreateFileMappingA?$AA@ 000000007112fa08     kernel32_redir.c.obj
 0002:00041a20       ??_C@_08KLCHJOKF@ReadFile?$AA@ 000000007112fa20     kernel32_redir.c.obj
 0002:00041a30       ??_C@_0M@DNECCFPG@DeleteFileW?$AA@ 000000007112fa30     kernel32_redir.c.obj
 0002:00041a40       ??_C@_0M@CBNKJACB@DeleteFileA?$AA@ 000000007112fa40     kernel32_redir.c.obj
 0002:00041a50       ??_C@_0M@GPOOGHPH@CreateFileW?$AA@ 000000007112fa50     kernel32_redir.c.obj
 0002:00041a60       ??_C@_0M@HDHGNCCA@CreateFileA?$AA@ 000000007112fa60     kernel32_redir.c.obj
 0002:00041a70       ??_C@_0BF@FBLMJNPE@SetCurrentDirectoryW?$AA@ 000000007112fa70     kernel32_redir.c.obj
 0002:00041a88       ??_C@_0BF@ENCECICD@SetCurrentDirectoryA?$AA@ 000000007112fa88     kernel32_redir.c.obj
 0002:00041aa0       ??_C@_0BF@IKBILKD@GetCurrentDirectoryW?$AA@ 000000007112faa0     kernel32_redir.c.obj
 0002:00041ab8       ??_C@_0BF@BEDJDOHE@GetCurrentDirectoryA?$AA@ 000000007112fab8     kernel32_redir.c.obj
 0002:00041ad0       ??_C@_0BB@HGOEIPNP@RemoveDirectoryW?$AA@ 000000007112fad0     kernel32_redir.c.obj
 0002:00041ae8       ??_C@_0BB@GKHMDKAI@RemoveDirectoryA?$AA@ 000000007112fae8     kernel32_redir.c.obj
 0002:00041b00       ??_C@_0BB@JJIDDHEG@CreateDirectoryW?$AA@ 000000007112fb00     kernel32_redir.c.obj
 0002:00041b18       ??_C@_0BB@IFBLICJB@CreateDirectoryA?$AA@ 000000007112fb18     kernel32_redir.c.obj
 0002:00041b30       ??_C@_0P@CLFAFOOL@VirtualQueryEx?$AA@ 000000007112fb30     kernel32_redir.c.obj
 0002:00041b40       ??_C@_0N@MAAAEOL@VirtualQuery?$AA@ 000000007112fb40     kernel32_redir.c.obj
 0002:00041b50       ??_C@_0P@IGDMCLEE@VirtualProtect?$AA@ 000000007112fb50     kernel32_redir.c.obj
 0002:00041b60       ??_C@_0M@NFFCONOO@VirtualFree?$AA@ 000000007112fb60     kernel32_redir.c.obj
 0002:00041b70       ??_C@_0N@LLPNHGPB@VirtualAlloc?$AA@ 000000007112fb70     kernel32_redir.c.obj
 0002:00041b80       ??_C@_0BC@LFNIPHGA@ReadProcessMemory?$AA@ 000000007112fb80     kernel32_redir.c.obj
 0002:00041b98       ??_C@_0L@BCKMLFNI@LocalFlags?$AA@ 000000007112fb98     kernel32_redir.c.obj
 0002:00041ba8       ??_C@_09GPMLGOAM@LocalSize?$AA@ 000000007112fba8     kernel32_redir.c.obj
 0002:00041bb8       ??_C@_0M@DEOPCMEJ@LocalUnlock?$AA@ 000000007112fbb8     kernel32_redir.c.obj
 0002:00041bc8       ??_C@_0M@PLKONNEA@LocalHandle?$AA@ 000000007112fbc8     kernel32_redir.c.obj
 0002:00041bd8       ??_C@_09CFGEIEPC@LocalLock?$AA@ 000000007112fbd8     kernel32_redir.c.obj
 0002:00041be8       ??_C@_0N@OKNOKHCN@LocalReAlloc?$AA@ 000000007112fbe8     kernel32_redir.c.obj
 0002:00041bf8       ??_C@_09FHKJECCN@LocalFree?$AA@ 000000007112fbf8     kernel32_redir.c.obj
 0002:00041c08       ??_C@_0L@LJBCBOFE@LocalAlloc?$AA@ 000000007112fc08     kernel32_redir.c.obj
 0002:00041c18       ??_C@_0N@MMKCCACD@IsBadReadPtr?$AA@ 000000007112fc18     kernel32_redir.c.obj
 0002:00041c28       ??_C@_08MDJKNJE@HeapWalk?$AA@ 000000007112fc28     kernel32_redir.c.obj
 0002:00041c38       ??_C@_0N@BKFJNCJM@HeapValidate?$AA@ 000000007112fc38     kernel32_redir.c.obj
 0002:00041c48       ??_C@_08LKCFNBPH@HeapSize?$AA@ 000000007112fc48     kernel32_redir.c.obj
 0002:00041c58       ??_C@_0BE@GJFMEPLP@HeapSetInformation?5?$AA@ 000000007112fc58     kernel32_redir.c.obj
 0002:00041c70       ??_C@_0M@HHKAEGMB@HeapReAlloc?$AA@ 000000007112fc70     kernel32_redir.c.obj
 0002:00041c80       ??_C@_08ICEHPNNG@HeapFree?$AA@ 000000007112fc80     kernel32_redir.c.obj
 0002:00041c90       ??_C@_0M@NELNNOPP@HeapDestroy?$AA@ 000000007112fc90     kernel32_redir.c.obj
 0002:00041ca0       ??_C@_0L@ICEGIJOB@HeapCreate?$AA@ 000000007112fca0     kernel32_redir.c.obj
 0002:00041cb0       ??_C@_0M@EIEMDCNL@HeapCompact?$AA@ 000000007112fcb0     kernel32_redir.c.obj
 0002:00041cc0       ??_C@_09JDKINLHP@HeapAlloc?$AA@ 000000007112fcc0     kernel32_redir.c.obj
 0002:00041cd0       ??_C@_0P@BOLOPLNF@GetProcessHeap?$AA@ 000000007112fcd0     kernel32_redir.c.obj
 0002:00041ce0       ??_C@_0O@NLDKAIKN@EncodePointer?$AA@ 000000007112fce0     kernel32_redir.c.obj
 0002:00041cf0       ??_C@_0O@KBPMFGHI@DecodePointer?$AA@ 000000007112fcf0     kernel32_redir.c.obj
 0002:00041d00       ??_C@_0BD@OHLLLJLK@GetModuleFileNameW?$AA@ 000000007112fd00     kernel32_redir.c.obj
 0002:00041d18       ??_C@_0BD@PLCDAMGN@GetModuleFileNameA?$AA@ 000000007112fd18     kernel32_redir.c.obj
 0002:00041d30       ??_C@_0M@FACAOGOA@FreeLibrary?$AA@ 000000007112fd30     kernel32_redir.c.obj
 0002:00041d40       ??_C@_0P@HECBOJPO@LoadLibraryExW?$AA@ 000000007112fd40     kernel32_redir.c.obj
 0002:00041d50       ??_C@_0P@GILJFMCJ@LoadLibraryExA?$AA@ 000000007112fd50     kernel32_redir.c.obj
 0002:00041d60       ??_C@_0M@JCPCPOEF@FlsSetValue?$AA@ 000000007112fd60     kernel32_redir.c.obj
 0002:00041d70       ??_C@_0M@GDNOONDI@FlsGetValue?$AA@ 000000007112fd70     kernel32_redir.c.obj
 0002:00041d80       ??_C@_07PEJMOBNF@FlsFree?$AA@ 000000007112fd80     kernel32_redir.c.obj
 0002:00041d88       ??_C@_08KNHFBNJ@FlsAlloc?$AA@ 000000007112fd88     kernel32_redir.c.obj
 0002:00041d98       ??_C@_0M@LPAKIOHO@ExitProcess?$AA@ 000000007112fd98     kernel32_redir.c.obj
 0002:00041da8       ??_C@_0BD@PJMLNIOO@GetCurrentThreadId?$AA@ 000000007112fda8     kernel32_redir.c.obj
 0002:00041dc0       ??_C@_0BB@POGOAJG@GetCurrentThread?$AA@ 000000007112fdc0     kernel32_redir.c.obj
 0002:00041dd8       ??_C@_0BE@BEODBHKD@GetCurrentProcessId?$AA@ 000000007112fdd8     kernel32_redir.c.obj
 0002:00041df0       ??_C@_0BC@PMJGPBJJ@GetCurrentProcess?$AA@ 000000007112fdf0     kernel32_redir.c.obj
 0002:000424a0       ??_C@_15GANGMFKL@?$AA?$CF?$AAs?$AA?$AA@ 00000000711304a0     kernel32_lib.c.obj
 0002:000424a8       ??_C@_1DM@GPEAFMED@?$AA?2?$AAS?$AAe?$AAs?$AAs?$AAi?$AAo?$AAn?$AAs?$AA?2?$AA?$CF?$AAd?$AA?2?$AAB?$AAa?$AAs?$AAe?$AAN?$AAa?$AAm?$AAe?$AAd?$AAO?$AAb?$AAj?$AAe?$AAc?$AAt?$AAs?$AA?$AA@ 00000000711304a8     kernel32_file.c.obj
 0002:000424e8       ??_C@_1CE@NPBNEBGN@?$AA?2?$AAB?$AAa?$AAs?$AAe?$AAN?$AAa?$AAm?$AAe?$AAd?$AAO?$AAb?$AAj?$AAe?$AAc?$AAt?$AAs?$AA?$AA@ 00000000711304e8     kernel32_file.c.obj
 0002:00042510       ??_C@_1CG@NDPCIMIK@?$AA?2?$AAD?$AAe?$AAv?$AAi?$AAc?$AAe?$AA?2?$AAN?$AAa?$AAm?$AAe?$AAd?$AAP?$AAi?$AAp?$AAe?$AA?2?$AA?$AA@ 0000000071130510     kernel32_file.c.obj
 0002:00042538       ??_C@_0N@MJAONNND@OpenConsoleW?$AA@ 0000000071130538     kernel32_file.c.obj
 0002:00042548       ??_C@_19IGEAAGFL@?$AA?$CF?$AA?4?$AA?$CK?$AAs?$AA?$AA@ 0000000071130548     kernel32_file.c.obj
 0002:00042558       ??_C@_1BA@BALFACEM@?$AAC?$AAO?$AAN?$AAO?$AAU?$AAT?$AA$?$AA?$AA@ 0000000071130558     kernel32_file.c.obj
 0002:00042568       ??_C@_1O@PNMIMBDD@?$AAC?$AAO?$AAN?$AAI?$AAN?$AA$?$AA?$AA@ 0000000071130568     kernel32_file.c.obj
 0002:00042578       ??_C@_1CK@OGHLNDOH@?$AAW?$AAi?$AAn?$AA3?$AA2?$AAP?$AAi?$AAp?$AAe?$AAs?$AA?4?$AA?$CF?$AA0?$AA8?$AAx?$AA?4?$AA?$CF?$AA0?$AA8?$AAx?$AA?$AA@ 0000000071130578     kernel32_file.c.obj
 0002:000425a4       ??_C@_04NEFNLNDK@?$CF?4?$CKS?$AA@ 00000000711305a4     kernel32_file.c.obj
 0002:000425b0       ??_C@_0L@IDKDBMAM@UuidCreate?$AA@ 00000000711305b0     rpcrt4_redir.c.obj
 0002:000425d0       ??_C@_0BB@GLNAEDBD@RegQueryValueExW?$AA@ 00000000711305d0     advapi32_redir.c.obj
 0002:000425e8       ??_C@_0BB@HHEIPGME@RegQueryValueExA?$AA@ 00000000711305e8     advapi32_redir.c.obj
 0002:00042600       ??_C@_0O@COHOBMLB@RegOpenKeyExW?$AA@ 0000000071130600     advapi32_redir.c.obj
 0002:00042610       ??_C@_0O@DCOGKJGG@RegOpenKeyExA?$AA@ 0000000071130610     advapi32_redir.c.obj
 0002:00042620       ??_C@_0M@HLOHPNFA@RegCloseKey?$AA@ 0000000071130620     advapi32_redir.c.obj
 0002:00042680       ??_C@_1BO@MLIOGHOC@?$AA?2?$AAR?$AAe?$AAg?$AAi?$AAs?$AAt?$AAr?$AAy?$AA?2?$AAU?$AAs?$AAe?$AAr?$AA?$AA@ 0000000071130680     advapi32_redir.c.obj
 0002:000426a0       ??_C@_1EG@JIHFKCMP@?$AA?2?$AAR?$AAe?$AAg?$AAi?$AAs?$AAt?$AAr?$AAy?$AA?2?$AAM?$AAa?$AAc?$AAh?$AAi?$AAn?$AAe?$AA?2?$AAS?$AAo?$AAf?$AAt?$AAw?$AAa?$AAr?$AAe?$AA?2?$AAC?$AAL?$AAA?$AAS?$AAS@ 00000000711306a0     advapi32_redir.c.obj
 0002:000426f0       ??_C@_1IK@OHFPEIIL@?$AA?2?$AAR?$AAe?$AAg?$AAi?$AAs?$AAt?$AAr?$AAy?$AA?2?$AAM?$AAa?$AAc?$AAh?$AAi?$AAn?$AAe?$AA?2?$AAS?$AAy?$AAs?$AAt?$AAe?$AAm?$AA?2?$AAC?$AAu?$AAr?$AAr?$AAe?$AAn?$AAt@ 00000000711306f0     advapi32_redir.c.obj
 0002:00042780       ??_C@_1CE@NMBJJGCH@?$AA?2?$AAR?$AAe?$AAg?$AAi?$AAs?$AAt?$AAr?$AAy?$AA?2?$AAM?$AAa?$AAc?$AAh?$AAi?$AAn?$AAe?$AA?$AA@ 0000000071130780     advapi32_redir.c.obj
 0002:000427a8       ??_C@_1CE@MMIANEAD@?$AA?2?$AAR?$AAe?$AAg?$AAi?$AAs?$AAt?$AAr?$AAy?$AA?2?$AAU?$AAs?$AAe?$AAr?$AA?2?$AA?$CF?$AAs?$AA?$AA@ 00000000711307a8     advapi32_redir.c.obj
 0002:0004e014       __IMPORT_DESCRIPTOR_ntdll  000000007113c014     ntdll_imports:ntdll.dll
 0002:0004e028       __NULL_IMPORT_DESCRIPTOR   000000007113c028     ntdll_imports:ntdll.dll
 0003:00000000       dynamo_options             0000000071143000     options.c.obj
 0003:00009140       temp_options               000000007114c140     options.c.obj
 0003:00012280       dr_early_injected_location 0000000071155280     dynamo.c.obj
 0003:00012284       datasec_writable_rareprot  0000000071155284     dynamo.c.obj
 0003:000122a0       exception_label_core       00000000711552a0     utils.c.obj
 0003:000122b0       exception_label_client     00000000711552b0     utils.c.obj
 0003:00012320       unique_build_number        0000000071155320     instrument.c.obj
 0003:00012330       cache_line_size            0000000071155330     proc_shared.c.obj
 0003:00012340       cpu_info                   0000000071155340     proc_shared.c.obj
 0003:00012480       wow64_syscall_stack        0000000071155480     os.c.obj
 0003:00012490       profile_file               0000000071155490     os.c.obj
 0003:00012500       syscall_names              0000000071155500     syscall.c.obj
 0003:000126f0       windows_10_1607_x64_syscalls 00000000711556f0     syscall.c.obj
 0003:000127f0       windows_10_1607_wow64_syscalls 00000000711557f0     syscall.c.obj
 0003:000128f0       windows_10_1607_x86_syscalls 00000000711558f0     syscall.c.obj
 0003:000129f0       windows_10_1511_x64_syscalls 00000000711559f0     syscall.c.obj
 0003:00012af0       windows_10_1511_wow64_syscalls 0000000071155af0     syscall.c.obj
 0003:00012bf0       windows_10_1511_x86_syscalls 0000000071155bf0     syscall.c.obj
 0003:00012cf0       windows_10_x64_syscalls    0000000071155cf0     syscall.c.obj
 0003:00012df0       windows_10_wow64_syscalls  0000000071155df0     syscall.c.obj
 0003:00012ef0       windows_10_x86_syscalls    0000000071155ef0     syscall.c.obj
 0003:00012ff0       windows_81_x64_syscalls    0000000071155ff0     syscall.c.obj
 0003:000130f0       windows_81_wow64_syscalls  00000000711560f0     syscall.c.obj
 0003:000131f0       windows_81_x86_syscalls    00000000711561f0     syscall.c.obj
 0003:000132f0       windows_8_x64_syscalls     00000000711562f0     syscall.c.obj
 0003:000133f0       windows_8_wow64_syscalls   00000000711563f0     syscall.c.obj
 0003:000134f0       windows_8_x86_syscalls     00000000711564f0     syscall.c.obj
 0003:000135f0       windows_7_x64_syscalls     00000000711565f0     syscall.c.obj
 0003:000136f0       windows_7_syscalls         00000000711566f0     syscall.c.obj
 0003:000137f0       windows_vista_sp1_x64_syscalls 00000000711567f0     syscall.c.obj
 0003:000138f0       windows_vista_sp1_syscalls 00000000711568f0     syscall.c.obj
 0003:000139f0       windows_vista_sp0_x64_syscalls 00000000711569f0     syscall.c.obj
 0003:00013af0       windows_vista_sp0_syscalls 0000000071156af0     syscall.c.obj
 0003:00013bf0       windows_2003_syscalls      0000000071156bf0     syscall.c.obj
 0003:00013cf0       windows_XP_x64_syscalls    0000000071156cf0     syscall.c.obj
 0003:00013df0       windows_XP_wow64_index     0000000071156df0     syscall.c.obj
 0003:00013ef0       windows_XP_syscalls        0000000071156ef0     syscall.c.obj
 0003:00013ff0       windows_2000_syscalls      0000000071156ff0     syscall.c.obj
 0003:000140f0       windows_NT_sp4_syscalls    00000000711570f0     syscall.c.obj
 0003:000141f0       windows_NT_sp3_syscalls    00000000711571f0     syscall.c.obj
 0003:000142f0       windows_NT_sp0_syscalls    00000000711572f0     syscall.c.obj
 0003:000143f0       syscall_argsz              00000000711573f0     syscall.c.obj
 0003:000145f0       intercept_occlusion_mask   00000000711575f0     callback.c.obj
 0003:000145f8       sysenter_tls_offset        00000000711575f8     ntdll.c.obj
 0003:00014678       shared_object_directory    0000000071157678     aslr.c.obj
 0003:00014680       relocated_dlls_filecache_initial 0000000071157680     aslr.c.obj
 0003:00014688       known_dlls_object_directory 0000000071157688     aslr.c.obj
 0003:00015000       option_string              0000000071158000     options.c.obj
 0003:00015850       dynamo_initialized         0000000071158850     dynamo.c.obj
 0003:00015851       dynamo_heap_initialized    0000000071158851     dynamo.c.obj
 0003:00015852       automatic_startup          0000000071158852     dynamo.c.obj
 0003:00015853       control_all_threads        0000000071158853     dynamo.c.obj
 0003:00015854       dr_early_injected          0000000071158854     dynamo.c.obj
 0003:00015855       dr_earliest_injected       0000000071158855     dynamo.c.obj
 0003:00015856       dr_injected_primary_thread 0000000071158856     dynamo.c.obj
 0003:00015857       dr_injected_secondary_thread 0000000071158857     dynamo.c.obj
 0003:00015858       dr_late_injected_primary_thread 0000000071158858     dynamo.c.obj
 0003:00015859       dr_api_entry               0000000071158859     dynamo.c.obj
 0003:0001585a       dr_api_exit                000000007115885a     dynamo.c.obj
 0003:0001585b       dynamo_exited              000000007115885b     dynamo.c.obj
 0003:0001585c       dynamo_exited_and_cleaned  000000007115885c     dynamo.c.obj
 0003:0001585d       dynamo_resetting           000000007115885d     dynamo.c.obj
 0003:0001585e       standalone_library         000000007115885e     dynamo.c.obj
 0003:00015860       stats                      0000000071158860     dynamo.c.obj
 0003:0001c778       vm_areas_exited            000000007115f778     vmareas.c.obj
 0003:0002e938       shared_code                0000000071171938     arch.c.obj
 0003:0002e940       shared_code_x86            0000000071171940     arch.c.obj
 0003:0002e948       shared_code_x86_to_x64     0000000071171948     arch.c.obj
 0003:0002e958       app_sysenter_instr_addr    0000000071171958     arch.c.obj
 0003:0002f8ec       intercept_asynch           00000000711728ec     os.c.obj
 0003:0002f8ed       intercept_callbacks        00000000711728ed     os.c.obj
 0003:0002f8ee       doing_detach               00000000711728ee     os.c.obj
 0003:0002f8f0       win32_pid                  00000000711728f0     os.c.obj
 0003:0002f8f8       vsyscall_page_start        00000000711728f8     os.c.obj
 0003:0002f900       vsyscall_after_syscall     0000000071172900     os.c.obj
 0003:0002f908       vsyscall_syscall_end_pc    0000000071172908     os.c.obj
 0003:0002f910       dynamo_dll_start           0000000071172910     os.c.obj
 0003:0002f918       dynamo_dll_end             0000000071172918     os.c.obj
 0003:0002f930       parent_early_inject_address 0000000071172930     os.c.obj
 0003:0002f958       early_inject_load_helper_dcontext 0000000071172958     os.c.obj
 0003:00030180       syscalls                   0000000071173180     syscall.c.obj
 0003:00030188       wow64_index                0000000071173188     syscall.c.obj
 0003:00030190       int_syscall_address        0000000071173190     syscall.c.obj
 0003:00030198       sysenter_ret_address       0000000071173198     syscall.c.obj
 0003:000301a0       KiFastSystemCallRet_address 00000000711731a0     syscall.c.obj
 0003:00039080       init_apc_go_native         000000007117c080     callback.c.obj
 0003:00039081       init_apc_go_native_pause   000000007117c081     callback.c.obj
 0003:00039484       context_xstate             000000007117c484     ntdll.c.obj
 0003:00039488       ntdll_RtlGetExtendedContextLength 000000007117c488     ntdll.c.obj
 0003:00039490       ntdll_RtlInitializeExtendedContext 000000007117c490     ntdll.c.obj
 0003:00039498       ntdll_RtlLocateLegacyContext 000000007117c498     ntdll.c.obj
 0003:00039f08       aslr_wouldbe_areas         000000007117cf08     <common>
 0003:00039f10       aslr_heap_pad_areas        000000007117cf10     <common>
 0003:00039f20       known_dll_path             000000007117cf20     <common>
 0003:0003a128       NtGetNextThread            000000007117d128     <common>
 0003:0003a130       thread_attach_takeover     000000007117d130     <common>
 0003:0003a140       windows_unknown_syscalls   000000007117d140     <common>
 0003:0003a238       peb_ptr                    000000007117d238     <common>
 0003:0003a240       wow64_syscall_call_tgt     000000007117d240     <common>
 0003:0003a260       selfmod_copy_start_offs    000000007117d260     <common>
 0003:0003a2a0       selfmod_copy_end_offs      000000007117d2a0     <common>
 0003:0003a2e0       default_clean_call_info    000000007117d2e0     <common>
 0003:0003a340       default_callee_info        000000007117d340     <common>
 0003:0003a3c0       bb_lock_start              000000007117d3c0     <common>
 0003:0003a3c1       client_requested_exit      000000007117d3c1     <common>
 0003:0003a3c8       native_exec_areas          000000007117d3c8     <common>
 0003:0003a3d0       search_paths_idx           000000007117d3d0     <common>
 0003:0003a3e0       search_paths               000000007117d3e0     <common>
 0003:0003bc40       privmod_static_idx         000000007117ec40     <common>
 0003:0003bc48       modlist_areas              000000007117ec48     <common>
 0003:0003bc50       loaded_module_areas        000000007117ec50     <common>
 0003:0003bc58       patch_proof_areas          000000007117ec58     <common>
 0003:0003bc60       IAT_areas                  000000007117ec60     <common>
 0003:0003bc68       emulate_write_areas        000000007117ec68     <common>
 0003:0003bc70       landing_pad_areas          000000007117ec70     <common>
 0003:0003bc78       kstat_ignore_context_switch 000000007117ec78     <common>
 0003:0003bc80       global_try_except          000000007117ec80     <common>
 0003:0003bc90       stub32_heap                000000007117ec90     <common>
 0003:0003bc98       stub_heap                  000000007117ec98     <common>
 0003:0003bca0       fcache_unit_areas          000000007117eca0     <common>
 0003:0003bca8       hashlookup_null_target     000000007117eca8     <common>
 0003:0003bcb0       all_threads                000000007117ecb0     <common>
 0003:0003bcb8       initstack                  000000007117ecb8     <common>
 0005:00000000       new_option_string          000000007118b000     options.c.obj
 0005:00000804       datasec_writable_freqprot  000000007118b804     dynamo.c.obj
 0005:00000810       flushtime_global           000000007118b810     fragment.c.obj
 0005:000008b8       reset_in_progress          000000007118b8b8     fcache.c.obj
 0005:000008c0       reset_at_nth_unit          000000007118b8c0     fcache.c.obj
 0005:000008c8       reset_every_nth_unit       000000007118b8c8     fcache.c.obj
 0005:000008d0       reset_pending              000000007118b8d0     fcache.c.obj
 0006:00000000       options_lock               000000007118c000     options.c.obj
 0006:00000038       datasec_writable_cxtswprot 000000007118c038     dynamo.c.obj
 0006:00000040       thread_initexit_lock       000000007118c040     dynamo.c.obj
 0006:00000050       all_threads_lock           000000007118c050     dynamo.c.obj
 0006:00000080       client_flush_requests      000000007118c080     fragment.c.obj
 0006:00000098       shared_cache_flush_lock    000000007118c098     fragment.c.obj
 0006:000000b8       client_flush_request_lock  000000007118c0b8     fragment.c.obj
 0006:000000e8       reset_pending_lock         000000007118c0e8     fcache.c.obj
 0006:000000f8       change_linking_lock        000000007118c0f8     link.c.obj
 0006:00000160       process_kstats_lock        000000007118c160     stats.c.obj
 0006:000001d8       trace_building_lock        000000007118c1d8     monitor.c.obj
 0006:000001e8       dynamo_areas_recursion     000000007118c1e8     vmareas.c.obj
 0006:00000200       shared_delete_lock         000000007118c200     vmareas.c.obj
 0006:00000220       module_data_lock           000000007118c220     module_list.c.obj
 0006:00000258       moduledb_lock              000000007118c258     moduledb.c.obj
 0006:00000290       all_threads_synch_lock     000000007118c290     synch.c.obj
 0006:000002a0       privload_lock              000000007118c2a0     loader_shared.c.obj
 0006:00000320       bb_building_lock           000000007118c320     interp.c.obj
 0006:00000338       profile_dump_lock          000000007118c338     os.c.obj
 0007:00000040       dynamo_all_threads_synched 000000007118d040     dynamo.c.obj
 0007:00000044       exiting_thread_count       000000007118d044     dynamo.c.obj
 0007:00000048       initstack_app_xsp          000000007118d048     dynamo.c.obj
 0007:00000948       initstack_mutex            000000007118d948     dynamo.c.obj
 0007:00001170       process_kstats_outfile     000000007118e170     stats.c.obj
 0007:00001180       process_kstats             000000007118e180     stats.c.obj

 entry point at        0001:000c01e0

 Static symbols

 0001:00000000       getword_common             0000000071001000 f   options.c.obj
 0001:000001a0       parse_uint                 00000000710011a0 f   options.c.obj
 0001:00000260       parse_uint_size            0000000071001260 f   options.c.obj
 0001:000003c0       parse_uint_time            00000000710013c0 f   options.c.obj
 0001:000004c0       parse_uint_addr            00000000710014c0 f   options.c.obj
 0001:00000570       parse_pathstring_t         0000000071001570 f   options.c.obj
 0001:00000640       parse_liststring_t         0000000071001640 f   options.c.obj
 0001:00000790       set_dynamo_options_common  0000000071001790 f   options.c.obj
 0001:000239f0       update_dynamic_options     00000000710249f0 f   options.c.obj
 0001:00028540       check_option_compatibility_helper 0000000071029540 f   options.c.obj
 0001:000293b0       statistics_init            000000007102a3b0 f   dynamo.c.obj
 0001:00029cc0       get_list_of_threads_common 000000007102acc0 f   dynamo.c.obj
 0001:0002a190       data_section_init          000000007102b190 f   dynamo.c.obj
 0001:0002add0       dynamorio_protect          000000007102bdd0 f   dynamo.c.obj
 0001:0002af70       dynamorio_unprotect        000000007102bf70 f   dynamo.c.obj
 0001:0002b520       dynamo_thread_exit_common  000000007102c520 f   dynamo.c.obj
 0001:0002be70       hashtable_coarse_free      000000007102ce70 f   fragment.c.obj
 0001:0002be70       hashtable_ibl_free         000000007102ce70 f   fragment.c.obj
 0001:0002bf10       hashtable_ibl_lookup       000000007102cf10 f   fragment.c.obj
 0001:0002bff0       hashtable_ibl_remove_helper_open_address 000000007102cff0 f   fragment.c.obj
 0001:0002c140       hashtable_ibl_remove       000000007102d140 f   fragment.c.obj
 0001:0002c240       hashtable_ibl_unlinked_remove 000000007102d240 f   fragment.c.obj
 0001:0002c2d0       hashtable_fragment_lookup  000000007102d2d0 f   fragment.c.obj
 0001:0002c370       hashtable_fragment_lookup_for_removal 000000007102d370 f   fragment.c.obj
 0001:0002c460       hashtable_fragment_remove_helper_open_address 000000007102d460 f   fragment.c.obj
 0001:0002c580       hashtable_fragment_unlinked_remove 000000007102d580 f   fragment.c.obj
 0001:0002c620       hashtable_ibl_init_internal_custom 000000007102d620 f   fragment.c.obj
 0001:0002c6d0       update_indirect_exit_stubs_from_table 000000007102d6d0 f   fragment.c.obj
 0001:0002c830       add_to_dead_table_list     000000007102d830 f   fragment.c.obj
 0001:0002c8f0       dec_table_ref_count        000000007102d8f0 f   fragment.c.obj
 0001:0002ca80       dec_all_table_ref_counts   000000007102da80 f   fragment.c.obj
 0001:0002cca0       fragment_create_heap       000000007102dca0 f   fragment.c.obj
 0001:0002cd20       fragment_init_heap         000000007102dd20 f   fragment.c.obj
 0001:0002d600       fragment_lookup_type       000000007102e600 f   fragment.c.obj
 0001:0002d8b0       update_private_ptr_to_shared_ibt_table 000000007102e8b0 f   fragment.c.obj
 0001:0002e4a0       fragment_delete_future_filter 000000007102f4a0 f   fragment.c.obj
 0001:0002e7b0       check_flush_queue          000000007102f7b0 f   fragment.c.obj
 0001:0002eb30       flush_fragments_synchall_end 000000007102fb30 f   fragment.c.obj
 0001:0002f280       init_trace_file            0000000071030280 f   fragment.c.obj
 0001:0002f2c0       output_trace_binary        00000000710302c0 f   fragment.c.obj
 0001:0002f9c0       output_trace               00000000710309c0 f   fragment.c.obj
 0001:0002fd40       hashtable_ibl_free_table   0000000071030d40 f   fragment.c.obj
 0001:0002fd40       hashtable_coarse_free_table 0000000071030d40 f   fragment.c.obj
 0001:0002fdb0       hashtable_coarse_lookup    0000000071030db0 f   fragment.c.obj
 0001:0002fe90       hashtable_coarse_remove_helper_open_address 0000000071030e90 f   fragment.c.obj
 0001:0002ffd0       hashtable_coarse_replace   0000000071030fd0 f   fragment.c.obj
 0001:000300e0       hashtable_coarse_num_unique_entries 00000000710310e0 f   fragment.c.obj
 0001:00030270       fragment_coarse_th_lookup  0000000071031270 f   fragment.c.obj
 0001:000302e0       coarse_body_from_htable_entry 00000000710312e0 f   fragment.c.obj
 0001:000309e0       pclookup_last_free         00000000710319e0 f   fragment.c.obj
 0001:00030fe0       hashtable_ibl_init_internal 0000000071031fe0 f   fragment.c.obj
 0001:00031160       hashtable_ibl_groom_table  0000000071032160 f   fragment.c.obj
 0001:00031210       hashtable_fragment_init_internal 0000000071032210 f   fragment.c.obj
 0001:00031360       hashtable_fragment_init    0000000071032360 f   fragment.c.obj
 0001:000313e0       hashtable_ibl_myinit       00000000710323e0 f   fragment.c.obj
 0001:000314a0       hashtable_ibl_resized_custom 00000000710324a0 f   fragment.c.obj
 0001:000321d0       update_private_ibt_table_ptrs 00000000710331d0 f   fragment.c.obj
 0001:00032260       update_all_private_ibt_table_ptrs 0000000071033260 f   fragment.c.obj
 0001:000323a0       fragment_prepare_for_removal_from_table 00000000710333a0 f   fragment.c.obj
 0001:00032670       fragment_remove_ibl_entries_in_region 0000000071033670 f   fragment.c.obj
 0001:00032910       flush_fragments_synchall_start 0000000071033910 f   fragment.c.obj
 0001:00032c70       flush_fragments_thread_unlink 0000000071033c70 f   fragment.c.obj
 0001:00032f20       hashtable_coarse_init_internal 0000000071033f20 f   fragment.c.obj
 0001:00033090       hashtable_coarse_groom_table 0000000071034090 f   fragment.c.obj
 0001:00033300       study_and_free_coarse_htable 0000000071034300 f   fragment.c.obj
 0001:00033530       hashtable_ibl_check_size   0000000071034530 f   fragment.c.obj
 0001:00033800       hashtable_fragment_range_remove 0000000071034800 f   fragment.c.obj
 0001:00033cf0       fragment_delete_futures_in_region 0000000071034cf0 f   fragment.c.obj
 0001:00034010       flush_fragments_free_futures 0000000071035010 f   fragment.c.obj
 0001:000344f0       hashtable_coarse_check_size 00000000710354f0 f   fragment.c.obj
 0001:00034780       hashtable_ibl_add          0000000071035780 f   fragment.c.obj
 0001:000348a0       hashtable_fragment_check_size 00000000710358a0 f   fragment.c.obj
 0001:00034b90       hashtable_fragment_reset   0000000071035b90 f   fragment.c.obj
 0001:00035100       fragment_add_ibl_target_helper 0000000071036100 f   fragment.c.obj
 0001:000353f0       process_client_flush_requests 00000000710363f0 f   fragment.c.obj
 0001:00035700       hashtable_coarse_add       0000000071036700 f   fragment.c.obj
 0001:000357f0       fragment_coarse_htable_merge_helper 00000000710367f0 f   fragment.c.obj
 0001:00036240       fragment_coarse_entry_freeze 0000000071037240 f   fragment.c.obj
 0001:00036610       hashtable_fragment_add     0000000071037610 f   fragment.c.obj
 0001:00037240       fcache_unit_profile_stop   0000000071038240 f   fcache.c.obj
 0001:00037330       fcache_really_free_unit    0000000071038330 f   fcache.c.obj
 0001:00037840       fcache_free_unit           0000000071038840 f   fcache.c.obj
 0001:00037ad0       fcache_cache_free          0000000071038ad0 f   fcache.c.obj
 0001:00037ec0       fcache_shift_fragments     0000000071038ec0 f   fcache.c.obj
 0001:000380d0       fcache_increase_size       00000000710390d0 f   fcache.c.obj
 0001:00038420       fcache_thread_reset_free   0000000071039420 f   fcache.c.obj
 0001:000384c0       fifo_append                00000000710394c0 f   fcache.c.obj
 0001:000385c0       fifo_remove                00000000710395c0 f   fcache.c.obj
 0001:00038740       check_regen_replace_ratio  0000000071039740 f   fcache.c.obj
 0001:00038800       place_fragment             0000000071039800 f   fcache.c.obj
 0001:00038900       add_to_free_list           0000000071039900 f   fcache.c.obj
 0001:00038b10       find_free_list_slot        0000000071039b10 f   fcache.c.obj
 0001:00038e70       append_units_to_free_list  0000000071039e70 f   fcache.c.obj
 0001:00038f30       chain_fragments_for_flush  0000000071039f30 f   fcache.c.obj
 0001:00039910       fcache_reset_free          000000007103a910 f   fcache.c.obj
 0001:00039c70       fcache_create_unit         000000007103ac70 f   fcache.c.obj
 0001:00039f10       fcache_cache_init          000000007103af10 f   fcache.c.obj
 0001:0003a460       fifo_prepend_empty         000000007103b460 f   fcache.c.obj
 0001:0003a680       extend_unit_end            000000007103b680 f   fcache.c.obj
 0001:0003a7b0       try_for_more_space         000000007103b7b0 f   fcache.c.obj
 0001:0003a9f0       replace_fragments          000000007103b9f0 f   fcache.c.obj
 0001:0003b020       replace_fifo               000000007103c020 f   fcache.c.obj
 0001:0003b140       add_fragment_common        000000007103c140 f   fcache.c.obj
 0001:0003be20       get_cache_for_new_fragment 000000007103ce20 f   fcache.c.obj
 0001:0003cc50       is_special_ibl_linkstub    000000007103dc50 f   link.c.obj
 0001:0003d0d0       separate_stub_free         000000007103e0d0 f   link.c.obj
 0001:0003d6d0       link_branch                000000007103e6d0 f   link.c.obj
 0001:0003d880       unlink_branch              000000007103e880 f   link.c.obj
 0001:0003dab0       incoming_find_link         000000007103eab0 f   link.c.obj
 0001:0003dc30       incoming_remove_link_search 000000007103ec30 f   link.c.obj
 0001:0003e2f0       coarse_stubs_iterator_start 000000007103f2f0 f   link.c.obj
 0001:0003e3f0       prepend_new_coarse_incoming 000000007103f3f0 f   link.c.obj
 0001:0003e470       coarse_remove_incoming     000000007103f470 f   link.c.obj
 0001:0003ee80       add_private_check_shared   000000007103fe80 f   link.c.obj
 0001:0003efa0       add_future_incoming        000000007103ffa0 f   link.c.obj
 0001:0003f090       add_incoming               0000000071040090 f   link.c.obj
 0001:0003f330       coarse_link_to_fine        0000000071040330 f   link.c.obj
 0001:0003f400       coarse_link_direct         0000000071040400 f   link.c.obj
 0001:0003f640       link_new_coarse_grain_fragment 0000000071040640 f   link.c.obj
 0001:00041590       exited_due_to_ni_syscall   0000000071042590 f   dispatch.c.obj
 0001:00041620       dispatch_at_stopping_point 0000000071042620 f   dispatch.c.obj
 0001:00041790       dispatch_enter_native      0000000071042790 f   dispatch.c.obj
 0001:00041a20       dispatch_exit_fcache       0000000071042a20 f   dispatch.c.obj
 0001:00041c60       dispatch_exit_fcache_stats 0000000071042c60 f   dispatch.c.obj
 0001:000428f0       handle_post_system_call    00000000710438f0 f   dispatch.c.obj
 0001:000429c0       handle_callback_return     00000000710439c0 f   dispatch.c.obj
 0001:00042c80       dispatch_enter_fcache      0000000071043c80 f   dispatch.c.obj
 0001:00042ea0       dispatch_enter_dynamorio   0000000071043ea0 f   dispatch.c.obj
 0001:00043b70       emit_fragment_common       0000000071044b70 f   emit.c.obj
 0001:00044ce0       bitmap_find_set_block      0000000071045ce0 f   utils.c.obj
 0001:00044d60       bitmap_find_set_block_sequence 0000000071045d60 f   utils.c.obj
 0001:00045120       vprint_to_buffer           0000000071046120 f   utils.c.obj
 0001:000451c0       do_syslog                  00000000710461c0 f   utils.c.obj
 0001:000458d0       check_filter_common        00000000710468d0 f   utils.c.obj
 0001:000464c0       MD5Transform               00000000710474c0 f   utils.c.obj
 0001:00047ea0       MD5Pad                     0000000071048ea0 f   utils.c.obj
 0001:000483c0       set_config_from_env        00000000710493c0 f   config.c.obj
 0001:000484d0       process_config_line        00000000710494d0 f   config.c.obj
 0001:00048710       read_config_file           0000000071049710 f   config.c.obj
 0001:000488b0       config_read                00000000710498b0 f   config.c.obj
 0001:00048d10       get_config_val_other       0000000071049d10 f   config.c.obj
 0001:00049050       kstat_init_variables       000000007104a050 f   stats.c.obj
 0001:00049a10       kstat_print_individual     000000007104aa10 f   stats.c.obj
 0001:00049b30       kstat_calibrate            000000007104ab30 f   stats.c.obj
 0001:0004a0a0       kstat_merge                000000007104b0a0 f   stats.c.obj
 0001:0004b5b0       kstats_evaluate_expressions 000000007104c5b0 f   stats.c.obj
 0001:0004ba90       kstat_report               000000007104ca90 f   stats.c.obj
 0001:0004c470       safe_to_allocate_or_free_heap_units 000000007104d470 f   heap.c.obj
 0001:0004c7b0       vmm_heap_reserve_blocks    000000007104d7b0 f   heap.c.obj
 0001:0004c850       vmm_heap_reserve           000000007104d850 f   heap.c.obj
 0001:0004cb70       vmm_heap_commit            000000007104db70 f   heap.c.obj
 0001:0004cd50       vmm_heap_free              000000007104dd50 f   heap.c.obj
 0001:0004cf50       report_low_on_memory       000000007104df50 f   heap.c.obj
 0001:0004de70       vmm_heap_unit_init         000000007104ee70 f   heap.c.obj
 0001:0004e070       really_free_unit           000000007104f070 f   heap.c.obj
 0001:0004e180       heap_low_on_memory         000000007104f180 f   heap.c.obj
 0001:0004e320       get_real_memory            000000007104f320 f   heap.c.obj
 0001:0004e530       get_guarded_real_memory    000000007104f530 f   heap.c.obj
 0001:0004e9c0       heap_create_unit           000000007104f9c0 f   heap.c.obj
 0001:0004eba0       heap_free_unit             000000007104fba0 f   heap.c.obj
 0001:0004ed60       threadunits_exit           000000007104fd60 f   heap.c.obj
 0001:0004efd0       common_heap_extend_commitment 000000007104ffd0 f   heap.c.obj
 0001:0004f0c0       common_heap_alloc          00000000710500c0 f   heap.c.obj
 0001:0004f3d0       common_heap_free           00000000710503d0 f   heap.c.obj
 0001:0004f620       common_global_heap_alloc   0000000071050620 f   heap.c.obj
 0001:0004f6b0       common_global_heap_free    00000000710506b0 f   heap.c.obj
 0001:0004fad0       special_heap_create_unit   0000000071050ad0 f   heap.c.obj
 0001:0004fc40       special_heap_init_internal 0000000071050c40 f   heap.c.obj
 0001:00050880       release_landing_pad_mem    0000000071051880 f   heap.c.obj
 0001:00050ce0       delete_private_copy        0000000071051ce0 f   monitor.c.obj
 0001:00050d60       create_private_copy        0000000071051d60 f   monitor.c.obj
 0001:00051010       extend_unmangled_ilist     0000000071052010 f   monitor.c.obj
 0001:00051250       thcounter_free             0000000071052250 f   monitor.c.obj
 0001:00051280       thcounter_add              0000000071052280 f   monitor.c.obj
 0001:00051350       reset_trace_state          0000000071052350 f   monitor.c.obj
 0001:000514f0       unlink_ibt_trace_head      00000000710524f0 f   monitor.c.obj
 0001:000517a0       should_be_trace_head_internal 00000000710527a0 f   monitor.c.obj
 0001:000518d0       check_for_trace_head       00000000710528d0 f   monitor.c.obj
 0001:00051a30       make_room_in_trace_buffer  0000000071052a30 f   monitor.c.obj
 0001:00051bd0       trace_exit_stub_size_diff  0000000071052bd0 f   monitor.c.obj
 0001:00051dc0       get_and_check_add_size     0000000071052dc0 f   monitor.c.obj
 0001:00051ea0       internal_restore_last      0000000071052ea0 f   monitor.c.obj
 0001:00052210       end_and_emit_trace         0000000071053210 f   monitor.c.obj
 0001:000526d0       internal_extend_trace      00000000710536d0 f   monitor.c.obj
 0001:00053600       print_vm_areas             0000000071054600 f   vmareas.c.obj
 0001:00053790       lookup_addr                0000000071054790 f   vmareas.c.obj
 0001:00053840       vm_area_overlap            0000000071054840 f   vmareas.c.obj
 0001:00053ff0       free_written_area          0000000071054ff0 f   vmareas.c.obj
 0001:00054b90       is_on_stack                0000000071055b90 f   vmareas.c.obj
 0001:00054d10       prepend_entry_to_fraglist  0000000071055d10 f   vmareas.c.obj
 0001:00054db0       prepend_fraglist           0000000071055db0 f   vmareas.c.obj
 0001:00054f20       handle_delay_readonly      0000000071055f20 f   vmareas.c.obj
 0001:00055000       allow_xfer_for_frag_flags  0000000071056000 f   vmareas.c.obj
 0001:00055460       remove_fraglist_entry      0000000071056460 f   vmareas.c.obj
 0001:00055670       vm_area_clean_fraglist     0000000071056670 f   vmareas.c.obj
 0001:000558f0       add_to_pending_list        00000000710568f0 f   vmareas.c.obj
 0001:00056090       coarse_region_should_persist 0000000071057090 f   vmareas.c.obj
 0001:00056170       vm_area_coarse_region_freeze 0000000071057170 f   vmareas.c.obj
 0001:00056640       add_vm_area                0000000071057640 f   vmareas.c.obj
 0001:00056bc0       remove_vm_area             0000000071057bc0 f   vmareas.c.obj
 0001:00057d10       add_written_area           0000000071058d10 f   vmareas.c.obj
 0001:00057e80       add_executable_vm_area_check_IAT 0000000071058e80 f   vmareas.c.obj
 0001:000580a0       add_executable_vm_area_helper 00000000710590a0 f   vmareas.c.obj
 0001:00058160       vm_area_load_coarse_unit   0000000071059160 f   vmareas.c.obj
 0001:00058320       add_executable_vm_area     0000000071059320 f   vmareas.c.obj
 0001:00058540       remove_executable_vm_area  0000000071059540 f   vmareas.c.obj
 0001:000587e0       get_coarse_info_internal   00000000710597e0 f   vmareas.c.obj
 0001:00058a90       dynamo_vm_areas_start_reading 0000000071059a90 f   vmareas.c.obj
 0001:00059390       flush_and_remove_executable_vm_area 000000007105a390 f   vmareas.c.obj
 0001:0005a3e0       vm_area_flush_coarse_unit  000000007105b3e0 f   vmareas.c.obj
 0001:0005bf80       remove_shared_vmlist       000000007105cf80 f   vmareas.c.obj
 0001:0005c4e0       hashtable_strhash_free     000000007105d4e0 f   hashtable.c.obj
 0001:0005c4e0       hashtable_generic_free     000000007105d4e0 f   hashtable.c.obj
 0001:0005c4e0       hashtable_fragment_free    000000007105d4e0 f   hashtable.c.obj
 0001:0005c580       hashtable_generic_lookup   000000007105d580 f   hashtable.c.obj
 0001:0005c620       hashtable_generic_lookup_for_removal 000000007105d620 f   hashtable.c.obj
 0001:0005c700       hashtable_generic_remove_helper_open_address 000000007105d700 f   hashtable.c.obj
 0001:0005c700       hashtable_strhash_remove_helper_open_address 000000007105d700 f   hashtable.c.obj
 0001:0005c990       hashtable_fragment_free_table 000000007105d990 f   hashtable.c.obj
 0001:0005c990       hashtable_strhash_free_table 000000007105d990 f   hashtable.c.obj
 0001:0005c990       hashtable_generic_free_table 000000007105d990 f   hashtable.c.obj
 0001:0005ca00       hashtable_strhash_lookup   000000007105da00 f   hashtable.c.obj
 0001:0005cb00       hashtable_strhash_lookup_for_removal 000000007105db00 f   hashtable.c.obj
 0001:0005cd90       hashtable_strhash_init_internal 000000007105dd90 f   hashtable.c.obj
 0001:0005cd90       hashtable_generic_init_internal 000000007105dd90 f   hashtable.c.obj
 0001:0005cf80       hashtable_generic_groom_table 000000007105df80 f   hashtable.c.obj
 0001:0005d220       hashtable_strhash_groom_table 000000007105e220 f   hashtable.c.obj
 0001:0005d3d0       hashtable_generic_check_size 000000007105e3d0 f   hashtable.c.obj
 0001:0005d650       hashtable_strhash_check_size 000000007105e650 f   hashtable.c.obj
 0001:0005d8d0       hashtable_generic_add      000000007105e8d0 f   hashtable.c.obj
 0001:0005da00       hashtable_strhash_add      000000007105ea00 f   hashtable.c.obj
 0001:0005dbb0       module_area_create         000000007105ebb0 f   module_list.c.obj
 0001:0005e130       module_calculate_digest_helper 000000007105f130 f   module_list.c.obj
 0001:0005e4a0       os_module_set_flag_value   000000007105f4a0 f   module_list.c.obj
 0001:0005e600       os_get_module_name_internal 000000007105f600 f   module_list.c.obj
 0001:0005e800       moduledb_add_to_exempt_list 000000007105f800 f   moduledb.c.obj
 0001:0005e8e0       moduledb_update_exempt_list 000000007105f8e0 f   moduledb.c.obj
 0001:0005e960       moduledb_process_relaxation_flags 000000007105f960 f   moduledb.c.obj
 0001:0005ebd0       coarse_unit_mark_primary   000000007105fbd0 f   perscache.c.obj
 0001:0005ed10       coarse_unit_reset_free_internal 000000007105fd10 f   perscache.c.obj
 0001:0005f330       coarse_replace_unit        0000000071060330 f   perscache.c.obj
 0001:0005f6c0       push_pending_freeze        00000000710606c0 f   perscache.c.obj
 0001:0005fa20       coarse_unit_shift_jmps     0000000071060a20 f   perscache.c.obj
 0001:0005fca0       coarse_merge_process_stub  0000000071060ca0 f   perscache.c.obj
 0001:0005fea0       coarse_merge_update_jmps   0000000071060ea0 f   perscache.c.obj
 0001:00060120       coarse_merge_without_dups  0000000071061120 f   perscache.c.obj
 0001:000607d0       get_persist_filename       00000000710617d0 f   perscache.c.obj
 0001:00060ab0       persist_calculate_self_digest 0000000071061ab0 f   perscache.c.obj
 0001:00060b60       persist_calculate_module_digest 0000000071061b60 f   perscache.c.obj
 0001:00060c40       coarse_unit_merge_persist_info 0000000071061c40 f   perscache.c.obj
 0001:00060d20       pad_persist_file           0000000071061d20 f   perscache.c.obj
 0001:00060d90       coarse_unit_set_persist_data 0000000071061d90 f   perscache.c.obj
 0001:00061090       coarse_unit_persist_rename 0000000071062090 f   perscache.c.obj
 0001:000612f0       persist_check_option_compat 00000000710622f0 f   perscache.c.obj
 0001:00062880       coarse_unit_merge_with_disk 0000000071063880 f   perscache.c.obj
 0001:000633e0       nudge_terminate_on_dstack  00000000710643e0 f   nudge.c.obj
 0001:00063510       handle_nudge               0000000071064510 f   nudge.c.obj
 0001:00063b10       is_native_thread_state_valid 0000000071064b10 f   synch.c.obj
 0001:00063d10       waiting_at_safe_spot       0000000071064d10 f   synch.c.obj
 0001:00064fb0       pathcmp                    0000000071065fb0 f   loader_shared.c.obj
 0001:00065030       privload_read_drpath_file  0000000071066030 f   loader_shared.c.obj
 0001:000653c0       privload_add_subdir_path   00000000710663c0 f   loader_shared.c.obj
 0001:00065540       privload_load_finalize     0000000071066540 f   loader_shared.c.obj
 0001:00066060       utf8_to_utf16              0000000071067060 f   io.c.obj
 0001:00066270       utf16_to_utf8              0000000071067270 f   io.c.obj
 0001:00066570       uint64_to_str              0000000071067570 f   io.c.obj
 0001:00066610       ulong_to_str               0000000071067610 f   io.c.obj
 0001:000666c0       double_to_str              00000000710676c0 f   io.c.obj
 0001:00066980       double_to_exp_str          0000000071067980 f   io.c.obj
 0001:00066ab0       our_vsnprintf_float        0000000071067ab0 f   io.c.obj
 0001:000676c0       uint64_to_str_wide         00000000710686c0 f   io.c.obj
 0001:00067780       ulong_to_str_wide          0000000071068780 f   io.c.obj
 0001:00067840       double_to_str_wide         0000000071068840 f   io.c.obj
 0001:00067b30       double_to_exp_str_wide     0000000071068b30 f   io.c.obj
 0001:00067c90       our_vsnprintf_float_wide   0000000071068c90 f   io.c.obj
 0001:000690c0       on_native_exec_list        000000007106a0c0 f   native_exec.c.obj
 0001:00069160       check_and_mark_native_exec 000000007106a160 f   native_exec.c.obj
 0001:00069310       entering_native            000000007106a310 f   native_exec.c.obj
 0001:00069640       back_from_native_common    000000007106a640 f   native_exec.c.obj
 0001:000697f0       add_callback               000000007106a7f0 f   instrument.c.obj
 0001:00069c30       init_client_aux_libs       000000007106ac30 f   instrument.c.obj
 0001:0006cb50       create_and_initialize_module_data 000000007106db50 f   instrument.c.obj
 0001:0006de80       raw_mem_alloc              000000007106ee80 f   instrument.c.obj
 0001:0006e010       raw_mem_free               000000007106f010 f   instrument.c.obj
 0001:0006f240       dr_write_to_console        0000000071070240 f   instrument.c.obj
 0001:0006f310       dr_write_to_console_varg   0000000071070310 f   instrument.c.obj
 0001:000702e0       prepare_for_call_ex        00000000710712e0 f   instrument.c.obj
 0001:00070380       cleanup_after_call_ex      0000000071071380 f   instrument.c.obj
 0001:00071b80       dr_insert_cbr_instrumentation_help 0000000071072b80 f   instrument.c.obj
 0001:00074d00       parse_option_array         0000000071075d00 f   instrument.c.obj
 0001:00075690       translate_walk_track       0000000071076690 f   translate.c.obj
 0001:00075890       translate_walk_restore     0000000071076890 f   translate.c.obj
 0001:00075950       recreate_app_state_from_info 0000000071076950 f   translate.c.obj
 0001:00075ba0       recreate_app_state_from_ilist 0000000071076ba0 f   translate.c.obj
 0001:00075e70       recreate_selfmod_ilist     0000000071076e70 f   translate.c.obj
 0001:00075f40       recreate_app_state_internal 0000000071076f40 f   translate.c.obj
 0001:00076ed0       is_annotation_tag          0000000071077ed0 f   annotations.c.obj
 0001:00077030       identify_annotation        0000000071078030 f   annotations.c.obj
 0001:00077220       create_arg_opnds           0000000071078220 f   annotations.c.obj
 0001:00077350       free_annotation_handler    0000000071078350 f   annotations.c.obj
 0001:00077840       annotation_manage_code_area 0000000071078840 f   jit_opt.c.obj
 0001:00077850       fragment_tree_create       0000000071078850 f   jit_opt.c.obj
 0001:000778e0       fragment_tree_overlap_lookup 00000000710788e0 f   jit_opt.c.obj
 0001:00077920       fragment_tree_rotate_left  0000000071078920 f   jit_opt.c.obj
 0001:000779e0       fragment_tree_rotate_right 00000000710789e0 f   jit_opt.c.obj
 0001:00077aa0       fragment_tree_insert_rebalance 0000000071078aa0 f   jit_opt.c.obj
 0001:00077bd0       fragment_tree_insert       0000000071078bd0 f   jit_opt.c.obj
 0001:00077cc0       fragment_tree_delete_rebalance 0000000071078cc0 f   jit_opt.c.obj
 0001:00077e40       fragment_tree_delete       0000000071078e40 f   jit_opt.c.obj
 0001:00078170       annotation_unmanage_code_area 0000000071079170 f   jit_opt.c.obj
 0001:00078260       get_shared_gencode         0000000071079260 f   arch.c.obj
 0001:00078260       get_shared_gencode         0000000071079260 f   arch.c.obj
 0001:00078320       check_size_and_cache_line  0000000071079320 f   arch.c.obj
 0001:000783a0       emit_ibl_routines          00000000710793a0 f   arch.c.obj
 0001:000785d0       emit_syscall_routines      00000000710795d0 f   arch.c.obj
 0001:00078fb0       get_special_ibl_xfer_entry 0000000071079fb0 f   arch.c.obj
 0001:000790a0       get_ibl_routine_code_internal 000000007107a0a0 f   arch.c.obj
 0001:00079f10       shared_gencode_emit        000000007107af10 f   arch.c.obj
 0001:0007a8c0       arch_extract_profile       000000007107b8c0 f   arch.c.obj
 0001:0007aca0       arch_patch_syscall_common  000000007107bca0 f   arch.c.obj
 0001:0007bbb0       is_patchable_exit_stub_helper 000000007107cbb0 f   emit_utils_shared.c.obj
 0001:0007c6f0       patch_coarse_branch        000000007107d6f0 f   emit_utils_shared.c.obj
 0001:0007c980       relocate_patch_list        000000007107d980 f   emit_utils_shared.c.obj
 0001:0007cc50       patch_emitted_code         000000007107dc50 f   emit_utils_shared.c.obj
 0001:0007d7b0       append_jmp_to_fcache_target 000000007107e7b0 f   emit_utils_shared.c.obj
 0001:0007d9b0       emit_fcache_enter_common   000000007107e9b0 f   emit_utils_shared.c.obj
 0001:0007dd30       append_prepare_fcache_return 000000007107ed30 f   emit_utils_shared.c.obj
 0001:0007df10       append_call_dispatch       000000007107ef10 f   emit_utils_shared.c.obj
 0001:0007f610       create_int_syscall_instr   0000000071080610 f   emit_utils_shared.c.obj
 0001:0007f920       insert_restore_target_from_dc 0000000071080920 f   emit_utils_shared.c.obj
 0001:000816e0       emit_do_syscall_common     00000000710826e0 f   emit_utils_shared.c.obj
 0001:00081a40       emit_special_ibl_xfer      0000000071082a40 f   emit_utils_shared.c.obj
 0001:00082530       insert_entering_native     0000000071083530 f   emit_utils_shared.c.obj
 0001:00082c50       insert_jmp_to_ibl          0000000071083c50 f   emit_utils.c.obj
 0001:00083430       insert_restore_xcx         0000000071084430 f   emit_utils.c.obj
 0001:00083500       insert_restore_register    0000000071084500 f   emit_utils.c.obj
 0001:00087740       insert_inlined_ibl         0000000071088740 f   emit_utils.c.obj
 0001:0008c310       instr_check_tls_spill_restore 000000007108d310 f   instr_shared.c.obj
 0001:0008c750       private_instr_encode       000000007108d750 f   instr_shared.c.obj
 0001:0008e050       instr_compute_address_helper 000000007108f050 f   instr_shared.c.obj
 0001:00091270       instr_create_save_immedN_to_dcontext 0000000071092270 f   instr_shared.c.obj
 0001:00091950       INSTR_CREATE_nop2byte_reg  0000000071092950 f   instr.c.obj
 0001:00091a10       INSTR_CREATE_nop3byte_reg  0000000071092a10 f   instr.c.obj
 0001:00092880       opcode_is_mmx              0000000071093880 f   instr.c.obj
 0001:00092940       opcode_is_sse              0000000071093940 f   instr.c.obj
 0001:00092ad0       opcode_is_new_in_sse2      0000000071093ad0 f   instr.c.obj
 0001:00092c90       opcode_is_widened_in_sse2  0000000071093c90 f   instr.c.obj
 0001:00093320       opc_jcc_taken              0000000071094320 f   instr.c.obj
 0001:00093f80       instr_has_xmm_opnd         0000000071094f80 f   instr.c.obj
 0001:00095480       read_immed                 0000000071096480 f   decode.c.obj
 0001:00095530       read_operand               0000000071096530 f   decode.c.obj
 0001:00095730       read_modrm                 0000000071096730 f   decode.c.obj
 0001:00095850       read_vex                   0000000071096850 f   decode.c.obj
 0001:00095a80       read_prefix_ext            0000000071096a80 f   decode.c.obj
 0001:00095b80       read_instruction           0000000071096b80 f   decode.c.obj
 0001:000962e0       decode_modrm               00000000710972e0 f   decode.c.obj
 0001:000971c0       decode_operand             00000000710981c0 f   decode.c.obj
 0001:00097da0       decode_common              0000000071098da0 f   decode.c.obj
 0001:00098370       use_addr_prefix_on_short_disp 0000000071099370 f   encode.c.obj
 0001:00098370       use_addr_prefix_on_short_disp 0000000071099370 f   encode.c.obj
 0001:00098370       use_addr_prefix_on_short_disp 0000000071099370 f   encode.c.obj
 0001:00098370       use_addr_prefix_on_short_disp 0000000071099370 f   encode.c.obj
 0001:000983c0       type_instr_uses_reg_bits   00000000710993c0 f   encode.c.obj
 0001:00098420       type_uses_modrm_bits       0000000071099420 f   encode.c.obj
 0001:00098480       size_ok_varsz              0000000071099480 f   encode.c.obj
 0001:00098860       resolve_var_x64_size       0000000071099860 f   encode.c.obj
 0001:00098930       collapse_subreg_size       0000000071099930 f   encode.c.obj
 0001:000989b0       size_ok                    00000000710999b0 f   encode.c.obj
 0001:00098d40       immed_size_ok              0000000071099d40 f   encode.c.obj
 0001:00098dd0       reg_set_ext_prefixes       0000000071099dd0 f   encode.c.obj
 0001:00098e30       reg_size_ok                0000000071099e30 f   encode.c.obj
 0001:00098f70       mem_size_ok                0000000071099f70 f   encode.c.obj
 0001:00099140       opnd_type_ok               000000007109a140 f   encode.c.obj
 0001:0009a040       encoding_possible_pass     000000007109b040 f   encode.c.obj
 0001:0009b530       encode_immed               000000007109c530 f   encode.c.obj
 0001:0009b700       encode_reg_ext_prefixes    000000007109c700 f   encode.c.obj
 0001:0009b750       encode_rel_addr            000000007109c750 f   encode.c.obj
 0001:0009b800       encode_base_disp           000000007109c800 f   encode.c.obj
 0001:0009bb40       encode_operand             000000007109cb40 f   encode.c.obj
 0001:0009c1a0       encode_vex_final_prefix_byte 000000007109d1a0 f   encode.c.obj
 0001:0009c1f0       encode_vex_prefixes        000000007109d1f0 f   encode.c.obj
 0001:0009c350       encode_cti                 000000007109d350 f   encode.c.obj
 0001:0009cd20       immed_prefix               000000007109dd20 f   disassemble_shared.c.obj
 0001:0009cdd0       opnd_size_suffix_dr        000000007109ddd0 f   disassemble_shared.c.obj
 0001:0009d140       opnd_size_suffix_intel     000000007109e140 f   disassemble_shared.c.obj
 0001:0009d240       opnd_mem_disassemble_prefix 000000007109e240 f   disassemble_shared.c.obj
 0001:0009d2d0       opnd_base_disp_disassemble 000000007109e2d0 f   disassemble_shared.c.obj
 0001:0009d6f0       print_known_pc_target      000000007109e6f0 f   disassemble_shared.c.obj
 0001:0009e440       instr_disassemble_opnds_noimplicit 000000007109f440 f   disassemble_shared.c.obj
 0001:0009e7c0       sign_extend_immed          000000007109f7c0 f   disassemble_shared.c.obj
 0001:0009ea40       internal_instr_disassemble 000000007109fa40 f   disassemble_shared.c.obj
 0001:0009ee90       exit_stub_type_desc        000000007109fe90 f   disassemble_shared.c.obj
 0001:0009ef60       callstack_dump_module_info 000000007109ff60 f   disassemble_shared.c.obj
 0001:0009f020       internal_dump_callstack_to_buffer 00000000710a0020 f   disassemble_shared.c.obj
 0001:0009f340       internal_disassemble       00000000710a0340 f   disassemble_shared.c.obj
 0001:0009f9a0       common_disassemble_fragment 00000000710a09a0 f   disassemble_shared.c.obj
 0001:000a0b30       instr_opcode_name          00000000710a1b30 f   disassemble.c.obj
 0001:000a0cf0       instr_opcode_name_suffix   00000000710a1cf0 f   disassemble.c.obj
 0001:000a0fe0       sizeof_modrm               00000000710a1fe0 f   decode_fast.c.obj
 0001:000a2110       bb_add_native_direct_xfer  00000000710a3110 f   interp.c.obj
 0001:000a2360       check_for_stopping_point   00000000710a3360 f   interp.c.obj
 0001:000a2500       eflags_analysis            00000000710a3500 f   interp.c.obj
 0001:000a2600       check_new_page_start       00000000710a3600 f   interp.c.obj
 0001:000a2690       check_new_page_contig      00000000710a3690 f   interp.c.obj
 0001:000a2760       check_new_page_jmp         00000000710a3760 f   interp.c.obj
 0001:000a28c0       bb_process_call_direct     00000000710a38c0 f   interp.c.obj
 0001:000a2c90       bb_verify_sysenter_pattern 00000000710a3c90 f   interp.c.obj
 0001:000a2d20       bb_process_ignorable_syscall 00000000710a3d20 f   interp.c.obj
 0001:000a2de0       bb_process_syscall         00000000710a3de0 f   interp.c.obj
 0001:000a2f20       bb_process_interrupt       00000000710a3f20 f   interp.c.obj
 0001:000a2f80       bb_process_convertible_indcall 00000000710a3f80 f   interp.c.obj
 0001:000a3290       bb_process_IAT_convertible_indjmp 00000000710a4290 f   interp.c.obj
 0001:000a35c0       instr_will_be_exit_cti     00000000710a45c0 f   interp.c.obj
 0001:000a38d0       mangle_bb_ilist            00000000710a48d0 f   interp.c.obj
 0001:000a39d0       build_native_exec_bb       00000000710a49d0 f   interp.c.obj
 0001:000a3d10       at_native_exec_gateway     00000000710a4d10 f   interp.c.obj
 0001:000a3f00       init_interp_build_bb       00000000710a4f00 f   interp.c.obj
 0001:000a4010       tracelist_add              00000000710a5010 f   interp.c.obj
 0001:000a4090       insert_restore_spilled_xcx 00000000710a5090 f   interp.c.obj
 0001:000a4250       insert_transparent_comparison 00000000710a5250 f   interp.c.obj
 0001:000a4420       mangle_x64_ib_in_trace     00000000710a5420 f   interp.c.obj
 0001:000a4810       mangle_indirect_branch_in_trace 00000000710a5810 f   interp.c.obj
 0001:000a4ad0       fixup_last_cti             00000000710a5ad0 f   interp.c.obj
 0001:000a50a0       create_exit_jmp            00000000710a60a0 f   interp.c.obj
 0001:000a6330       bb_process_invalid_instr   00000000710a7330 f   interp.c.obj
 0001:000a63a0       bb_process_ubr             00000000710a73a0 f   interp.c.obj
 0001:000a65f0       bb_process_fs_ref          00000000710a75f0 f   interp.c.obj
 0001:000a67b0       client_process_bb          00000000710a77b0 f   interp.c.obj
 0001:000a6d90       build_bb_ilist             00000000710a7d90 f   interp.c.obj
 0001:000a9ab0       get_cache_sizes_amd        00000000710aaab0 f   proc.c.obj
 0001:000a9b30       get_cache_sizes_intel      00000000710aab30 f   proc.c.obj
 0001:000aa020       get_processor_specific_info 00000000710ab020 f   proc.c.obj
 0001:000ab480       cti_is_normal_elision      00000000710ac480 f   mangle_shared.c.obj
 0001:000aef60       stack_entry_size           00000000710aff60 f   mangle.c.obj
 0001:000af550       insert_mov_ptr_uint_beyond_TOS 00000000710b0550 f   mangle.c.obj
 0001:000af6e0       insert_push_cs             00000000710b06e0 f   mangle.c.obj
 0001:000af870       mangle_far_direct_helper   00000000710b0870 f   mangle.c.obj
 0001:000afcf0       mangle_far_indirect_helper 00000000710b0cf0 f   mangle.c.obj
 0001:000b0210       mangle_far_return_save_selector 00000000710b1210 f   mangle.c.obj
 0001:000b1c60       sandbox_rep_instr          00000000710b2c60 f   mangle.c.obj
 0001:000b24a0       sandbox_write              00000000710b34a0 f   mangle.c.obj
 0001:000b2bf0       sandbox_top_of_bb          00000000710b3bf0 f   mangle.c.obj
 0001:000b3df0       callee_info_free           00000000710b4df0 f   clean_call_opt.c.obj
 0001:000b3e30       callee_info_create         00000000710b4e30 f   clean_call_opt.c.obj
 0001:000b3ec0       callee_info_table_add      00000000710b4ec0 f   clean_call_opt.c.obj
 0001:000b3f70       decode_callee_instr        00000000710b4f70 f   clean_call_opt.c.obj
 0001:000b4050       check_callee_instr         00000000710b5050 f   clean_call_opt.c.obj
 0001:000b4440       check_callee_ilist         00000000710b5440 f   clean_call_opt.c.obj
 0001:000b4550       analyze_callee_regs_usage  00000000710b5550 f   clean_call_opt.c.obj
 0001:000b47b0       analyze_callee_save_reg    00000000710b57b0 f   clean_call_opt.c.obj
 0001:000b4cb0       analyze_callee_tls         00000000710b5cb0 f   clean_call_opt.c.obj
 0001:000b4df0       analyze_callee_inline      00000000710b5df0 f   clean_call_opt.c.obj
 0001:000b5410       analyze_callee_ilist       00000000710b6410 f   clean_call_opt.c.obj
 0001:000b54b0       analyze_clean_call_aflags  00000000710b64b0 f   clean_call_opt.c.obj
 0001:000b5560       analyze_clean_call_regs    00000000710b6560 f   clean_call_opt.c.obj
 0001:000b5610       analyze_clean_call_args    00000000710b6610 f   clean_call_opt.c.obj
 0001:000b56d0       analyze_clean_call_inline  00000000710b66d0 f   clean_call_opt.c.obj
 0001:000b5990       insert_inline_reg_save     00000000710b6990 f   clean_call_opt.c.obj
 0001:000b5c80       insert_inline_reg_restore  00000000710b6c80 f   clean_call_opt.c.obj
 0001:000b5e90       insert_inline_arg_setup    00000000710b6e90 f   clean_call_opt.c.obj
 0001:000b6df0       pre                        00000000710b7df0 f   x86_to_x64.c.obj
 0001:000b6e40       replace                    00000000710b7e40 f   x86_to_x64.c.obj
 0001:000b6eb0       opnd_change_base_reg_to_64 00000000710b7eb0 f   x86_to_x64.c.obj
 0001:000b7020       instr_change_base_reg_to_64 00000000710b8020 f   x86_to_x64.c.obj
 0001:000b71f0       translate_indirect_jump    00000000710b81f0 f   x86_to_x64.c.obj
 0001:000b7330       translate_indirect_call    00000000710b8330 f   x86_to_x64.c.obj
 0001:000b7490       translate_push             00000000710b8490 f   x86_to_x64.c.obj
 0001:000b78d0       translate_push_imm         00000000710b88d0 f   x86_to_x64.c.obj
 0001:000b7c00       translate_pop              00000000710b8c00 f   x86_to_x64.c.obj
 0001:000b7f20       translate_pusha            00000000710b8f20 f   x86_to_x64.c.obj
 0001:000b8170       translate_popa             00000000710b9170 f   x86_to_x64.c.obj
 0001:000b83b0       translate_into             00000000710b93b0 f   x86_to_x64.c.obj
 0001:000b84b0       translate_load_far_pointer 00000000710b94b0 f   x86_to_x64.c.obj
 0001:000b8740       translate_leave            00000000710b9740 f   x86_to_x64.c.obj
 0001:000b8930       translate_pushf            00000000710b9930 f   x86_to_x64.c.obj
 0001:000b8bc0       translate_popf             00000000710b9bc0 f   x86_to_x64.c.obj
 0001:000b8f50       set_event_source_registry_values 00000000710b9f50 f   eventlog.c.obj
 0001:000b9010       init_registry_source       00000000710ba010 f   eventlog.c.obj
 0001:000b9110       append_string              00000000710ba110 f   eventlog.c.obj
 0001:000b9240       prepend_header             00000000710ba240 f   eventlog.c.obj
 0001:000b95a0       eventlog_report            00000000710ba5a0 f   eventlog.c.obj
 0001:000b9a60       eventlog_alloc             00000000710baa60 f   eventlog.c.obj
 0001:000b9d70       os_terminate_static_arguments 00000000710bad70 f   os.c.obj
 0001:000b9f40       takeover_table_entry_free  00000000710baf40 f   os.c.obj
 0001:000ba060       thread_attach_remove_from_table 00000000710bb060 f   os.c.obj
 0001:000ba3b0       prot_is_readable           00000000710bb3b0 f   os.c.obj
 0001:000baaa0       process_image              00000000710bbaa0 f   os.c.obj
 0001:000bbde0       get_allocation_size_ex     00000000710bcde0 f   os.c.obj
 0001:000bbf20       query_memory_internal      00000000710bcf20 f   os.c.obj
 0001:000bd3a0       os_internal_create_file    00000000710be3a0 f   os.c.obj
 0001:000be160       os_dump_core_segment_info  00000000710bf160 f   os.c.obj
 0001:000be230       os_dump_core_dump_thread   00000000710bf230 f   os.c.obj
 0001:000be490       detach_helper_handle_callbacks 00000000710bf490 f   os.c.obj
 0001:000bee40       os_wait_event              00000000710bfe40 f   os.c.obj
 0001:000bfd70       os_validate_owner_equals   00000000710c0d70 f   os.c.obj
 0001:000c0020       get_nth_stack_frames_call_target 00000000710c1020 f   os.c.obj
 0001:000c0260       init_global_profiles       00000000710c1260 f   os.c.obj
 0001:000c04e0       dump_dll_profile           00000000710c14e0 f   os.c.obj
 0001:000c05d0       exit_global_profiles       00000000710c15d0 f   os.c.obj
 0001:000c0d60       os_list_threads            00000000710c1d60 f   os.c.obj
 0001:000c0ee0       os_take_over_thread        00000000710c1ee0 f   os.c.obj
 0001:000c1620       inject_into_process        00000000710c2620 f   os.c.obj
 0001:000c2000       os_dump_core_live_dump     00000000710c3000 f   os.c.obj
 0001:000c3d60       handle_to_tid_lookup       00000000710c4d60 f   syscall.c.obj
 0001:000c3dc0       thread_handle_to_tid       00000000710c4dc0 f   syscall.c.obj
 0001:000c3e80       get_process_env_var        00000000710c4e80 f   syscall.c.obj
 0001:000c3fc0       add_dr_env_vars            00000000710c4fc0 f   syscall.c.obj
 0001:000c43e0       not_first_thread_in_new_process 00000000710c53e0 f   syscall.c.obj
 0001:000c4460       presys_ResumeThread        00000000710c5460 f   syscall.c.obj
 0001:000c4580       presys_TerminateProcess    00000000710c5580 f   syscall.c.obj
 0001:000c49e0       presys_TerminateThread     00000000710c59e0 f   syscall.c.obj
 0001:000c4e50       presys_SetContextThread    00000000710c5e50 f   syscall.c.obj
 0001:000c5180       presys_AllocateVirtualMemory 00000000710c6180 f   syscall.c.obj
 0001:000c5360       presys_FreeVirtualMemory   00000000710c6360 f   syscall.c.obj
 0001:000c5530       presys_ProtectVirtualMemory 00000000710c6530 f   syscall.c.obj
 0001:000c5740       presys_MapViewOfSection    00000000710c6740 f   syscall.c.obj
 0001:000c5860       presys_UnmapViewOfSection  00000000710c6860 f   syscall.c.obj
 0001:000c6460       postsys_CreateUserProcess  00000000710c7460 f   syscall.c.obj
 0001:000c6580       postsys_GetContextThread   00000000710c7580 f   syscall.c.obj
 0001:000c68b0       postsys_SuspendThread      00000000710c78b0 f   syscall.c.obj
 0001:000c6b40       postsys_QueryInformationThread 00000000710c7b40 f   syscall.c.obj
 0001:000c6bf0       postsys_AllocateVirtualMemory 00000000710c7bf0 f   syscall.c.obj
 0001:000c6e90       postsys_QueryVirtualMemory 00000000710c7e90 f   syscall.c.obj
 0001:000c6fd0       postsys_create_or_open_section 00000000710c7fd0 f   syscall.c.obj
 0001:000c7150       postsys_CreateSection      00000000710c8150 f   syscall.c.obj
 0001:000c71d0       postsys_OpenSection        00000000710c81d0 f   syscall.c.obj
 0001:000c72d0       postsys_MapViewOfSection   00000000710c82d0 f   syscall.c.obj
 0001:000c83b0       insert_let_go_cleanup      00000000710c93b0 f   callback.c.obj
 0001:000c8a00       map_intercept_pc_to_app_pc 00000000710c9a00 f   callback.c.obj
 0001:000c8ac0       unmap_intercept_pc         00000000710c9ac0 f   callback.c.obj
 0001:000c8c10       un_intercept_call          00000000710c9c10 f   callback.c.obj
 0001:000c8cc0       clean_syscall_wrapper      00000000710c9cc0 f   callback.c.obj
 0001:000c9020       syscall_wrapper_ilist      00000000710ca020 f   callback.c.obj
 0001:000c9880       possible_new_thread_wait_for_dr_init 00000000710ca880 f   callback.c.obj
 0001:000c9920       intercept_new_thread       00000000710ca920 f   callback.c.obj
 0001:000c9d80       transfer_to_fcache_return  00000000710cad80 f   callback.c.obj
 0001:000ca0e0       check_for_modified_code    00000000710cb0e0 f   callback.c.obj
 0001:000ca460       internal_dynamo_exception  00000000710cb460 f   callback.c.obj
 0001:000ca510       client_exception_event     00000000710cb510 f   callback.c.obj
 0001:000cab00       swap_dcontexts             00000000710cbb00 f   callback.c.obj
 0001:000caca0       thread_attach_takeover_callee 00000000710cbca0 f   callback.c.obj
 0001:000cad50       check_internal_exception   00000000710cbd50 f   callback.c.obj
 0001:000caef0       callback_setup             00000000710cbef0 f   callback.c.obj
 0001:000cb160       intercept_image_entry      00000000710cc160 f   callback.c.obj
 0001:000cb2b0       asynch_take_over           00000000710cc2b0 f   callback.c.obj
 0001:000cb360       intercept_ldr_init         00000000710cc360 f   callback.c.obj
 0001:000cb480       intercept_apc              00000000710cc480 f   callback.c.obj
 0001:000cb760       intercept_exception        00000000710cc760 f   callback.c.obj
 0001:000cbe90       intercept_raise_exception  00000000710cce90 f   callback.c.obj
 0001:000cbf90       intercept_callback_start   00000000710ccf90 f   callback.c.obj
 0001:000cc400       emit_intercept_code        00000000710cd400 f   callback.c.obj
 0001:000ce390       intercept_call             00000000710cf390 f   callback.c.obj
 0001:000cec10       insert_image_entry_trampoline 00000000710cfc10 f   callback.c.obj
 0001:000cfa20       read_and_verify_dr_marker_common 00000000710d0a20 f   drmarker.c.obj
 0001:000cfbb0       query_thread_info          00000000710d0bb0 f   ntdll.c.obj
 0001:000d0230       context_to_mcontext_internal 00000000710d1230 f   ntdll.c.obj
 0001:000d0880       alt_tls_acquire            00000000710d1880 f   ntdll.c.obj
 0001:000d0a00       alt_tls_release            00000000710d1a00 f   ntdll.c.obj
 0001:000d0c50       tls_alloc_helper           00000000710d1c50 f   ntdll.c.obj
 0001:000d5af0       tls_free_helper            00000000710d6af0 f   ntdll.c.obj
 0001:000d7230       allocate_remote_code_buffer 00000000710d8230 f   inject.c.obj
 0001:000d7390       inject_gencode_at_ldr      00000000710d8390 f   inject.c.obj
 0001:000d7b20       generate_switch_mode_jmp_to_hook 00000000710d8b20 f   inject.c.obj
 0001:000d7df0       inject_gencode_mapped_helper 00000000710d8df0 f   inject.c.obj
 0001:000d8550       inject_gencode_mapped      00000000710d9550 f   inject.c.obj
 0001:000d89a0       get_registry_parameter     00000000710d99a0 f   inject_shared.c.obj
 0001:000d8ce0       commandline_qualifier_needed 00000000710d9ce0 f   inject_shared.c.obj
 0001:000d91e0       get_process_qualified_name 00000000710da1e0 f   inject_shared.c.obj
 0001:000d9830       get_process_parameter_ex   00000000710da830 f   inject_shared.c.obj
 0001:000d9980       systemwide_should_inject_common 00000000710da980 f   inject_shared.c.obj
 0001:000d9a30       section_to_file_free       00000000710daa30 f   module.c.obj
 0001:000d9ae0       section_to_file_add_common 00000000710daae0 f   module.c.obj
 0001:000d9c60       find_ntdll_mod_rbtree      00000000710dac60 f   module.c.obj
 0001:000d9e30       hide_from_rbtree           00000000710dae30 f   module.c.obj
 0001:000d9f00       hide_from_module_lists     00000000710daf00 f   module.c.obj
 0001:000da410       get_image_section_map_size 00000000710db410 f   module.c.obj
 0001:000dae50       get_module_base_reloc      00000000710dbe50 f   module.c.obj
 0001:000db510       module_apply_relocations   00000000710dc510 f   module.c.obj
 0001:000db770       module_reloc_iterator_next 00000000710dc770 f   module.c.obj
 0001:000dbb40       ensure_section_readable    00000000710dcb40 f   module.c.obj
 0001:000dbc20       restore_unreadable_section 00000000710dcc20 f   module.c.obj
 0001:000dbcf0       module_pe_section_compare  00000000710dccf0 f   module.c.obj
 0001:000dc1d0       get_module_resource_directory 00000000710dd1d0 f   module.c.obj
 0001:000dc290       get_resource_directory_entry_by_id 00000000710dd290 f   module.c.obj
 0001:000dc350       get_module_resource_version_data 00000000710dd350 f   module.c.obj
 0001:000dc4d0       read_version_struct_header 00000000710dd4d0 f   module.c.obj
 0001:000dc620       read_vs_version_info       00000000710dd620 f   module.c.obj
 0001:000dc6e0       read_string_or_var_info    00000000710dd6e0 f   module.c.obj
 0001:000dc7f0       read_rsrc_string           00000000710dd7f0 f   module.c.obj
 0001:000dc970       get_module_resource_version_info 00000000710dd970 f   module.c.obj
 0001:000dcd00       safe_read_cur_module       00000000710ddd00 f   module.c.obj
 0001:000dce90       pe_symbol_import_iterator_read_thunk 00000000710dde90 f   module.c.obj
 0001:000dcf20       pe_symbol_import_iterator_next_module 00000000710ddf20 f   module.c.obj
 0001:000dd7b0       get_all_module_short_names_uncached 00000000710de7b0 f   module.c.obj
 0001:000de2c0       get_module_exports_directory_common 00000000710df2c0 f   module_shared.c.obj
 0001:000de340       get_module_exports_directory_check_common 00000000710df340 f   module_shared.c.obj
 0001:000de3f0       get_proc_address_common    00000000710df3f0 f   module_shared.c.obj
 0001:000dea70       diagnostics_log_data       00000000710dfa70 f   diagnost.c.obj
 0001:000dec20       print_memory_buffer        00000000710dfc20 f   diagnost.c.obj
 0001:000ded50       report_addr_info           00000000710dfd50 f   diagnost.c.obj
 0001:000dee70       report_src_info            00000000710dfe70 f   diagnost.c.obj
 0001:000defc0       report_dcontext_info       00000000710dffc0 f   diagnost.c.obj
 0001:000df1a0       report_internal_data_structures 00000000710e01a0 f   diagnost.c.obj
 0001:000df350       report_ntdll_info          00000000710e0350 f   diagnost.c.obj
 0001:000df4c0       report_current_process     00000000710e04c0 f   diagnost.c.obj
 0001:000dfb30       report_processes           00000000710e0b30 f   diagnost.c.obj
 0001:000dfcd0       report_registry_settings_helper 00000000710e0cd0 f   diagnost.c.obj
 0001:000dff90       report_intro               00000000710e0f90 f   diagnost.c.obj
 0001:000e0090       report_processor_info      00000000710e1090 f   diagnost.c.obj
 0001:000e01b0       report_system_diagnostics  00000000710e11b0 f   diagnost.c.obj
 0001:000e06f0       report_autostart_programs  00000000710e16f0 f   diagnost.c.obj
 0001:000e0830       report_diagnostics_common  00000000710e1830 f   diagnost.c.obj
 0001:000e0b90       postsys_param              00000000710e1b90 f   aslr.c.obj
 0001:000e0c20       aslr_get_next_base         00000000710e1c20 f   aslr.c.obj
 0001:000e0c80       aslr_get_fitting_base      00000000710e1c80 f   aslr.c.obj
 0001:000e0d50       aslr_update_view_size      00000000710e1d50 f   aslr.c.obj
 0001:000e17d0       aslr_reserve_initial_heap_pad 00000000710e27d0 f   aslr.c.obj
 0001:000e1860       aslr_free_heap_pads        00000000710e2860 f   aslr.c.obj
 0001:000e18e0       open_relocated_dlls_filecache_directory 00000000710e28e0 f   aslr.c.obj
 0001:000e1a20       aslr_get_section_digest    00000000710e2a20 f   aslr.c.obj
 0001:000e1af0       aslr_get_file_digest       00000000710e2af0 f   aslr.c.obj
 0001:000e1b80       aslr_create_relocated_dll_file 00000000710e2b80 f   aslr.c.obj
 0001:000e1c30       is_aslr_exempted_file_name 00000000710e2c30 f   aslr.c.obj
 0001:000e1dc0       calculate_publish_name     00000000710e2dc0 f   aslr.c.obj
 0001:000e1f20       aslr_write_header          00000000710e2f20 f   aslr.c.obj
 0001:000e1fb0       aslr_generate_relocated_section 00000000710e2fb0 f   aslr.c.obj
 0001:000e2190       aslr_produce_randomized_file 00000000710e3190 f   aslr.c.obj
 0001:000e2580       aslr_replace_section_handle 00000000710e3580 f   aslr.c.obj
 0001:000e26d0       aslr_get_known_dll_path    00000000710e36d0 f   aslr.c.obj
 0001:000e2b60       aslr_module_verify_relocated_contents 00000000710e3b60 f   aslr.c.obj
 0001:000e3400       aslr_verify_file_checksum  00000000710e4400 f   aslr.c.obj
 0001:000e3580       aslr_open_relocated_dll_file 00000000710e4580 f   aslr.c.obj
 0001:000e3650       aslr_publish_section_handle 00000000710e4650 f   aslr.c.obj
 0001:000e38f0       aslr_post_process_create_section_internal 00000000710e48f0 f   aslr.c.obj
 0001:000e3b70       swap_peb_pointer_ex        00000000710e4b70 f   loader.c.obj
 0001:000e4310       map_api_set_dll            00000000710e5310 f   loader.c.obj
 0001:000e4b80       privload_locate_and_load   00000000710e5b80 f   loader.c.obj
 0001:000e4d80       privload_disable_console_init 00000000710e5d80 f   loader.c.obj
 0001:000e53a0       privload_set_security_cookie 00000000710e63a0 f   loader.c.obj
 0001:000e5510       add_mod_to_drmarker        00000000710e6510 f   loader.c.obj
 0001:000e55f0       privload_add_windbg_cmds   00000000710e65f0 f   loader.c.obj
 0001:000e5760       privload_add_windbg_cmds_post_init 00000000710e6760 f   loader.c.obj
 0001:000e5870       privload_bootstrap_get_export 00000000710e6870 f   loader.c.obj
 0001:000e6410       privload_lookup_locate_and_load 00000000710e7410 f   loader.c.obj
 0001:000e65b0       privload_process_one_import 00000000710e75b0 f   loader.c.obj
 0001:000e92e0       create_dir_common          00000000710ea2e0 f   kernel32_file.c.obj
 0001:000e9610       create_file_common         00000000710ea610 f   kernel32_file.c.obj
 0001:000ead30       find_next_file_common      00000000710ebd30 f   kernel32_file.c.obj
 0001:000eae30       find_first_file_common     00000000710ebe30 f   kernel32_file.c.obj
 0001:000eafd0       find_nt_to_win32A          00000000710ebfd0 f   kernel32_file.c.obj
 0001:000eb0b0       find_nt_to_win32W          00000000710ec0b0 f   kernel32_file.c.obj
 0001:000ebc00       open_key_common            00000000710ecc00 f   advapi32_redir.c.obj
 0001:000ebc80       special_to_handle          00000000710ecc80 f   advapi32_redir.c.obj
 0001:000ebdf0       key_close_special          00000000710ecdf0 f   advapi32_redir.c.obj

 Exports

  ordinal    name

        1    Forwarded to NTDLL.NtCreateSection
               exported name: NtCreateSection
        2    Forwarded to NTDLL.NtMapViewOfSection
               exported name: NtMapViewOfSection
        3    Forwarded to NTDLL.NtOpenDirectoryObject
               exported name: NtOpenDirectoryObject
        4    Forwarded to NTDLL.NtUnmapViewOfSection
               exported name: NtUnmapViewOfSection
        5    Forwarded to NTDLL.RtlInitUnicodeString
               exported name: RtlInitUnicodeString
        6    Forwarded to NTDLL.__isascii
               exported name: __isascii
        7    Forwarded to NTDLL.__iscsym
               exported name: __iscsym
        8    Forwarded to NTDLL.__iscsymf
               exported name: __iscsymf
        9    Forwarded to NTDLL.__toascii
               exported name: __toascii
       10    Forwarded to NTDLL._atoi64
               exported name: _atoi64
       11    Forwarded to NTDLL._fltused
               exported name: _fltused
       12    Forwarded to NTDLL._i64toa
               exported name: _i64toa
       13    Forwarded to NTDLL._i64tow
               exported name: _i64tow
       14    Forwarded to NTDLL._itoa
               exported name: _itoa
       15    Forwarded to NTDLL._itow
               exported name: _itow
       16    Forwarded to NTDLL._ltoa
               exported name: _ltoa
       17    Forwarded to NTDLL._ltow
               exported name: _ltow
       18    Forwarded to NTDLL._memccpy
               exported name: _memccpy
       19    Forwarded to NTDLL._memicmp
               exported name: _memicmp
       20    Forwarded to NTDLL._snprintf
               exported name: _snprintf
       21    Forwarded to NTDLL._snwprintf
               exported name: _snwprintf
       22    Forwarded to NTDLL._strcmpi
               exported name: _strcmpi
       23    Forwarded to NTDLL._stricmp
               exported name: _stricmp
       24    Forwarded to NTDLL._strlwr
               exported name: _strlwr
       25    Forwarded to NTDLL._strnicmp
               exported name: _strnicmp
       26    Forwarded to NTDLL._strupr
               exported name: _strupr
       27    Forwarded to NTDLL._tolower
               exported name: _tolower
       28    Forwarded to NTDLL._toupper
               exported name: _toupper
       29    Forwarded to NTDLL._ui64toa
               exported name: _ui64toa
       30    Forwarded to NTDLL._ultoa
               exported name: _ultoa
       31    Forwarded to NTDLL._ultow
               exported name: _ultow
       32    Forwarded to NTDLL._vsnprintf
               exported name: _vsnprintf
       33    Forwarded to NTDLL._wcsicmp
               exported name: _wcsicmp
       34    Forwarded to NTDLL._wcslwr
               exported name: _wcslwr
       35    Forwarded to NTDLL._wcsnicmp
               exported name: _wcsnicmp
       36    Forwarded to NTDLL._wcsupr
               exported name: _wcsupr
       37    Forwarded to NTDLL._wtoi
               exported name: _wtoi
       38    Forwarded to NTDLL._wtoi64
               exported name: _wtoi64
       39    Forwarded to NTDLL._wtol
               exported name: _wtol
       40    Forwarded to NTDLL.abs
               exported name: abs
       41    Forwarded to NTDLL.atan
               exported name: atan
       42    Forwarded to NTDLL.atoi
               exported name: atoi
       43    Forwarded to NTDLL.atol
               exported name: atol
       44    Forwarded to NTDLL.ceil
               exported name: ceil
       45    Forwarded to NTDLL.cos
               exported name: cos
       46    decode
       47    decode_as_bb
       48    decode_eflags_usage
       49    decode_first_opcode_byte
       50    decode_from_copy
       51    decode_memory_reference_size
       52    decode_next_pc
       53    decode_opcode_name
       54    decode_sizeof
       55    decode_trace
       56    disassemble
       57    disassemble_from_copy
       58    disassemble_set_syntax
       59    disassemble_to_buffer
       60    disassemble_with_info
       61    dr_abort
       62    dr_annotation_register_call
       63    dr_annotation_register_return
       64    dr_annotation_unregister_call
       65    dr_annotation_unregister_return
       66    dr_app_cleanup
       67    dr_app_pc_as_jump_target
       68    dr_app_pc_as_load_target
       69    dr_app_pc_for_decoding
       70    dr_app_pc_from_cache_pc
       71    dr_app_running_under_dynamorio
       72    dr_app_setup
       73    dr_app_setup_and_start
       74    dr_app_start
       75    dr_app_stop
       76    dr_app_take_over
       77    dr_atomic_add32_return_sum
       78    dr_bb_exists_at
       79    dr_call_on_clean_stack
       80    dr_cleanup_after_call
       81    dr_client_thread_set_suspendable
       82    dr_clobber_retaddr_after_read
       83    dr_close_file
       84    dr_convert_handle_to_pid
       85    dr_convert_pid_to_handle
       86    dr_copy_module_data
       87    dr_create_client_thread
       88    dr_create_dir
       89    dr_create_memory_dump
       90    dr_custom_alloc
       91    dr_custom_free
       92    dr_delay_flush_region
       93    dr_delete_dir
       94    dr_delete_file
       95    dr_delete_fragment
       96    dr_directory_exists
       97    dr_dup_file_handle
       98    dr_enable_console_printing
       99    dr_exit_process
      100    dr_file_exists
      101    dr_file_seek
      102    dr_file_size
      103    dr_file_tell
      104    dr_flush_file
      105    dr_flush_region
      106    dr_fprintf
      107    dr_fragment_app_pc
      108    dr_fragment_exists_at
      109    dr_fragment_persistable
      110    dr_fragment_size
      111    dr_free_module_data
      112    dr_get_app_PEB
      113    dr_get_application_name
      114    dr_get_client_base
      115    dr_get_client_path
      116    dr_get_current_directory
      117    dr_get_current_drcontext
      118    dr_get_dr_segment_base
      119    dr_get_dr_thread_handle
      120    dr_get_integer_option
      121    dr_get_isa_mode
      122    dr_get_logfile
      123    dr_get_main_module
      124    dr_get_mcontext
      125    dr_get_milliseconds
      126    dr_get_option_array
      127    dr_get_options
      128    dr_get_os_version
      129    dr_get_proc_address
      130    dr_get_proc_address_ex
      131    dr_get_process_id
      132    dr_get_random_seed
      133    dr_get_random_value
      134    dr_get_stderr_file
      135    dr_get_stdin_file
      136    dr_get_stdout_file
      137    dr_get_stolen_reg
      138    dr_get_string_option
      139    dr_get_thread_id
      140    dr_get_time
      141    dr_get_tls_field
      142    dr_get_token
      143    dr_global_alloc
      144    dr_global_free
      145    dr_insert_call
      146    dr_insert_call_ex
      147    dr_insert_call_instrumentation
      148    dr_insert_cbr_instrumentation
      149    dr_insert_cbr_instrumentation_ex
      150    dr_insert_clean_call
      151    dr_insert_clean_call_ex
      152    dr_insert_get_seg_base
      153    dr_insert_get_stolen_reg_value
      154    dr_insert_it_instrs
      155    dr_insert_mbr_instrumentation
      156    dr_insert_read_raw_tls
      157    dr_insert_read_tls_field
      158    dr_insert_restore_fpstate
      159    dr_insert_save_fpstate
      160    dr_insert_set_stolen_reg_value
      161    dr_insert_ubr_instrumentation
      162    dr_insert_write_raw_tls
      163    dr_insert_write_tls_field
      164    dr_is_notify_on
      165    dr_is_nudge_thread
      166    dr_is_thread_native
      167    dr_is_wow64
      168    dr_load_aux_library
      169    dr_log
      170    dr_lookup_aux_library_routine
      171    dr_lookup_module
      172    dr_lookup_module_by_name
      173    dr_lookup_module_section
      174    dr_map_file
      175    dr_mark_safe_to_suspend
      176    dr_mark_trace_head
      177    dr_max_opnd_accessible_spill_slot
      178    dr_mcontext_to_context
      179    dr_mcontext_xmm_fields_valid
      180    dr_memory_is_dr_internal
      181    dr_memory_is_in_client
      182    dr_memory_is_readable
      183    dr_memory_protect
      184    dr_messagebox
      185    dr_module_contains_addr
      186    dr_module_import_iterator_hasnext
      187    dr_module_import_iterator_next
      188    dr_module_import_iterator_start
      189    dr_module_import_iterator_stop
      190    dr_module_iterator_hasnext
      191    dr_module_iterator_next
      192    dr_module_iterator_start
      193    dr_module_iterator_stop
      194    dr_module_preferred_name
      195    dr_module_set_should_instrument
      196    dr_module_should_instrument
      197    dr_mutex_create
      198    dr_mutex_destroy
      199    dr_mutex_lock
      200    dr_mutex_mark_as_app
      201    dr_mutex_self_owns
      202    dr_mutex_trylock
      203    dr_mutex_unlock
      204    dr_nonheap_alloc
      205    dr_nonheap_free
      206    dr_nudge_client
      207    dr_nudge_client_ex
      208    dr_open_file
      209    dr_persist_size
      210    dr_persist_start
      211    dr_prepare_for_call
      212    dr_print_instr
      213    dr_print_opnd
      214    dr_printf
      215    dr_query_memory
      216    dr_query_memory_ex
      217    dr_raw_mem_alloc
      218    dr_raw_mem_free
      219    dr_raw_tls_calloc
      220    dr_raw_tls_cfree
      221    dr_raw_tls_opnd
      222    dr_read_file
      223    dr_read_saved_reg
      224    dr_recurlock_create
      225    dr_recurlock_destroy
      226    dr_recurlock_lock
      227    dr_recurlock_mark_as_app
      228    dr_recurlock_self_owns
      229    dr_recurlock_trylock
      230    dr_recurlock_unlock
      231    dr_redirect_execution
      232    dr_redirect_native_target
      233    dr_reg_spill_slot_opnd
      234    dr_register_bb_event
      235    dr_register_delete_event
      236    dr_register_end_trace_event
      237    dr_register_exception_event
      238    dr_register_exit_event
      239    dr_register_filter_syscall_event
      240    dr_register_module_load_event
      241    dr_register_module_unload_event
      242    dr_register_nudge_event
      243    dr_register_persist_patch
      244    dr_register_persist_ro
      245    dr_register_persist_rw
      246    dr_register_persist_rx
      247    dr_register_post_syscall_event
      248    dr_register_pre_syscall_event
      249    dr_register_restore_state_event
      250    dr_register_restore_state_ex_event
      251    dr_register_thread_exit_event
      252    dr_register_thread_init_event
      253    dr_register_trace_event
      254    dr_remove_it_instrs
      255    dr_rename_file
      256    dr_replace_fragment
      257    dr_request_synchronized_exit
      258    dr_restore_app_stack
      259    dr_restore_arith_flags
      260    dr_restore_arith_flags_from_reg
      261    dr_restore_arith_flags_from_xax
      262    dr_restore_reg
      263    dr_resume_all_other_threads
      264    dr_retakeover_suspended_native_thread
      265    dr_rwlock_create
      266    dr_rwlock_destroy
      267    dr_rwlock_mark_as_app
      268    dr_rwlock_read_lock
      269    dr_rwlock_read_unlock
      270    dr_rwlock_self_owns_write_lock
      271    dr_rwlock_write_lock
      272    dr_rwlock_write_trylock
      273    dr_rwlock_write_unlock
      274    dr_safe_read
      275    dr_safe_write
      276    dr_save_arith_flags
      277    dr_save_arith_flags_to_reg
      278    dr_save_arith_flags_to_xax
      279    dr_save_reg
      280    dr_set_client_name
      281    dr_set_client_version_string
      282    dr_set_isa_mode
      283    dr_set_mcontext
      284    dr_set_process_exit_behavior
      285    dr_set_random_seed
      286    dr_set_tls_field
      287    dr_sleep
      288    dr_snprintf
      289    dr_snwprintf
      290    dr_sscanf
      291    dr_standalone_init
      292    dr_suspend_all_other_threads
      293    dr_suspend_all_other_threads_ex
      294    dr_swap_to_clean_stack
      295    dr_switch_to_app_state
      296    dr_switch_to_app_state_ex
      297    dr_switch_to_dr_state
      298    dr_switch_to_dr_state_ex
      299    dr_symbol_export_iterator_hasnext
      300    dr_symbol_export_iterator_next
      301    dr_symbol_export_iterator_start
      302    dr_symbol_export_iterator_stop
      303    dr_symbol_import_iterator_hasnext
      304    dr_symbol_import_iterator_next
      305    dr_symbol_import_iterator_start
      306    dr_symbol_import_iterator_stop
      307    dr_syscall_get_param
      308    dr_syscall_get_result
      309    dr_syscall_get_result_ex
      310    dr_syscall_intercept_natively
      311    dr_syscall_invoke_another
      312    dr_syscall_set_param
      313    dr_syscall_set_result
      314    dr_syscall_set_result_ex
      315    dr_syscall_set_sysnum
      316    dr_thread_alloc
      317    dr_thread_free
      318    dr_thread_yield
      319    dr_trace_exists_at
      320    dr_trace_head_at
      321    dr_try_setup
      322    dr_try_start
      323    dr_try_stop
      324    dr_unlink_flush_region
      325    dr_unload_aux_library
      326    dr_unmap_file
      327    dr_unregister_bb_event
      328    dr_unregister_delete_event
      329    dr_unregister_end_trace_event
      330    dr_unregister_exception_event
      331    dr_unregister_exit_event
      332    dr_unregister_filter_syscall_event
      333    dr_unregister_module_load_event
      334    dr_unregister_module_unload_event
      335    dr_unregister_nudge_event
      336    dr_unregister_persist_patch
      337    dr_unregister_persist_ro
      338    dr_unregister_persist_rw
      339    dr_unregister_persist_rx
      340    dr_unregister_post_syscall_event
      341    dr_unregister_pre_syscall_event
      342    dr_unregister_restore_state_event
      343    dr_unregister_restore_state_ex_event
      344    dr_unregister_thread_exit_event
      345    dr_unregister_thread_init_event
      346    dr_unregister_trace_event
      347    dr_using_all_private_caches
      348    dr_using_app_state
      349    dr_using_console
      350    dr_virtual_query
      351    dr_vsnprintf
      352    dr_vsnwprintf
      353    dr_write_file
      354    dr_write_saved_reg
      355    dynamo_auto_start
      356    dynamorio_app_init
      357    dynamorio_app_init_and_early_takeover
      358    dynamorio_app_take_over
      359    dynamorio_earliest_init_takeover
      360    Forwarded to NTDLL.fabs
               exported name: fabs
      361    Forwarded to NTDLL.floor
               exported name: floor
      362    get_register_name
      363    get_x86_mode
      364    instr_allocate_raw_bits
      365    instr_build
      366    instr_build_bits
      367    instr_clone
      368    instr_cmovcc_to_jcc
      369    instr_cmovcc_triggered
      370    instr_compute_address
      371    instr_compute_address_ex
      372    instr_compute_address_ex_pos
      373    instr_convert_short_meta_jmp_to_long
      374    instr_create
      375    instr_create_0dst_0src
      376    instr_create_0dst_1src
      377    instr_create_0dst_2src
      378    instr_create_0dst_3src
      379    instr_create_0dst_4src
      380    instr_create_1dst_0src
      381    instr_create_1dst_1src
      382    instr_create_1dst_2src
      383    instr_create_1dst_3src
      384    instr_create_1dst_4src
      385    instr_create_1dst_5src
      386    instr_create_2dst_0src
      387    instr_create_2dst_1src
      388    instr_create_2dst_2src
      389    instr_create_2dst_3src
      390    instr_create_2dst_4src
      391    instr_create_2dst_5src
      392    instr_create_3dst_0src
      393    instr_create_3dst_2src
      394    instr_create_3dst_3src
      395    instr_create_3dst_4src
      396    instr_create_3dst_5src
      397    instr_create_4dst_1src
      398    instr_create_4dst_4src
      399    instr_create_Ndst_Msrc_vardst
      400    instr_create_Ndst_Msrc_varsrc
      401    instr_create_popa
      402    instr_create_pusha
      403    instr_destroy
      404    instr_disassemble
      405    instr_disassemble_to_buffer
      406    instr_encode
      407    instr_encode_to_copy
      408    instr_free
      409    instr_free_raw_bits
      410    instr_get_app_pc
      411    instr_get_arith_flags
      412    instr_get_branch_target_pc
      413    instr_get_dst
      414    instr_get_eflags
      415    instr_get_interrupt_number
      416    instr_get_isa_mode
      417    instr_get_label_data_area
      418    instr_get_next
      419    instr_get_next_app
      420    instr_get_note
      421    instr_get_opcode
      422    instr_get_opcode_eflags
      423    instr_get_predicate
      424    instr_get_prefix_flag
      425    instr_get_prev
      426    instr_get_prev_app
      427    instr_get_raw_bits
      428    instr_get_raw_byte
      429    instr_get_raw_word
      430    instr_get_rel_addr_dst_idx
      431    instr_get_rel_addr_src_idx
      432    instr_get_rel_addr_target
      433    instr_get_src
      434    instr_get_target
      435    instr_get_x86_mode
      436    instr_has_allocated_bits
      437    instr_has_rel_addr_reference
      438    instr_init
      439    instr_invert_cbr
      440    instr_is_3DNow
      441    instr_is_app
      442    instr_is_call
      443    instr_is_call_direct
      444    instr_is_call_indirect
      445    instr_is_cbr
      446    instr_is_cti
      447    instr_is_cti_loop
      448    instr_is_cti_short
      449    instr_is_cti_short_rewrite
      450    instr_is_encoding_possible
      451    instr_is_exclusive_store
      452    instr_is_exit_cti
      453    instr_is_far_abs_cti
      454    instr_is_far_cti
      455    instr_is_floating
      456    instr_is_floating_ex
      457    instr_is_interrupt
      458    instr_is_label
      459    instr_is_mbr
      460    instr_is_meta
      461    instr_is_meta_may_fault
      462    instr_is_mmx
      463    instr_is_mov
      464    instr_is_mov_constant
      465    instr_is_mov_imm_to_tos
      466    instr_is_near_call_direct
      467    instr_is_near_ubr
      468    instr_is_nop
      469    instr_is_predicated
      470    instr_is_prefetch
      471    instr_is_reg_spill_or_restore
      472    instr_is_return
      473    instr_is_sse
      474    instr_is_sse2
      475    instr_is_sse3
      476    instr_is_sse41
      477    instr_is_sse42
      478    instr_is_sse4A
      479    instr_is_sse_or_sse2
      480    instr_is_ssse3
      481    instr_is_syscall
      482    instr_is_ubr
      483    instr_is_undefined
      484    instr_is_wow64_syscall
      485    instr_jcc_taken
      486    instr_length
      487    instr_make_persistent
      488    instr_mem_usage
      489    instr_memory_reference_size
      490    instr_needs_encoding
      491    instr_num_dsts
      492    instr_num_srcs
      493    instr_ok_to_emit
      494    instr_ok_to_mangle
      495    instr_opcode_valid
      496    instr_operands_valid
      497    instr_predicate_triggered
      498    instr_raw_bits_valid
      499    instr_reads_from_reg
      500    instr_reads_memory
      501    instr_reg_in_dst
      502    instr_reg_in_src
      503    instr_remove_dsts
      504    instr_remove_srcs
      505    instr_replace_src_opnd
      506    instr_reset
      507    instr_reuse
      508    instr_same
      509    instr_set_app
      510    instr_set_branch_target_pc
      511    instr_set_dst
      512    instr_set_isa_mode
      513    instr_set_meta
      514    instr_set_meta_may_fault
      515    instr_set_meta_no_translation
      516    instr_set_next
      517    instr_set_note
      518    instr_set_num_opnds
      519    instr_set_ok_to_emit
      520    instr_set_ok_to_mangle
      521    instr_set_opcode
      522    instr_set_operands_valid
      523    instr_set_predicate
      524    instr_set_prefix_flag
      525    instr_set_prev
      526    instr_set_raw_bits
      527    instr_set_raw_bits_valid
      528    instr_set_raw_byte
      529    instr_set_raw_bytes
      530    instr_set_raw_word
      531    instr_set_src
      532    instr_set_target
      533    instr_set_translation
      534    instr_set_x86_mode
      535    instr_shrink_to_16_bits
      536    instr_shrink_to_32_bits
      537    instr_uses_fp_reg
      538    instr_uses_reg
      539    instr_valid
      540    instr_writes_memory
      541    instr_writes_to_exact_reg
      542    instr_writes_to_reg
      543    instr_zeroes_ymmh
      544    instrlist_append
      545    instrlist_clear
      546    instrlist_clear_and_destroy
      547    instrlist_clone
      548    instrlist_create
      549    instrlist_destroy
      550    instrlist_disassemble
      551    instrlist_encode
      552    instrlist_encode_to_copy
      553    instrlist_first
      554    instrlist_first_app
      555    instrlist_get_translation_target
      556    instrlist_init
      557    instrlist_insert_mov_immed_ptrsz
      558    instrlist_insert_mov_instr_addr
      559    instrlist_insert_push_immed_ptrsz
      560    instrlist_insert_push_instr_addr
      561    instrlist_last
      562    instrlist_last_app
      563    instrlist_meta_append
      564    instrlist_meta_fault_append
      565    instrlist_meta_fault_postinsert
      566    instrlist_meta_fault_preinsert
      567    instrlist_meta_postinsert
      568    instrlist_meta_preinsert
      569    instrlist_postinsert
      570    instrlist_preinsert
      571    instrlist_prepend
      572    instrlist_remove
      573    instrlist_replace
      574    instrlist_set_fall_through_target
      575    instrlist_set_return_target
      576    instrlist_set_translation_target
      577    Forwarded to NTDLL.isalnum
               exported name: isalnum
      578    Forwarded to NTDLL.isalpha
               exported name: isalpha
      579    Forwarded to NTDLL.iscntrl
               exported name: iscntrl
      580    Forwarded to NTDLL.isdigit
               exported name: isdigit
      581    Forwarded to NTDLL.isgraph
               exported name: isgraph
      582    Forwarded to NTDLL.islower
               exported name: islower
      583    Forwarded to NTDLL.isprint
               exported name: isprint
      584    Forwarded to NTDLL.ispunct
               exported name: ispunct
      585    Forwarded to NTDLL.isspace
               exported name: isspace
      586    Forwarded to NTDLL.isupper
               exported name: isupper
      587    Forwarded to NTDLL.iswalpha
               exported name: iswalpha
      588    Forwarded to NTDLL.iswctype
               exported name: iswctype
      589    Forwarded to NTDLL.iswdigit
               exported name: iswdigit
      590    Forwarded to NTDLL.iswlower
               exported name: iswlower
      591    Forwarded to NTDLL.iswspace
               exported name: iswspace
      592    Forwarded to NTDLL.iswxdigit
               exported name: iswxdigit
      593    Forwarded to NTDLL.isxdigit
               exported name: isxdigit
      594    Forwarded to NTDLL.labs
               exported name: labs
      595    Forwarded to NTDLL.log
               exported name: log
      596    Forwarded to NTDLL.mbstowcs
               exported name: mbstowcs
      597    Forwarded to NTDLL.memchr
               exported name: memchr
      598    Forwarded to NTDLL.memcmp
               exported name: memcmp
      599    Forwarded to NTDLL.memcpy
               exported name: memcpy
      600    Forwarded to NTDLL.memmove
               exported name: memmove
      601    Forwarded to NTDLL.memset
               exported name: memset
      602    opnd_add_flags
      603    opnd_compute_address
      604    opnd_create_abs_addr
      605    opnd_create_base_disp
      606    opnd_create_base_disp_ex
      607    opnd_create_far_abs_addr
      608    opnd_create_far_base_disp
      609    opnd_create_far_base_disp_ex
      610    opnd_create_far_instr
      611    opnd_create_far_pc
      612    opnd_create_far_rel_addr
      613    opnd_create_immed_float
      614    opnd_create_immed_int
      615    opnd_create_immed_int64
      616    opnd_create_immed_uint
      617    opnd_create_instr
      618    opnd_create_instr_ex
      619    opnd_create_mem_instr
      620    opnd_create_null
      621    opnd_create_pc
      622    opnd_create_reg
      623    opnd_create_reg_ex
      624    opnd_create_reg_partial
      625    opnd_create_rel_addr
      626    opnd_defines_use
      627    opnd_disassemble
      628    opnd_disassemble_to_buffer
      629    opnd_get_addr
      630    opnd_get_base
      631    opnd_get_disp
      632    opnd_get_flags
      633    opnd_get_immed_float
      634    opnd_get_immed_int
      635    opnd_get_immed_int64
      636    opnd_get_index
      637    opnd_get_instr
      638    opnd_get_mem_instr_disp
      639    opnd_get_pc
      640    opnd_get_reg
      641    opnd_get_reg_used
      642    opnd_get_scale
      643    opnd_get_segment
      644    opnd_get_segment_selector
      645    opnd_get_shift
      646    opnd_get_size
      647    opnd_is_abs_addr
      648    opnd_is_base_disp
      649    opnd_is_disp_encode_zero
      650    opnd_is_disp_force_full
      651    opnd_is_disp_short_addr
      652    opnd_is_far_abs_addr
      653    opnd_is_far_base_disp
      654    opnd_is_far_instr
      655    opnd_is_far_memory_reference
      656    opnd_is_far_pc
      657    opnd_is_far_rel_addr
      658    opnd_is_immed
      659    opnd_is_immed_float
      660    opnd_is_immed_int
      661    opnd_is_immed_int64
      662    opnd_is_instr
      663    opnd_is_mem_instr
      664    opnd_is_memory_reference
      665    opnd_is_near_abs_addr
      666    opnd_is_near_base_disp
      667    opnd_is_near_instr
      668    opnd_is_near_memory_reference
      669    opnd_is_near_pc
      670    opnd_is_near_rel_addr
      671    opnd_is_null
      672    opnd_is_pc
      673    opnd_is_reg
      674    opnd_is_reg_32bit
      675    opnd_is_reg_64bit
      676    opnd_is_reg_partial
      677    opnd_is_reg_pointer_sized
      678    opnd_is_rel_addr
      679    opnd_is_vsib
      680    opnd_num_regs_used
      681    opnd_replace_reg
      682    opnd_same
      683    opnd_same_address
      684    opnd_set_disp
      685    opnd_set_disp_ex
      686    opnd_set_flags
      687    opnd_set_size
      688    opnd_share_reg
      689    opnd_shrink_to_16_bits
      690    opnd_shrink_to_32_bits
      691    opnd_size_from_bytes
      692    opnd_size_in_bits
      693    opnd_size_in_bytes
      694    opnd_uses_reg
      695    Forwarded to NTDLL.pow
               exported name: pow
      696    proc_avx_enabled
      697    proc_bump_to_end_of_cache_line
      698    proc_fpstate_save_size
      699    proc_get_L1_dcache_size
      700    proc_get_L1_icache_size
      701    proc_get_L2_cache_size
      702    proc_get_all_feature_bits
      703    proc_get_brand_string
      704    proc_get_cache_line_size
      705    proc_get_cache_size_str
      706    proc_get_containing_page
      707    proc_get_family
      708    proc_get_model
      709    proc_get_stepping
      710    proc_get_type
      711    proc_get_vendor
      712    proc_has_feature
      713    proc_is_cache_aligned
      714    proc_restore_fpstate
      715    proc_save_fpstate
      716    proc_set_vendor
      717    Forwarded to NTDLL.qsort
               exported name: qsort
      718    reg_32_to_16
      719    reg_32_to_64
      720    reg_32_to_8
      721    reg_32_to_opsz
      722    reg_64_to_32
      723    reg_get_bits
      724    reg_get_size
      725    reg_get_value
      726    reg_get_value_ex
      727    reg_is_32bit
      728    reg_is_64bit
      729    reg_is_extended
      730    reg_is_fp
      731    reg_is_gpr
      732    reg_is_mmx
      733    reg_is_pointer_sized
      734    reg_is_segment
      735    reg_is_simd
      736    reg_is_stolen
      737    reg_is_xmm
      738    reg_is_ymm
      739    reg_overlap
      740    reg_parameter_num
      741    reg_resize_to_opsz
      742    reg_set_value
      743    reg_to_pointer_sized
      744    set_x86_mode
      745    Forwarded to NTDLL.sin
               exported name: sin
      746    Forwarded to NTDLL.sprintf
               exported name: sprintf
      747    Forwarded to NTDLL.sqrt
               exported name: sqrt
      748    Forwarded to NTDLL.sscanf
               exported name: sscanf
      749    Forwarded to NTDLL.strchr
               exported name: strchr
      750    Forwarded to NTDLL.strcmp
               exported name: strcmp
      751    Forwarded to NTDLL.strcspn
               exported name: strcspn
      752    Forwarded to NTDLL.strlen
               exported name: strlen
      753    Forwarded to NTDLL.strncat
               exported name: strncat
      754    Forwarded to NTDLL.strncmp
               exported name: strncmp
      755    Forwarded to NTDLL.strncpy
               exported name: strncpy
      756    Forwarded to NTDLL.strpbrk
               exported name: strpbrk
      757    Forwarded to NTDLL.strrchr
               exported name: strrchr
      758    Forwarded to NTDLL.strspn
               exported name: strspn
      759    Forwarded to NTDLL.strstr
               exported name: strstr
      760    Forwarded to NTDLL.strtol
               exported name: strtol
      761    Forwarded to NTDLL.strtoul
               exported name: strtoul
      762    Forwarded to NTDLL.tan
               exported name: tan
      763    Forwarded to NTDLL.tolower
               exported name: tolower
      764    Forwarded to NTDLL.toupper
               exported name: toupper
      765    Forwarded to NTDLL.towlower
               exported name: towlower
      766    Forwarded to NTDLL.towupper
               exported name: towupper
      767    unique_build_number
      768    Forwarded to NTDLL.wcscat
               exported name: wcscat
      769    Forwarded to NTDLL.wcschr
               exported name: wcschr
      770    Forwarded to NTDLL.wcscmp
               exported name: wcscmp
      771    Forwarded to NTDLL.wcscpy
               exported name: wcscpy
      772    Forwarded to NTDLL.wcscspn
               exported name: wcscspn
      773    Forwarded to NTDLL.wcslen
               exported name: wcslen
      774    Forwarded to NTDLL.wcsncat
               exported name: wcsncat
      775    Forwarded to NTDLL.wcsncmp
               exported name: wcsncmp
      776    Forwarded to NTDLL.wcsncpy
               exported name: wcsncpy
      777    Forwarded to NTDLL.wcspbrk
               exported name: wcspbrk
      778    Forwarded to NTDLL.wcsrchr
               exported name: wcsrchr
      779    Forwarded to NTDLL.wcsspn
               exported name: wcsspn
      780    Forwarded to NTDLL.wcsstr
               exported name: wcsstr
      781    Forwarded to NTDLL.wcstol
               exported name: wcstol
      782    Forwarded to NTDLL.wcstombs
               exported name: wcstombs
      783    Forwarded to NTDLL.wcstoul
               exported name: wcstoul
